---
triple:          'arm64-apple-darwin'
binary-path:     SNNT13.out
relocations:
  - { offsetInCU: 0x49, offset: 0x49, size: 0x8, addend: 0x0, symName: __ZN4ROOT8InternalL13gVersionCheckE, symObjAddr: 0x191AA8, symBinAddr: 0x100030170, symSize: 0x0 }
  - { offsetInCU: 0x31A, offset: 0x31A, size: 0x8, addend: 0x0, symName: __ZN4ROOT8Internal14GetClassHelperIfEEP6TClassbbNSt3__117integral_constantIbLb0EEE, symObjAddr: 0x19D48, symBinAddr: 0x10001ACBC, symSize: 0x40 }
  - { offsetInCU: 0xD29, offset: 0xD29, size: 0x8, addend: 0x0, symName: __ZL7hit_pos, symObjAddr: 0x191AB0, symBinAddr: 0x100030178, symSize: 0x0 }
  - { offsetInCU: 0x2BB9B, offset: 0x2BB9B, size: 0x8, addend: 0x0, symName: '__ZNSt3__111__introsortINS_17_ClassicAlgPolicyERZ6EncodedE3$_0P3HitEEvT1_S6_T0_NS_15iterator_traitsIS6_E15difference_typeE', symObjAddr: 0x16DE8, symBinAddr: 0x100017D5C, symSize: 0x6B8 }
  - { offsetInCU: 0x2BCF6, offset: 0x2BCF6, size: 0x8, addend: 0x0, symName: '__ZNSt3__118__insertion_sort_3B7v160006INS_17_ClassicAlgPolicyERZ6EncodedE3$_0P3HitEEvT1_S6_T0_', symObjAddr: 0x17608, symBinAddr: 0x10001857C, symSize: 0x158 }
  - { offsetInCU: 0x2BDC9, offset: 0x2BDC9, size: 0x8, addend: 0x0, symName: '__ZNSt3__111__sift_downB7v160006INS_17_ClassicAlgPolicyERZ6EncodedE3$_0P3HitEEvT1_OT0_NS_15iterator_traitsIS6_E15difference_typeES6_', symObjAddr: 0x18048, symBinAddr: 0x100018FBC, symSize: 0x220 }
  - { offsetInCU: 0x2BE76, offset: 0x2BE76, size: 0x8, addend: 0x0, symName: '__ZNSt3__117__floyd_sift_downB7v160006INS_17_ClassicAlgPolicyERZ6EncodedE3$_0P3HitEET1_S6_OT0_NS_15iterator_traitsIS6_E15difference_typeE', symObjAddr: 0x1840C, symBinAddr: 0x100019380, symSize: 0x108 }
  - { offsetInCU: 0x2BF0E, offset: 0x2BF0E, size: 0x8, addend: 0x0, symName: '__ZNSt3__127__insertion_sort_incompleteIRZ6EncodedE3$_0P3HitEEbT0_S5_T_', symObjAddr: 0x1798C, symBinAddr: 0x100018900, symSize: 0x324 }
  - { offsetInCU: 0x2DF77, offset: 0x2DF77, size: 0x8, addend: 0x0, symName: __ZNSt3__124__put_character_sequenceB7v160006IcNS_11char_traitsIcEEEERNS_13basic_ostreamIT_T0_EES7_PKS4_m, symObjAddr: 0x1CB7C, symBinAddr: 0x10001DAF0, symSize: 0x1EC }
  - { offsetInCU: 0x2FBBF, offset: 0x2FBBF, size: 0x8, addend: 0x0, symName: __ZNSt3__19__shuffleB7v160006INS_17_ClassicAlgPolicyENS_11__wrap_iterIPiEES4_RNS_26linear_congruential_engineIjLj48271ELj0ELj2147483647EEEEET0_S8_T1_OT2_, symObjAddr: 0x1DD20, symBinAddr: 0x10001EC94, symSize: 0x13C }
  - { offsetInCU: 0x313D8, offset: 0x313D8, size: 0x8, addend: 0x0, symName: '__ZNSt3__14sortB7v160006INS_11__wrap_iterIP3HitEEZ6EncodedE3$_0EEvT_S6_T0_', symObjAddr: 0x624, symBinAddr: 0x100001598, symSize: 0x40 }
  - { offsetInCU: 0x31432, offset: 0x31432, size: 0x8, addend: 0x0, symName: __ZNSt3__1neB7v160006IP3HitEEbRKNS_11__wrap_iterIT_EES7_, symObjAddr: 0x6C4, symBinAddr: 0x100001638, symSize: 0x34 }
  - { offsetInCU: 0x31475, offset: 0x31475, size: 0x8, addend: 0x0, symName: __ZNSt3__1lsB7v160006INS_11char_traitsIcEEEERNS_13basic_ostreamIcT_EES6_PKc, symObjAddr: 0x1E8C, symBinAddr: 0x100002E00, symSize: 0x48 }
  - { offsetInCU: 0x314BB, offset: 0x314BB, size: 0x8, addend: 0x0, symName: __ZNSt3__14endlB7v160006IcNS_11char_traitsIcEEEERNS_13basic_ostreamIT_T0_EES7_, symObjAddr: 0x1F28, symBinAddr: 0x100002E9C, symSize: 0x58 }
  - { offsetInCU: 0x314FB, offset: 0x314FB, size: 0x8, addend: 0x0, symName: __ZNSt3__17shuffleB7v160006INS_11__wrap_iterIPiEERNS_26linear_congruential_engineIjLj48271ELj0ELj2147483647EEEEEvT_S7_OT0_, symObjAddr: 0x4348, symBinAddr: 0x1000052BC, symSize: 0x48 }
  - { offsetInCU: 0x31551, offset: 0x31551, size: 0x8, addend: 0x0, symName: __ZNSt3__1neB7v160006IPiEEbRKNS_11__wrap_iterIT_EES6_, symObjAddr: 0x43F0, symBinAddr: 0x100005364, symSize: 0x34 }
  - { offsetInCU: 0x31594, offset: 0x31594, size: 0x8, addend: 0x0, symName: __ZNSt3__13minB7v160006IfEERKT_S3_S3_, symObjAddr: 0x44C8, symBinAddr: 0x10000543C, symSize: 0x2C }
  - { offsetInCU: 0x3329D, offset: 0x3329D, size: 0x8, addend: 0x0, symName: __ZNSt3__1lsB7v160006INS_11char_traitsIcEEEERNS_13basic_ostreamIcT_EES6_c, symObjAddr: 0x11D24, symBinAddr: 0x100012C98, symSize: 0x34 }
  - { offsetInCU: 0x332E3, offset: 0x332E3, size: 0x8, addend: 0x0, symName: __ZNSt3__15flushB7v160006IcNS_11char_traitsIcEEEERNS_13basic_ostreamIT_T0_EES7_, symObjAddr: 0x11D58, symBinAddr: 0x100012CCC, symSize: 0x28 }
  - { offsetInCU: 0x3372F, offset: 0x3372F, size: 0x8, addend: 0x0, symName: __ZNSt3__1plB7v160006IcNS_11char_traitsIcEENS_9allocatorIcEEEENS_12basic_stringIT_T0_T1_EEOS9_PKS6_, symObjAddr: 0x120B0, symBinAddr: 0x100013024, symSize: 0x40 }
  - { offsetInCU: 0x33787, offset: 0x33787, size: 0x8, addend: 0x0, symName: __ZNSt3__1plB7v160006IcNS_11char_traitsIcEENS_9allocatorIcEEEENS_12basic_stringIT_T0_T1_EERKS9_OS9_, symObjAddr: 0x120F0, symBinAddr: 0x100013064, symSize: 0x44 }
  - { offsetInCU: 0x337EA, offset: 0x337EA, size: 0x8, addend: 0x0, symName: __ZNSt3__1eqB7v160006IP3HitEEbRKNS_11__wrap_iterIT_EES7_, symObjAddr: 0x1386C, symBinAddr: 0x1000147E0, symSize: 0x48 }
  - { offsetInCU: 0x3382D, offset: 0x3382D, size: 0x8, addend: 0x0, symName: __ZNSt3__1eqB7v160006IPiEEbRKNS_11__wrap_iterIT_EES6_, symObjAddr: 0x138CC, symBinAddr: 0x100014840, symSize: 0x48 }
  - { offsetInCU: 0x33870, offset: 0x33870, size: 0x8, addend: 0x0, symName: __ZNSt3__13minB7v160006IfNS_6__lessIffEEEERKT_S5_S5_T0_, symObjAddr: 0x1392C, symBinAddr: 0x1000148A0, symSize: 0x54 }
  - { offsetInCU: 0x33905, offset: 0x33905, size: 0x8, addend: 0x0, symName: __ZNSt3__119__debug_db_insert_cB7v160006INS_12basic_stringIcNS_11char_traitsIcEENS_9allocatorIcEEEEEEvPT_, symObjAddr: 0x13C8C, symBinAddr: 0x100014C00, symSize: 0x10 }
  - { offsetInCU: 0x33936, offset: 0x33936, size: 0x8, addend: 0x0, symName: __ZNSt3__118__constexpr_strlenB7v160006EPKc, symObjAddr: 0x13D58, symBinAddr: 0x100014CCC, symSize: 0x24 }
  - { offsetInCU: 0x33962, offset: 0x33962, size: 0x8, addend: 0x0, symName: __ZNSt3__125__debug_db_invalidate_allB7v160006INS_6vectorIiNS_9allocatorIiEEEEEEvPT_, symObjAddr: 0x13E8C, symBinAddr: 0x100014E00, symSize: 0x10 }
  - { offsetInCU: 0x33993, offset: 0x33993, size: 0x8, addend: 0x0, symName: __ZNSt3__112__to_addressB7v160006IiEEPT_S2_, symObjAddr: 0x13F7C, symBinAddr: 0x100014EF0, symSize: 0x14 }
  - { offsetInCU: 0x339C8, offset: 0x339C8, size: 0x8, addend: 0x0, symName: __ZNSt3__13maxB7v160006ImEERKT_S3_S3_, symObjAddr: 0x1466C, symBinAddr: 0x1000155E0, symSize: 0x2C }
  - { offsetInCU: 0x33A0B, offset: 0x33A0B, size: 0x8, addend: 0x0, symName: __ZNSt3__13minB7v160006ImEERKT_S3_S3_, symObjAddr: 0x14698, symBinAddr: 0x10001560C, symSize: 0x2C }
  - { offsetInCU: 0x33C38, offset: 0x33C38, size: 0x8, addend: 0x0, symName: __ZNSt3__13minB7v160006ImNS_6__lessImmEEEERKT_S5_S5_T0_, symObjAddr: 0x14724, symBinAddr: 0x100015698, symSize: 0x54 }
  - { offsetInCU: 0x33CCD, offset: 0x33CCD, size: 0x8, addend: 0x0, symName: __ZNSt3__120__throw_length_errorB7v160006EPKc, symObjAddr: 0x14800, symBinAddr: 0x100015774, symSize: 0x64 }
  - { offsetInCU: 0x33CF5, offset: 0x33CF5, size: 0x8, addend: 0x0, symName: __ZNSt3__13maxB7v160006ImNS_6__lessImmEEEERKT_S5_S5_T0_, symObjAddr: 0x148E4, symBinAddr: 0x100015858, symSize: 0x54 }
  - { offsetInCU: 0x33D4F, offset: 0x33D4F, size: 0x8, addend: 0x0, symName: __ZNSt3__119__allocate_at_leastB7v160006INS_9allocatorIiEEEENS_19__allocation_resultINS_16allocator_traitsIT_E7pointerEEERS5_m, symObjAddr: 0x14A48, symBinAddr: 0x1000159BC, symSize: 0x40 }
  - { offsetInCU: 0x33D92, offset: 0x33D92, size: 0x8, addend: 0x0, symName: __ZNSt3__117__libcpp_allocateB7v160006Emm, symObjAddr: 0x14BE8, symBinAddr: 0x100015B5C, symSize: 0x60 }
  - { offsetInCU: 0x33DED, offset: 0x33DED, size: 0x8, addend: 0x0, symName: __ZNSt3__124__is_overaligned_for_newB7v160006Em, symObjAddr: 0x14C48, symBinAddr: 0x100015BBC, symSize: 0x20 }
  - { offsetInCU: 0x33E1B, offset: 0x33E1B, size: 0x8, addend: 0x0, symName: __ZNSt3__121__libcpp_operator_newB7v160006IJmSt11align_val_tEEEPvDpT_, symObjAddr: 0x14C68, symBinAddr: 0x100015BDC, symSize: 0x2C }
  - { offsetInCU: 0x33E68, offset: 0x33E68, size: 0x8, addend: 0x0, symName: __ZNSt3__121__libcpp_operator_newB7v160006IJmEEEPvDpT_, symObjAddr: 0x14C94, symBinAddr: 0x100015C08, symSize: 0x24 }
  - { offsetInCU: 0x33EA1, offset: 0x33EA1, size: 0x8, addend: 0x0, symName: __ZNSt3__142__uninitialized_allocator_move_if_noexceptB7v160006INS_9allocatorIiEENS_16reverse_iteratorIPiEES5_ivEET1_RT_T0_S9_S6_, symObjAddr: 0x14DD4, symBinAddr: 0x100015D48, symSize: 0x78 }
  - { offsetInCU: 0x33F1E, offset: 0x33F1E, size: 0x8, addend: 0x0, symName: __ZNSt3__14swapB7v160006IPiEENS_9enable_ifIXaasr21is_move_constructibleIT_EE5valuesr18is_move_assignableIS3_EE5valueEvE4typeERS3_S6_, symObjAddr: 0x14E98, symBinAddr: 0x100015E0C, symSize: 0x3C }
  - { offsetInCU: 0x33F6F, offset: 0x33F6F, size: 0x8, addend: 0x0, symName: __ZNSt3__14moveB7v160006INS_16reverse_iteratorIPiEES3_EET0_T_S5_S4_, symObjAddr: 0x14F80, symBinAddr: 0x100015EF4, symSize: 0x78 }
  - { offsetInCU: 0x33FC9, offset: 0x33FC9, size: 0x8, addend: 0x0, symName: __ZNSt3__16__moveB7v160006INS_17_ClassicAlgPolicyENS_16reverse_iteratorIPiEES4_S4_EENS_4pairIT0_T2_EES6_T1_S7_, symObjAddr: 0x14FF8, symBinAddr: 0x100015F6C, symSize: 0x64 }
  - { offsetInCU: 0x34035, offset: 0x34035, size: 0x8, addend: 0x0, symName: __ZNSt3__123__dispatch_copy_or_moveB7v160006INS_17_ClassicAlgPolicyENS_11__move_loopIS1_EENS_14__move_trivialENS_16reverse_iteratorIPiEES7_S7_EENS_4pairIT2_T4_EES9_T3_SA_, symObjAddr: 0x1505C, symBinAddr: 0x100015FD0, symSize: 0x64 }
  - { offsetInCU: 0x340B3, offset: 0x340B3, size: 0x8, addend: 0x0, symName: __ZNSt3__121__unwrap_and_dispatchB7v160006INS_10__overloadINS_11__move_loopINS_17_ClassicAlgPolicyEEENS_14__move_trivialEEENS_16reverse_iteratorIPiEES9_S9_Li0EEENS_4pairIT0_T2_EESB_T1_SC_, symObjAddr: 0x150C0, symBinAddr: 0x100016034, symSize: 0x12C }
  - { offsetInCU: 0x34144, offset: 0x34144, size: 0x8, addend: 0x0, symName: __ZNSt3__114__unwrap_rangeB7v160006INS_16reverse_iteratorIPiEES3_EENS_4pairIT0_S5_EET_S7_, symObjAddr: 0x151EC, symBinAddr: 0x100016160, symSize: 0x84 }
  - { offsetInCU: 0x343BB, offset: 0x343BB, size: 0x8, addend: 0x0, symName: __ZNSt3__113__unwrap_iterB7v160006INS_16reverse_iteratorIPiEENS_18__unwrap_iter_implIS3_Lb0EEELi0EEEDTclsrT0_8__unwrapclsr3stdE7declvalIT_EEEES7_, symObjAddr: 0x15310, symBinAddr: 0x100016284, symSize: 0x44 }
  - { offsetInCU: 0x34400, offset: 0x34400, size: 0x8, addend: 0x0, symName: __ZNSt3__19make_pairB7v160006INS_16reverse_iteratorIPiEES3_EENS_4pairINS_18__unwrap_ref_decayIT_E4typeENS5_IT0_E4typeEEEOS6_OS9_, symObjAddr: 0x15354, symBinAddr: 0x1000162C8, symSize: 0x38 }
  - { offsetInCU: 0x3444F, offset: 0x3444F, size: 0x8, addend: 0x0, symName: __ZNSt3__114__rewrap_rangeB7v160006INS_16reverse_iteratorIPiEES3_EET_S4_T0_, symObjAddr: 0x1538C, symBinAddr: 0x100016300, symSize: 0x5C }
  - { offsetInCU: 0x3449B, offset: 0x3449B, size: 0x8, addend: 0x0, symName: __ZNSt3__113__rewrap_iterB7v160006INS_16reverse_iteratorIPiEES3_NS_18__unwrap_iter_implIS3_Lb0EEEEET_S6_T0_, symObjAddr: 0x153E8, symBinAddr: 0x10001635C, symSize: 0x74 }
  - { offsetInCU: 0x344F0, offset: 0x344F0, size: 0x8, addend: 0x0, symName: __ZNSt3__1neB7v160006IPiS1_EEbRKNS_16reverse_iteratorIT_EERKNS2_IT0_EE, symObjAddr: 0x1545C, symBinAddr: 0x1000163D0, symSize: 0x48 }
  - { offsetInCU: 0x34784, offset: 0x34784, size: 0x8, addend: 0x0, symName: __ZNSt3__119__libcpp_deallocateB7v160006EPvmm, symObjAddr: 0x15814, symBinAddr: 0x100016788, symSize: 0x60 }
  - { offsetInCU: 0x347EA, offset: 0x347EA, size: 0x8, addend: 0x0, symName: __ZNSt3__127__do_deallocate_handle_sizeB7v160006IJSt11align_val_tEEEvPvmDpT_, symObjAddr: 0x15874, symBinAddr: 0x1000167E8, symSize: 0x30 }
  - { offsetInCU: 0x3483E, offset: 0x3483E, size: 0x8, addend: 0x0, symName: __ZNSt3__127__do_deallocate_handle_sizeB7v160006IJEEEvPvmDpT_, symObjAddr: 0x158A4, symBinAddr: 0x100016818, symSize: 0x28 }
  - { offsetInCU: 0x3487E, offset: 0x3487E, size: 0x8, addend: 0x0, symName: __ZNSt3__124__libcpp_operator_deleteB7v160006IJPvSt11align_val_tEEEvDpT_, symObjAddr: 0x158CC, symBinAddr: 0x100016840, symSize: 0x2C }
  - { offsetInCU: 0x348C8, offset: 0x348C8, size: 0x8, addend: 0x0, symName: __ZNSt3__124__libcpp_operator_deleteB7v160006IJPvEEEvDpT_, symObjAddr: 0x158F8, symBinAddr: 0x10001686C, symSize: 0x24 }
  - { offsetInCU: 0x348FD, offset: 0x348FD, size: 0x8, addend: 0x0, symName: __ZNSt3__112__to_addressB7v160006IKcEEPT_S3_, symObjAddr: 0x15990, symBinAddr: 0x100016904, symSize: 0x14 }
  - { offsetInCU: 0x34965, offset: 0x34965, size: 0x8, addend: 0x0, symName: __ZNSt3__119__debug_db_insert_cB7v160006INS_6vectorI3HitNS_9allocatorIS2_EEEEEEvPT_, symObjAddr: 0x15B60, symBinAddr: 0x100016AD4, symSize: 0x10 }
  - { offsetInCU: 0x34996, offset: 0x34996, size: 0x8, addend: 0x0, symName: __ZNSt3__118__debug_db_erase_cB7v160006INS_6vectorI3HitNS_9allocatorIS2_EEEEEEvPT_, symObjAddr: 0x15E24, symBinAddr: 0x100016D98, symSize: 0x10 }
  - { offsetInCU: 0x349C7, offset: 0x349C7, size: 0x8, addend: 0x0, symName: __ZNSt3__112__to_addressB7v160006I3HitEEPT_S3_, symObjAddr: 0x15F40, symBinAddr: 0x100016EB4, symSize: 0x14 }
  - { offsetInCU: 0x349FC, offset: 0x349FC, size: 0x8, addend: 0x0, symName: __ZNSt3__115__debug_db_swapB7v160006INS_12basic_stringIcNS_11char_traitsIcEENS_9allocatorIcEEEEEEvPT_S8_, symObjAddr: 0x161F0, symBinAddr: 0x100017164, symSize: 0x14 }
  - { offsetInCU: 0x34A3B, offset: 0x34A3B, size: 0x8, addend: 0x0, symName: __ZNSt3__119__debug_db_insert_cB7v160006INS_6vectorIdNS_9allocatorIdEEEEEEvPT_, symObjAddr: 0x162D0, symBinAddr: 0x100017244, symSize: 0x10 }
  - { offsetInCU: 0x34A6C, offset: 0x34A6C, size: 0x8, addend: 0x0, symName: __ZNSt3__118__debug_db_erase_cB7v160006INS_6vectorIdNS_9allocatorIdEEEEEEvPT_, symObjAddr: 0x16594, symBinAddr: 0x100017508, symSize: 0x10 }
  - { offsetInCU: 0x34A9D, offset: 0x34A9D, size: 0x8, addend: 0x0, symName: __ZNSt3__112__to_addressB7v160006IdEEPT_S2_, symObjAddr: 0x166B0, symBinAddr: 0x100017624, symSize: 0x14 }
  - { offsetInCU: 0x34AD2, offset: 0x34AD2, size: 0x8, addend: 0x0, symName: __ZNSt3__119__debug_db_insert_cB7v160006INS_6vectorIiNS_9allocatorIiEEEEEEvPT_, symObjAddr: 0x168FC, symBinAddr: 0x100017870, symSize: 0x10 }
  - { offsetInCU: 0x34B03, offset: 0x34B03, size: 0x8, addend: 0x0, symName: __ZNSt3__118__debug_db_erase_cB7v160006INS_6vectorIiNS_9allocatorIiEEEEEEvPT_, symObjAddr: 0x16AEC, symBinAddr: 0x100017A60, symSize: 0x10 }
  - { offsetInCU: 0x34B34, offset: 0x34B34, size: 0x8, addend: 0x0, symName: __ZNSt3__125__debug_db_invalidate_allB7v160006INS_6vectorI3HitNS_9allocatorIS2_EEEEEEvPT_, symObjAddr: 0x16BB0, symBinAddr: 0x100017B24, symSize: 0x10 }
  - { offsetInCU: 0x34B65, offset: 0x34B65, size: 0x8, addend: 0x0, symName: '__ZNSt3__111__sort_implB7v160006INS_17_ClassicAlgPolicyENS_11__wrap_iterIP3HitEEZ6EncodedE3$_0EEvT0_S7_RT1_', symObjAddr: 0x16C54, symBinAddr: 0x100017BC8, symSize: 0x84 }
  - { offsetInCU: 0x34C0C, offset: 0x34C0C, size: 0x8, addend: 0x0, symName: __ZNSt3__123__debug_randomize_rangeB7v160006INS_17_ClassicAlgPolicyENS_11__wrap_iterIP3HitEES5_EEvT0_T1_, symObjAddr: 0x16CD8, symBinAddr: 0x100017C4C, symSize: 0x14 }
  - { offsetInCU: 0x34C5D, offset: 0x34C5D, size: 0x8, addend: 0x0, symName: '__ZNSt3__16__sortIRZ6EncodedE3$_0P3HitEEvT0_S5_T_', symObjAddr: 0x16CEC, symBinAddr: 0x100017C60, symSize: 0x68 }
  - { offsetInCU: 0x34CED, offset: 0x34CED, size: 0x8, addend: 0x0, symName: __ZNSt3__113__unwrap_iterB7v160006INS_11__wrap_iterIP3HitEENS_18__unwrap_iter_implIS4_Lb1EEELi0EEEDTclsrT0_8__unwrapclsr3stdE7declvalIT_EEEES8_, symObjAddr: 0x16D54, symBinAddr: 0x100017CC8, symSize: 0x2C }
  - { offsetInCU: 0x34D32, offset: 0x34D32, size: 0x8, addend: 0x0, symName: __ZNSt3__17__log2iB7v160006IlEET_S1_, symObjAddr: 0x16D80, symBinAddr: 0x100017CF4, symSize: 0x54 }
  - { offsetInCU: 0x34D9D, offset: 0x34D9D, size: 0x8, addend: 0x0, symName: __ZNSt3__112__libcpp_clzB7v160006Em, symObjAddr: 0x174B8, symBinAddr: 0x10001842C, symSize: 0x1C }
  - { offsetInCU: 0x34DC9, offset: 0x34DC9, size: 0x8, addend: 0x0, symName: '__ZNSt3__124__sort3_maybe_branchlessB7v160006INS_17_ClassicAlgPolicyERZ6EncodedE3$_0P3HitEENS_9enable_ifIXntsr21__use_branchless_sortIT0_T1_EE5valueEvE4typeES8_S8_S8_S7_', symObjAddr: 0x1753C, symBinAddr: 0x1000184B0, symSize: 0x3C }
  - { offsetInCU: 0x34E3A, offset: 0x34E3A, size: 0x8, addend: 0x0, symName: '__ZNSt3__124__sort4_maybe_branchlessB7v160006INS_17_ClassicAlgPolicyERZ6EncodedE3$_0P3HitEENS_9enable_ifIXntsr21__use_branchless_sortIT0_T1_EE5valueEvE4typeES8_S8_S8_S8_S7_', symObjAddr: 0x17578, symBinAddr: 0x1000184EC, symSize: 0x44 }
  - { offsetInCU: 0x34EBF, offset: 0x34EBF, size: 0x8, addend: 0x0, symName: '__ZNSt3__124__sort5_maybe_branchlessB7v160006INS_17_ClassicAlgPolicyERZ6EncodedE3$_0P3HitEENS_9enable_ifIXntsr21__use_branchless_sortIT0_T1_EE5valueEvE4typeES8_S8_S8_S8_S8_S7_', symObjAddr: 0x175BC, symBinAddr: 0x100018530, symSize: 0x4C }
  - { offsetInCU: 0x34F53, offset: 0x34F53, size: 0x8, addend: 0x0, symName: '__ZNSt3__114__partial_sortB7v160006INS_17_ClassicAlgPolicyERZ6EncodedE3$_0P3HitS5_EET1_S6_S6_T2_RT0_', symObjAddr: 0x17760, symBinAddr: 0x1000186D4, symSize: 0x94 }
  - { offsetInCU: 0x34FDB, offset: 0x34FDB, size: 0x8, addend: 0x0, symName: '__ZNSt3__119__sort5_wrap_policyB7v160006INS_17_ClassicAlgPolicyERZ6EncodedE3$_0P3HitEEjT1_S6_S6_S6_S6_T0_', symObjAddr: 0x177F4, symBinAddr: 0x100018768, symSize: 0x54 }
  - { offsetInCU: 0x35081, offset: 0x35081, size: 0x8, addend: 0x0, symName: '__ZNSt3__17__sort3B7v160006INS_17_ClassicAlgPolicyERZ6EncodedE3$_0P3HitEEjT1_S6_S6_T0_', symObjAddr: 0x17848, symBinAddr: 0x1000187BC, symSize: 0x144 }
  - { offsetInCU: 0x35100, offset: 0x35100, size: 0x8, addend: 0x0, symName: __ZNSt3__19iter_swapB7v160006IP3HitS2_EEvT_T0_, symObjAddr: 0x17CC8, symBinAddr: 0x100018C3C, symSize: 0x2C }
  - { offsetInCU: 0x35148, offset: 0x35148, size: 0x8, addend: 0x0, symName: __ZNSt3__14swapB7v160006I3HitEENS_9enable_ifIXaasr21is_move_constructibleIT_EE5valuesr18is_move_assignableIS3_EE5valueEvE4typeERS3_S6_, symObjAddr: 0x17CF4, symBinAddr: 0x100018C68, symSize: 0x50 }
  - { offsetInCU: 0x35199, offset: 0x35199, size: 0x8, addend: 0x0, symName: '__ZNSt3__17__sort4B7v160006INS_17_ClassicAlgPolicyERZ6EncodedE3$_0P3HitEEjT1_S6_S6_S6_T0_', symObjAddr: 0x17D44, symBinAddr: 0x100018CB8, symSize: 0xE4 }
  - { offsetInCU: 0x3524A, offset: 0x3524A, size: 0x8, addend: 0x0, symName: __ZNSt3__123__debug_randomize_rangeB7v160006INS_17_ClassicAlgPolicyEP3HitS3_EEvT0_T1_, symObjAddr: 0x17E6C, symBinAddr: 0x100018DE0, symSize: 0x14 }
  - { offsetInCU: 0x3529B, offset: 0x3529B, size: 0x8, addend: 0x0, symName: '__ZNSt3__119__partial_sort_implB7v160006INS_17_ClassicAlgPolicyERZ6EncodedE3$_0P3HitS5_EET1_S6_S6_T2_OT0_', symObjAddr: 0x17E80, symBinAddr: 0x100018DF4, symSize: 0x110 }
  - { offsetInCU: 0x35331, offset: 0x35331, size: 0x8, addend: 0x0, symName: '__ZNSt3__111__make_heapB7v160006INS_17_ClassicAlgPolicyERZ6EncodedE3$_0P3HitEEvT1_S6_OT0_', symObjAddr: 0x17F90, symBinAddr: 0x100018F04, symSize: 0xB8 }
  - { offsetInCU: 0x353D3, offset: 0x353D3, size: 0x8, addend: 0x0, symName: '__ZNSt3__111__sort_heapB7v160006INS_17_ClassicAlgPolicyERZ6EncodedE3$_0P3HitEEvT1_S6_OT0_', symObjAddr: 0x18268, symBinAddr: 0x1000191DC, symSize: 0x90 }
  - { offsetInCU: 0x35467, offset: 0x35467, size: 0x8, addend: 0x0, symName: '__ZNSt3__110__pop_heapB7v160006INS_17_ClassicAlgPolicyEZ6EncodedE3$_0P3HitEEvT1_S5_RT0_NS_15iterator_traitsIS5_E15difference_typeE', symObjAddr: 0x182F8, symBinAddr: 0x10001926C, symSize: 0x114 }
  - { offsetInCU: 0x35517, offset: 0x35517, size: 0x8, addend: 0x0, symName: '__ZNSt3__19__sift_upB7v160006INS_17_ClassicAlgPolicyERZ6EncodedE3$_0P3HitEEvT1_S6_OT0_NS_15iterator_traitsIS6_E15difference_typeE', symObjAddr: 0x18514, symBinAddr: 0x100019488, symSize: 0x130 }
  - { offsetInCU: 0x355C7, offset: 0x355C7, size: 0x8, addend: 0x0, symName: '__ZNSt3__17__sort5IRZ6EncodedE3$_0P3HitEEjT0_S5_S5_S5_S5_T_', symObjAddr: 0x18644, symBinAddr: 0x1000195B8, symSize: 0x12C }
  - { offsetInCU: 0x356C5, offset: 0x356C5, size: 0x8, addend: 0x0, symName: __ZNSt3__112__to_addressB7v160006INS_11__wrap_iterIP3HitEEvEENS_5decayIDTclsr19__to_address_helperIT_EE6__callclsr3stdE7declvalIRKS6_EEEEE4typeES8_, symObjAddr: 0x18798, symBinAddr: 0x10001970C, symSize: 0x24 }
  - { offsetInCU: 0x357A5, offset: 0x357A5, size: 0x8, addend: 0x0, symName: __ZNSt3__119__allocate_at_leastB7v160006INS_9allocatorIdEEEENS_19__allocation_resultINS_16allocator_traitsIT_E7pointerEEERS5_m, symObjAddr: 0x18F68, symBinAddr: 0x100019EDC, symSize: 0x40 }
  - { offsetInCU: 0x357E8, offset: 0x357E8, size: 0x8, addend: 0x0, symName: __ZNSt3__142__uninitialized_allocator_move_if_noexceptB7v160006INS_9allocatorIdEENS_16reverse_iteratorIPdEES5_dvEET1_RT_T0_S9_S6_, symObjAddr: 0x1911C, symBinAddr: 0x10001A090, symSize: 0x78 }
  - { offsetInCU: 0x35865, offset: 0x35865, size: 0x8, addend: 0x0, symName: __ZNSt3__14swapB7v160006IPdEENS_9enable_ifIXaasr21is_move_constructibleIT_EE5valuesr18is_move_assignableIS3_EE5valueEvE4typeERS3_S6_, symObjAddr: 0x191E0, symBinAddr: 0x10001A154, symSize: 0x3C }
  - { offsetInCU: 0x358B6, offset: 0x358B6, size: 0x8, addend: 0x0, symName: __ZNSt3__125__debug_db_invalidate_allB7v160006INS_6vectorIdNS_9allocatorIdEEEEEEvPT_, symObjAddr: 0x192C8, symBinAddr: 0x10001A23C, symSize: 0x10 }
  - { offsetInCU: 0x358E7, offset: 0x358E7, size: 0x8, addend: 0x0, symName: __ZNSt3__14moveB7v160006INS_16reverse_iteratorIPdEES3_EET0_T_S5_S4_, symObjAddr: 0x192D8, symBinAddr: 0x10001A24C, symSize: 0x78 }
  - { offsetInCU: 0x35941, offset: 0x35941, size: 0x8, addend: 0x0, symName: __ZNSt3__16__moveB7v160006INS_17_ClassicAlgPolicyENS_16reverse_iteratorIPdEES4_S4_EENS_4pairIT0_T2_EES6_T1_S7_, symObjAddr: 0x19350, symBinAddr: 0x10001A2C4, symSize: 0x64 }
  - { offsetInCU: 0x359AD, offset: 0x359AD, size: 0x8, addend: 0x0, symName: __ZNSt3__123__dispatch_copy_or_moveB7v160006INS_17_ClassicAlgPolicyENS_11__move_loopIS1_EENS_14__move_trivialENS_16reverse_iteratorIPdEES7_S7_EENS_4pairIT2_T4_EES9_T3_SA_, symObjAddr: 0x193B4, symBinAddr: 0x10001A328, symSize: 0x64 }
  - { offsetInCU: 0x35A2B, offset: 0x35A2B, size: 0x8, addend: 0x0, symName: __ZNSt3__121__unwrap_and_dispatchB7v160006INS_10__overloadINS_11__move_loopINS_17_ClassicAlgPolicyEEENS_14__move_trivialEEENS_16reverse_iteratorIPdEES9_S9_Li0EEENS_4pairIT0_T2_EESB_T1_SC_, symObjAddr: 0x19418, symBinAddr: 0x10001A38C, symSize: 0x12C }
  - { offsetInCU: 0x35ABC, offset: 0x35ABC, size: 0x8, addend: 0x0, symName: __ZNSt3__114__unwrap_rangeB7v160006INS_16reverse_iteratorIPdEES3_EENS_4pairIT0_S5_EET_S7_, symObjAddr: 0x19544, symBinAddr: 0x10001A4B8, symSize: 0x84 }
  - { offsetInCU: 0x35BDC, offset: 0x35BDC, size: 0x8, addend: 0x0, symName: __ZNSt3__113__unwrap_iterB7v160006INS_16reverse_iteratorIPdEENS_18__unwrap_iter_implIS3_Lb0EEELi0EEEDTclsrT0_8__unwrapclsr3stdE7declvalIT_EEEES7_, symObjAddr: 0x19668, symBinAddr: 0x10001A5DC, symSize: 0x44 }
  - { offsetInCU: 0x35C21, offset: 0x35C21, size: 0x8, addend: 0x0, symName: __ZNSt3__19make_pairB7v160006INS_16reverse_iteratorIPdEES3_EENS_4pairINS_18__unwrap_ref_decayIT_E4typeENS5_IT0_E4typeEEEOS6_OS9_, symObjAddr: 0x196AC, symBinAddr: 0x10001A620, symSize: 0x38 }
  - { offsetInCU: 0x35C70, offset: 0x35C70, size: 0x8, addend: 0x0, symName: __ZNSt3__114__rewrap_rangeB7v160006INS_16reverse_iteratorIPdEES3_EET_S4_T0_, symObjAddr: 0x196E4, symBinAddr: 0x10001A658, symSize: 0x5C }
  - { offsetInCU: 0x35CBC, offset: 0x35CBC, size: 0x8, addend: 0x0, symName: __ZNSt3__113__rewrap_iterB7v160006INS_16reverse_iteratorIPdEES3_NS_18__unwrap_iter_implIS3_Lb0EEEEET_S6_T0_, symObjAddr: 0x19740, symBinAddr: 0x10001A6B4, symSize: 0x74 }
  - { offsetInCU: 0x35D11, offset: 0x35D11, size: 0x8, addend: 0x0, symName: __ZNSt3__1neB7v160006IPdS1_EEbRKNS_16reverse_iteratorIT_EERKNS2_IT0_EE, symObjAddr: 0x197B4, symBinAddr: 0x10001A728, symSize: 0x48 }
  - { offsetInCU: 0x35DC9, offset: 0x35DC9, size: 0x8, addend: 0x0, symName: __ZNSt3__119__allocate_at_leastB7v160006INS_9allocatorI3HitEEEENS_19__allocation_resultINS_16allocator_traitsIT_E7pointerEEERS6_m, symObjAddr: 0x1A650, symBinAddr: 0x10001B5C4, symSize: 0x40 }
  - { offsetInCU: 0x35E0C, offset: 0x35E0C, size: 0x8, addend: 0x0, symName: __ZNSt3__142__uninitialized_allocator_move_if_noexceptB7v160006INS_9allocatorI3HitEENS_16reverse_iteratorIPS2_EES6_S2_vEET1_RT_T0_SA_S7_, symObjAddr: 0x1A804, symBinAddr: 0x10001B778, symSize: 0x78 }
  - { offsetInCU: 0x35E89, offset: 0x35E89, size: 0x8, addend: 0x0, symName: __ZNSt3__14swapB7v160006IP3HitEENS_9enable_ifIXaasr21is_move_constructibleIT_EE5valuesr18is_move_assignableIS4_EE5valueEvE4typeERS4_S7_, symObjAddr: 0x1A8C8, symBinAddr: 0x10001B83C, symSize: 0x3C }
  - { offsetInCU: 0x35EDA, offset: 0x35EDA, size: 0x8, addend: 0x0, symName: __ZNSt3__14moveB7v160006INS_16reverse_iteratorIP3HitEES4_EET0_T_S6_S5_, symObjAddr: 0x1A9B0, symBinAddr: 0x10001B924, symSize: 0x78 }
  - { offsetInCU: 0x35F34, offset: 0x35F34, size: 0x8, addend: 0x0, symName: __ZNSt3__16__moveB7v160006INS_17_ClassicAlgPolicyENS_16reverse_iteratorIP3HitEES5_S5_EENS_4pairIT0_T2_EES7_T1_S8_, symObjAddr: 0x1AA28, symBinAddr: 0x10001B99C, symSize: 0x64 }
  - { offsetInCU: 0x35FA0, offset: 0x35FA0, size: 0x8, addend: 0x0, symName: __ZNSt3__123__dispatch_copy_or_moveB7v160006INS_17_ClassicAlgPolicyENS_11__move_loopIS1_EENS_14__move_trivialENS_16reverse_iteratorIP3HitEES8_S8_EENS_4pairIT2_T4_EESA_T3_SB_, symObjAddr: 0x1AA8C, symBinAddr: 0x10001BA00, symSize: 0x64 }
  - { offsetInCU: 0x3601E, offset: 0x3601E, size: 0x8, addend: 0x0, symName: __ZNSt3__121__unwrap_and_dispatchB7v160006INS_10__overloadINS_11__move_loopINS_17_ClassicAlgPolicyEEENS_14__move_trivialEEENS_16reverse_iteratorIP3HitEESA_SA_Li0EEENS_4pairIT0_T2_EESC_T1_SD_, symObjAddr: 0x1AAF0, symBinAddr: 0x10001BA64, symSize: 0x12C }
  - { offsetInCU: 0x360AF, offset: 0x360AF, size: 0x8, addend: 0x0, symName: __ZNSt3__114__unwrap_rangeB7v160006INS_16reverse_iteratorIP3HitEES4_EENS_4pairIT0_S6_EET_S8_, symObjAddr: 0x1AC1C, symBinAddr: 0x10001BB90, symSize: 0x84 }
  - { offsetInCU: 0x361CF, offset: 0x361CF, size: 0x8, addend: 0x0, symName: __ZNSt3__113__unwrap_iterB7v160006INS_16reverse_iteratorIP3HitEENS_18__unwrap_iter_implIS4_Lb0EEELi0EEEDTclsrT0_8__unwrapclsr3stdE7declvalIT_EEEES8_, symObjAddr: 0x1AD48, symBinAddr: 0x10001BCBC, symSize: 0x44 }
  - { offsetInCU: 0x36214, offset: 0x36214, size: 0x8, addend: 0x0, symName: __ZNSt3__19make_pairB7v160006INS_16reverse_iteratorIP3HitEES4_EENS_4pairINS_18__unwrap_ref_decayIT_E4typeENS6_IT0_E4typeEEEOS7_OSA_, symObjAddr: 0x1AD8C, symBinAddr: 0x10001BD00, symSize: 0x38 }
  - { offsetInCU: 0x36263, offset: 0x36263, size: 0x8, addend: 0x0, symName: __ZNSt3__114__rewrap_rangeB7v160006INS_16reverse_iteratorIP3HitEES4_EET_S5_T0_, symObjAddr: 0x1ADC4, symBinAddr: 0x10001BD38, symSize: 0x5C }
  - { offsetInCU: 0x362AF, offset: 0x362AF, size: 0x8, addend: 0x0, symName: __ZNSt3__113__rewrap_iterB7v160006INS_16reverse_iteratorIP3HitEES4_NS_18__unwrap_iter_implIS4_Lb0EEEEET_S7_T0_, symObjAddr: 0x1AE20, symBinAddr: 0x10001BD94, symSize: 0x74 }
  - { offsetInCU: 0x36304, offset: 0x36304, size: 0x8, addend: 0x0, symName: __ZNSt3__1neB7v160006IP3HitS2_EEbRKNS_16reverse_iteratorIT_EERKNS3_IT0_EE, symObjAddr: 0x1AE94, symBinAddr: 0x10001BE08, symSize: 0x48 }
  - { offsetInCU: 0x36398, offset: 0x36398, size: 0x8, addend: 0x0, symName: __ZNSt3__119__debug_db_insert_cB7v160006INS_6vectorIP4TH1FNS_9allocatorIS3_EEEEEEvPT_, symObjAddr: 0x1B2B8, symBinAddr: 0x10001C22C, symSize: 0x10 }
  - { offsetInCU: 0x363C9, offset: 0x363C9, size: 0x8, addend: 0x0, symName: __ZNSt3__118__debug_db_erase_cB7v160006INS_6vectorIP4TH1FNS_9allocatorIS3_EEEEEEvPT_, symObjAddr: 0x1B57C, symBinAddr: 0x10001C4F0, symSize: 0x10 }
  - { offsetInCU: 0x363FA, offset: 0x363FA, size: 0x8, addend: 0x0, symName: __ZNSt3__112__to_addressB7v160006IP4TH1FEEPT_S4_, symObjAddr: 0x1B698, symBinAddr: 0x10001C60C, symSize: 0x14 }
  - { offsetInCU: 0x3642F, offset: 0x3642F, size: 0x8, addend: 0x0, symName: __ZNSt3__119__allocate_at_leastB7v160006INS_9allocatorIP4TH1FEEEENS_19__allocation_resultINS_16allocator_traitsIT_E7pointerEEERS7_m, symObjAddr: 0x1BFA0, symBinAddr: 0x10001CF14, symSize: 0x40 }
  - { offsetInCU: 0x36472, offset: 0x36472, size: 0x8, addend: 0x0, symName: __ZNSt3__142__uninitialized_allocator_move_if_noexceptB7v160006INS_9allocatorIP4TH1FEENS_16reverse_iteratorIPS3_EES7_S3_vEET1_RT_T0_SB_S8_, symObjAddr: 0x1C154, symBinAddr: 0x10001D0C8, symSize: 0x78 }
  - { offsetInCU: 0x364EF, offset: 0x364EF, size: 0x8, addend: 0x0, symName: __ZNSt3__14swapB7v160006IPP4TH1FEENS_9enable_ifIXaasr21is_move_constructibleIT_EE5valuesr18is_move_assignableIS5_EE5valueEvE4typeERS5_S8_, symObjAddr: 0x1C218, symBinAddr: 0x10001D18C, symSize: 0x3C }
  - { offsetInCU: 0x36540, offset: 0x36540, size: 0x8, addend: 0x0, symName: __ZNSt3__125__debug_db_invalidate_allB7v160006INS_6vectorIP4TH1FNS_9allocatorIS3_EEEEEEvPT_, symObjAddr: 0x1C300, symBinAddr: 0x10001D274, symSize: 0x10 }
  - { offsetInCU: 0x36571, offset: 0x36571, size: 0x8, addend: 0x0, symName: __ZNSt3__14moveB7v160006INS_16reverse_iteratorIPP4TH1FEES5_EET0_T_S7_S6_, symObjAddr: 0x1C310, symBinAddr: 0x10001D284, symSize: 0x78 }
  - { offsetInCU: 0x365CB, offset: 0x365CB, size: 0x8, addend: 0x0, symName: __ZNSt3__16__moveB7v160006INS_17_ClassicAlgPolicyENS_16reverse_iteratorIPP4TH1FEES6_S6_EENS_4pairIT0_T2_EES8_T1_S9_, symObjAddr: 0x1C388, symBinAddr: 0x10001D2FC, symSize: 0x64 }
  - { offsetInCU: 0x36637, offset: 0x36637, size: 0x8, addend: 0x0, symName: __ZNSt3__123__dispatch_copy_or_moveB7v160006INS_17_ClassicAlgPolicyENS_11__move_loopIS1_EENS_14__move_trivialENS_16reverse_iteratorIPP4TH1FEES9_S9_EENS_4pairIT2_T4_EESB_T3_SC_, symObjAddr: 0x1C3EC, symBinAddr: 0x10001D360, symSize: 0x64 }
  - { offsetInCU: 0x366B5, offset: 0x366B5, size: 0x8, addend: 0x0, symName: __ZNSt3__121__unwrap_and_dispatchB7v160006INS_10__overloadINS_11__move_loopINS_17_ClassicAlgPolicyEEENS_14__move_trivialEEENS_16reverse_iteratorIPP4TH1FEESB_SB_Li0EEENS_4pairIT0_T2_EESD_T1_SE_, symObjAddr: 0x1C450, symBinAddr: 0x10001D3C4, symSize: 0x12C }
  - { offsetInCU: 0x36746, offset: 0x36746, size: 0x8, addend: 0x0, symName: __ZNSt3__114__unwrap_rangeB7v160006INS_16reverse_iteratorIPP4TH1FEES5_EENS_4pairIT0_S7_EET_S9_, symObjAddr: 0x1C57C, symBinAddr: 0x10001D4F0, symSize: 0x84 }
  - { offsetInCU: 0x36866, offset: 0x36866, size: 0x8, addend: 0x0, symName: __ZNSt3__113__unwrap_iterB7v160006INS_16reverse_iteratorIPP4TH1FEENS_18__unwrap_iter_implIS5_Lb0EEELi0EEEDTclsrT0_8__unwrapclsr3stdE7declvalIT_EEEES9_, symObjAddr: 0x1C6A0, symBinAddr: 0x10001D614, symSize: 0x44 }
  - { offsetInCU: 0x368AB, offset: 0x368AB, size: 0x8, addend: 0x0, symName: __ZNSt3__19make_pairB7v160006INS_16reverse_iteratorIPP4TH1FEES5_EENS_4pairINS_18__unwrap_ref_decayIT_E4typeENS7_IT0_E4typeEEEOS8_OSB_, symObjAddr: 0x1C6E4, symBinAddr: 0x10001D658, symSize: 0x38 }
  - { offsetInCU: 0x368FA, offset: 0x368FA, size: 0x8, addend: 0x0, symName: __ZNSt3__114__rewrap_rangeB7v160006INS_16reverse_iteratorIPP4TH1FEES5_EET_S6_T0_, symObjAddr: 0x1C71C, symBinAddr: 0x10001D690, symSize: 0x5C }
  - { offsetInCU: 0x36946, offset: 0x36946, size: 0x8, addend: 0x0, symName: __ZNSt3__113__rewrap_iterB7v160006INS_16reverse_iteratorIPP4TH1FEES5_NS_18__unwrap_iter_implIS5_Lb0EEEEET_S8_T0_, symObjAddr: 0x1C778, symBinAddr: 0x10001D6EC, symSize: 0x74 }
  - { offsetInCU: 0x3699B, offset: 0x3699B, size: 0x8, addend: 0x0, symName: __ZNSt3__1neB7v160006IPP4TH1FS3_EEbRKNS_16reverse_iteratorIT_EERKNS4_IT0_EE, symObjAddr: 0x1C7EC, symBinAddr: 0x10001D760, symSize: 0x48 }
  - { offsetInCU: 0x36A53, offset: 0x36A53, size: 0x8, addend: 0x0, symName: __ZNSt3__116__pad_and_outputB7v160006IcNS_11char_traitsIcEEEENS_19ostreambuf_iteratorIT_T0_EES6_PKS4_S8_S8_RNS_8ios_baseES4_, symObjAddr: 0x1CD84, symBinAddr: 0x10001DCF8, symSize: 0x240 }
  - { offsetInCU: 0x36B22, offset: 0x36B22, size: 0x8, addend: 0x0, symName: __ZNSt3__112__to_addressB7v160006IcEEPT_S2_, symObjAddr: 0x1D1FC, symBinAddr: 0x10001E170, symSize: 0x14 }
  - { offsetInCU: 0x36B8A, offset: 0x36B8A, size: 0x8, addend: 0x0, symName: __ZNSt3__19use_facetB7v160006INS_5ctypeIcEEEERKT_RKNS_6localeE, symObjAddr: 0x1D40C, symBinAddr: 0x10001E380, symSize: 0x2C }
  - { offsetInCU: 0x37059, offset: 0x37059, size: 0x8, addend: 0x0, symName: __ZNSt3__119__debug_db_insert_cB7v160006INS_6vectorIfNS_9allocatorIfEEEEEEvPT_, symObjAddr: 0x1D538, symBinAddr: 0x10001E4AC, symSize: 0x10 }
  - { offsetInCU: 0x3708A, offset: 0x3708A, size: 0x8, addend: 0x0, symName: __ZNSt3__118__debug_db_erase_cB7v160006INS_6vectorIfNS_9allocatorIfEEEEEEvPT_, symObjAddr: 0x1D7FC, symBinAddr: 0x10001E770, symSize: 0x10 }
  - { offsetInCU: 0x370BB, offset: 0x370BB, size: 0x8, addend: 0x0, symName: __ZNSt3__112__to_addressB7v160006IfEEPT_S2_, symObjAddr: 0x1D918, symBinAddr: 0x10001E88C, symSize: 0x14 }
  - { offsetInCU: 0x370F0, offset: 0x370F0, size: 0x8, addend: 0x0, symName: __ZNSt3__1miB7v160006IPiS1_EEDTmicldtfp_4baseEcldtfp0_4baseEERKNS_11__wrap_iterIT_EERKNS3_IT0_EE, symObjAddr: 0x1DE7C, symBinAddr: 0x10001EDF0, symSize: 0x48 }
  - { offsetInCU: 0x3713C, offset: 0x3713C, size: 0x8, addend: 0x0, symName: __ZNSt3__1ltB7v160006IPiEEbRKNS_11__wrap_iterIT_EES6_, symObjAddr: 0x1DF20, symBinAddr: 0x10001EE94, symSize: 0x48 }
  - { offsetInCU: 0x3717F, offset: 0x3717F, size: 0x8, addend: 0x0, symName: __ZNSt3__113__countl_zeroB7v160006ImEEiT_, symObjAddr: 0x1E2A0, symBinAddr: 0x10001F214, symSize: 0x54 }
  - { offsetInCU: 0x3721A, offset: 0x3721A, size: 0x8, addend: 0x0, symName: __ZNSt3__19iter_swapB7v160006INS_11__wrap_iterIPiEES3_EEvT_T0_, symObjAddr: 0x1E854, symBinAddr: 0x10001F7C8, symSize: 0x50 }
  - { offsetInCU: 0x37262, offset: 0x37262, size: 0x8, addend: 0x0, symName: __ZNSt3__14swapB7v160006IiEENS_9enable_ifIXaasr21is_move_constructibleIT_EE5valuesr18is_move_assignableIS2_EE5valueEvE4typeERS2_S5_, symObjAddr: 0x1E8A4, symBinAddr: 0x10001F818, symSize: 0x3C }
  - { offsetInCU: 0x372B3, offset: 0x372B3, size: 0x8, addend: 0x0, symName: __ZNSt3__119__allocate_at_leastB7v160006INS_9allocatorIfEEEENS_19__allocation_resultINS_16allocator_traitsIT_E7pointerEEERS5_m, symObjAddr: 0x1F058, symBinAddr: 0x10001FFCC, symSize: 0x40 }
  - { offsetInCU: 0x372F6, offset: 0x372F6, size: 0x8, addend: 0x0, symName: __ZNSt3__142__uninitialized_allocator_move_if_noexceptB7v160006INS_9allocatorIfEENS_16reverse_iteratorIPfEES5_fvEET1_RT_T0_S9_S6_, symObjAddr: 0x1F20C, symBinAddr: 0x100020180, symSize: 0x78 }
  - { offsetInCU: 0x37373, offset: 0x37373, size: 0x8, addend: 0x0, symName: __ZNSt3__14swapB7v160006IPfEENS_9enable_ifIXaasr21is_move_constructibleIT_EE5valuesr18is_move_assignableIS3_EE5valueEvE4typeERS3_S6_, symObjAddr: 0x1F2D0, symBinAddr: 0x100020244, symSize: 0x3C }
  - { offsetInCU: 0x373C4, offset: 0x373C4, size: 0x8, addend: 0x0, symName: __ZNSt3__125__debug_db_invalidate_allB7v160006INS_6vectorIfNS_9allocatorIfEEEEEEvPT_, symObjAddr: 0x1F3B8, symBinAddr: 0x10002032C, symSize: 0x10 }
  - { offsetInCU: 0x373F5, offset: 0x373F5, size: 0x8, addend: 0x0, symName: __ZNSt3__14moveB7v160006INS_16reverse_iteratorIPfEES3_EET0_T_S5_S4_, symObjAddr: 0x1F3C8, symBinAddr: 0x10002033C, symSize: 0x78 }
  - { offsetInCU: 0x3744F, offset: 0x3744F, size: 0x8, addend: 0x0, symName: __ZNSt3__16__moveB7v160006INS_17_ClassicAlgPolicyENS_16reverse_iteratorIPfEES4_S4_EENS_4pairIT0_T2_EES6_T1_S7_, symObjAddr: 0x1F440, symBinAddr: 0x1000203B4, symSize: 0x64 }
  - { offsetInCU: 0x374BB, offset: 0x374BB, size: 0x8, addend: 0x0, symName: __ZNSt3__123__dispatch_copy_or_moveB7v160006INS_17_ClassicAlgPolicyENS_11__move_loopIS1_EENS_14__move_trivialENS_16reverse_iteratorIPfEES7_S7_EENS_4pairIT2_T4_EES9_T3_SA_, symObjAddr: 0x1F4A4, symBinAddr: 0x100020418, symSize: 0x64 }
  - { offsetInCU: 0x37539, offset: 0x37539, size: 0x8, addend: 0x0, symName: __ZNSt3__121__unwrap_and_dispatchB7v160006INS_10__overloadINS_11__move_loopINS_17_ClassicAlgPolicyEEENS_14__move_trivialEEENS_16reverse_iteratorIPfEES9_S9_Li0EEENS_4pairIT0_T2_EESB_T1_SC_, symObjAddr: 0x1F508, symBinAddr: 0x10002047C, symSize: 0x12C }
  - { offsetInCU: 0x375CA, offset: 0x375CA, size: 0x8, addend: 0x0, symName: __ZNSt3__114__unwrap_rangeB7v160006INS_16reverse_iteratorIPfEES3_EENS_4pairIT0_S5_EET_S7_, symObjAddr: 0x1F634, symBinAddr: 0x1000205A8, symSize: 0x84 }
  - { offsetInCU: 0x376EA, offset: 0x376EA, size: 0x8, addend: 0x0, symName: __ZNSt3__113__unwrap_iterB7v160006INS_16reverse_iteratorIPfEENS_18__unwrap_iter_implIS3_Lb0EEELi0EEEDTclsrT0_8__unwrapclsr3stdE7declvalIT_EEEES7_, symObjAddr: 0x1F758, symBinAddr: 0x1000206CC, symSize: 0x44 }
  - { offsetInCU: 0x3772F, offset: 0x3772F, size: 0x8, addend: 0x0, symName: __ZNSt3__19make_pairB7v160006INS_16reverse_iteratorIPfEES3_EENS_4pairINS_18__unwrap_ref_decayIT_E4typeENS5_IT0_E4typeEEEOS6_OS9_, symObjAddr: 0x1F79C, symBinAddr: 0x100020710, symSize: 0x38 }
  - { offsetInCU: 0x3777E, offset: 0x3777E, size: 0x8, addend: 0x0, symName: __ZNSt3__114__rewrap_rangeB7v160006INS_16reverse_iteratorIPfEES3_EET_S4_T0_, symObjAddr: 0x1F7D4, symBinAddr: 0x100020748, symSize: 0x5C }
  - { offsetInCU: 0x377CA, offset: 0x377CA, size: 0x8, addend: 0x0, symName: __ZNSt3__113__rewrap_iterB7v160006INS_16reverse_iteratorIPfEES3_NS_18__unwrap_iter_implIS3_Lb0EEEEET_S6_T0_, symObjAddr: 0x1F830, symBinAddr: 0x1000207A4, symSize: 0x74 }
  - { offsetInCU: 0x3781F, offset: 0x3781F, size: 0x8, addend: 0x0, symName: __ZNSt3__1neB7v160006IPfS1_EEbRKNS_16reverse_iteratorIT_EERKNS2_IT0_EE, symObjAddr: 0x1F8A4, symBinAddr: 0x100020818, symSize: 0x48 }
  - { offsetInCU: 0x378D7, offset: 0x378D7, size: 0x8, addend: 0x0, symName: __ZNSt3__1miB7v160006IPKfS2_EEDTmicldtfp_4baseEcldtfp0_4baseEERKNS_11__wrap_iterIT_EERKNS4_IT0_EE, symObjAddr: 0x2015C, symBinAddr: 0x1000210D0, symSize: 0x48 }
  - { offsetInCU: 0x37923, offset: 0x37923, size: 0x8, addend: 0x0, symName: __ZNSt3__14moveB7v160006IPfS1_EET0_T_S3_S2_, symObjAddr: 0x20230, symBinAddr: 0x1000211A4, symSize: 0x40 }
  - { offsetInCU: 0x3797D, offset: 0x3797D, size: 0x8, addend: 0x0, symName: __ZNSt3__16__moveB7v160006INS_17_ClassicAlgPolicyEPfS2_S2_EENS_4pairIT0_T2_EES4_T1_S5_, symObjAddr: 0x20414, symBinAddr: 0x100021388, symSize: 0x44 }
  - { offsetInCU: 0x379E9, offset: 0x379E9, size: 0x8, addend: 0x0, symName: __ZNSt3__123__dispatch_copy_or_moveB7v160006INS_17_ClassicAlgPolicyENS_11__move_loopIS1_EENS_14__move_trivialEPfS5_S5_EENS_4pairIT2_T4_EES7_T3_S8_, symObjAddr: 0x20458, symBinAddr: 0x1000213CC, symSize: 0x44 }
  - { offsetInCU: 0x37A67, offset: 0x37A67, size: 0x8, addend: 0x0, symName: __ZNSt3__121__unwrap_and_dispatchB7v160006INS_10__overloadINS_11__move_loopINS_17_ClassicAlgPolicyEEENS_14__move_trivialEEEPfS7_S7_Li0EEENS_4pairIT0_T2_EES9_T1_SA_, symObjAddr: 0x2049C, symBinAddr: 0x100021410, symSize: 0xB4 }
  - { offsetInCU: 0x37AF6, offset: 0x37AF6, size: 0x8, addend: 0x0, symName: __ZNSt3__114__unwrap_rangeB7v160006IPfS1_EENS_4pairIT0_S3_EET_S5_, symObjAddr: 0x20550, symBinAddr: 0x1000214C4, symSize: 0x60 }
  - { offsetInCU: 0x37C8C, offset: 0x37C8C, size: 0x8, addend: 0x0, symName: __ZNSt3__113__unwrap_iterB7v160006IPfNS_18__unwrap_iter_implIS1_Lb1EEELi0EEEDTclsrT0_8__unwrapclsr3stdE7declvalIT_EEEES5_, symObjAddr: 0x205F8, symBinAddr: 0x10002156C, symSize: 0x24 }
  - { offsetInCU: 0x37CD1, offset: 0x37CD1, size: 0x8, addend: 0x0, symName: __ZNSt3__19make_pairB7v160006IPfS1_EENS_4pairINS_18__unwrap_ref_decayIT_E4typeENS3_IT0_E4typeEEEOS4_OS7_, symObjAddr: 0x2061C, symBinAddr: 0x100021590, symSize: 0x38 }
  - { offsetInCU: 0x37D20, offset: 0x37D20, size: 0x8, addend: 0x0, symName: __ZNSt3__114__rewrap_rangeB7v160006IPfS1_EET_S2_T0_, symObjAddr: 0x20654, symBinAddr: 0x1000215C8, symSize: 0x2C }
  - { offsetInCU: 0x37D6C, offset: 0x37D6C, size: 0x8, addend: 0x0, symName: __ZNSt3__113__rewrap_iterB7v160006IPfS1_NS_18__unwrap_iter_implIS1_Lb1EEEEET_S4_T0_, symObjAddr: 0x20680, symBinAddr: 0x1000215F4, symSize: 0x3C }
  - { offsetInCU: 0x37DC1, offset: 0x37DC1, size: 0x8, addend: 0x0, symName: __ZNSt3__119__copy_trivial_implB7v160006IffEENS_4pairIPT_PT0_EES3_S3_S5_, symObjAddr: 0x206BC, symBinAddr: 0x100021630, symSize: 0x84 }
  - { offsetInCU: 0x37E29, offset: 0x37E29, size: 0x8, addend: 0x0, symName: __ZNSt3__19make_pairB7v160006IRPfS1_EENS_4pairINS_18__unwrap_ref_decayIT_E4typeENS4_IT0_E4typeEEEOS5_OS8_, symObjAddr: 0x20740, symBinAddr: 0x1000216B4, symSize: 0x38 }
  - { offsetInCU: 0x3889F, offset: 0x3889F, size: 0x8, addend: 0x0, symName: __ZSt28__throw_bad_array_new_lengthB7v160006v, symObjAddr: 0x14BB4, symBinAddr: 0x100015B28, symSize: 0x34 }
  - { offsetInCU: 0x38B3F, offset: 0x38B3F, size: 0x8, addend: 0x0, symName: __ZL13PreSpike_Time, symObjAddr: 0x191AC8, symBinAddr: 0x100030190, symSize: 0x0 }
  - { offsetInCU: 0x38D37, offset: 0x38D37, size: 0x8, addend: 0x0, symName: __ZL15PreSpike_Stream, symObjAddr: 0x191AE0, symBinAddr: 0x1000301A8, symSize: 0x0 }
  - { offsetInCU: 0x38F02, offset: 0x38F02, size: 0x8, addend: 0x0, symName: __ZL15PreSpike_Signal, symObjAddr: 0x191AF8, symBinAddr: 0x1000301C0, symSize: 0x0 }
  - { offsetInCU: 0x38F1B, offset: 0x38F1B, size: 0x8, addend: 0x0, symName: __ZL13neurons_index, symObjAddr: 0x191B10, symBinAddr: 0x1000301D8, symSize: 0x0 }
  - { offsetInCU: 0x38F34, offset: 0x38F34, size: 0x8, addend: 0x0, symName: __ZL5myRNG, symObjAddr: 0x191B28, symBinAddr: 0x1000301F0, symSize: 0x0 }
  - { offsetInCU: 0x4C9CD, offset: 0x4C9CD, size: 0x8, addend: 0x0, symName: __ZL5max_R, symObjAddr: 0x21950, symBinAddr: 0x100030000, symSize: 0x0 }
  - { offsetInCU: 0x4C9E6, offset: 0x4C9E6, size: 0x8, addend: 0x0, symName: __ZL16N_TrackingLayers, symObjAddr: 0x21954, symBinAddr: 0x100030004, symSize: 0x0 }
  - { offsetInCU: 0x4C9FF, offset: 0x4C9FF, size: 0x8, addend: 0x0, symName: __ZL11Left_Layers, symObjAddr: 0x21958, symBinAddr: 0x100030008, symSize: 0x0 }
  - { offsetInCU: 0x4CA26, offset: 0x4CA26, size: 0x8, addend: 0x0, symName: __ZL12Right_Layers, symObjAddr: 0x21980, symBinAddr: 0x100030030, symSize: 0x0 }
  - { offsetInCU: 0x4CA3F, offset: 0x4CA3F, size: 0x8, addend: 0x0, symName: __ZL7z_range, symObjAddr: 0x219A8, symBinAddr: 0x100030058, symSize: 0x0 }
  - { offsetInCU: 0x4CA65, offset: 0x4CA65, size: 0x8, addend: 0x0, symName: __ZL12z_bin_length, symObjAddr: 0x191B30, symBinAddr: 0x1000301F8, symSize: 0x0 }
  - { offsetInCU: 0x4CA7E, offset: 0x4CA7E, size: 0x8, addend: 0x0, symName: __ZL5omega, symObjAddr: 0x191B38, symBinAddr: 0x100030200, symSize: 0x0 }
  - { offsetInCU: 0x4CA97, offset: 0x4CA97, size: 0x8, addend: 0x0, symName: __ZL9frequency, symObjAddr: 0x21AB8, symBinAddr: 0x100030168, symSize: 0x0 }
  - { offsetInCU: 0x4CAB0, offset: 0x4CAB0, size: 0x8, addend: 0x0, symName: __ZL5delta, symObjAddr: 0x219B0, symBinAddr: 0x100030060, symSize: 0x0 }
  - { offsetInCU: 0x4CAC9, offset: 0x4CAC9, size: 0x8, addend: 0x0, symName: __ZL9N_classes, symObjAddr: 0x219B8, symBinAddr: 0x100030068, symSize: 0x0 }
  - { offsetInCU: 0x4CAE2, offset: 0x4CAE2, size: 0x8, addend: 0x0, symName: __ZL3Eff, symObjAddr: 0x191B40, symBinAddr: 0x100030208, symSize: 0x0 }
  - { offsetInCU: 0x4CB00, offset: 0x4CB00, size: 0x8, addend: 0x0, symName: __ZL10eff_target, symObjAddr: 0x219BC, symBinAddr: 0x10003006C, symSize: 0x0 }
  - { offsetInCU: 0x4CB19, offset: 0x4CB19, size: 0x8, addend: 0x0, symName: __ZL10acc_target, symObjAddr: 0x219C0, symBinAddr: 0x100030070, symSize: 0x0 }
  - { offsetInCU: 0x4CB32, offset: 0x4CB32, size: 0x8, addend: 0x0, symName: __ZL6pclass, symObjAddr: 0x191B48, symBinAddr: 0x100030210, symSize: 0x0 }
  - { offsetInCU: 0x4CB4B, offset: 0x4CB4B, size: 0x8, addend: 0x0, symName: __ZL6N_part, symObjAddr: 0x191B4C, symBinAddr: 0x100030214, symSize: 0x0 }
  - { offsetInCU: 0x4CB64, offset: 0x4CB64, size: 0x8, addend: 0x0, symName: __ZL9max_angle, symObjAddr: 0x191B50, symBinAddr: 0x100030218, symSize: 0x0 }
  - { offsetInCU: 0x4CB7D, offset: 0x4CB7D, size: 0x8, addend: 0x0, symName: __ZL11First_angle, symObjAddr: 0x191B58, symBinAddr: 0x100030220, symSize: 0x0 }
  - { offsetInCU: 0x4CB96, offset: 0x4CB96, size: 0x8, addend: 0x0, symName: __ZL6ievent, symObjAddr: 0x191B60, symBinAddr: 0x100030228, symSize: 0x0 }
  - { offsetInCU: 0x4CBAF, offset: 0x4CBAF, size: 0x8, addend: 0x0, symName: __ZL5NROOT, symObjAddr: 0x219C8, symBinAddr: 0x100030078, symSize: 0x0 }
  - { offsetInCU: 0x4CBC8, offset: 0x4CBC8, size: 0x8, addend: 0x0, symName: __ZL17last_row_event_IT, symObjAddr: 0x219D0, symBinAddr: 0x100030080, symSize: 0x0 }
  - { offsetInCU: 0x4CBE1, offset: 0x4CBE1, size: 0x8, addend: 0x0, symName: __ZL17last_row_event_OT, symObjAddr: 0x219D8, symBinAddr: 0x100030088, symSize: 0x0 }
  - { offsetInCU: 0x4CBFA, offset: 0x4CBFA, size: 0x8, addend: 0x0, symName: __ZL8N_events, symObjAddr: 0x219E0, symBinAddr: 0x100030090, symSize: 0x0 }
  - { offsetInCU: 0x4CC13, offset: 0x4CC13, size: 0x8, addend: 0x0, symName: __ZL6insert, symObjAddr: 0x219E4, symBinAddr: 0x100030094, symSize: 0x0 }
  - { offsetInCU: 0x4CC2C, offset: 0x4CC2C, size: 0x8, addend: 0x0, symName: __ZL12Empty_buffer, symObjAddr: 0x191B68, symBinAddr: 0x100030230, symSize: 0x0 }
  - { offsetInCU: 0x4CC45, offset: 0x4CC45, size: 0x8, addend: 0x0, symName: __ZL5batch, symObjAddr: 0x191B6C, symBinAddr: 0x100030234, symSize: 0x0 }
  - { offsetInCU: 0x4CC5E, offset: 0x4CC5E, size: 0x8, addend: 0x0, symName: __ZL12TrainingCode, symObjAddr: 0x191B70, symBinAddr: 0x100030238, symSize: 0x0 }
  - { offsetInCU: 0x4CC77, offset: 0x4CC77, size: 0x8, addend: 0x0, symName: __ZL7update9, symObjAddr: 0x191B74, symBinAddr: 0x10003023C, symSize: 0x0 }
  - { offsetInCU: 0x4CC90, offset: 0x4CC90, size: 0x8, addend: 0x0, symName: __ZL12updateDelays, symObjAddr: 0x191B75, symBinAddr: 0x10003023D, symSize: 0x0 }
  - { offsetInCU: 0x4CCA9, offset: 0x4CCA9, size: 0x8, addend: 0x0, symName: __ZL17updateConnections, symObjAddr: 0x191B76, symBinAddr: 0x10003023E, symSize: 0x0 }
  - { offsetInCU: 0x4CCC2, offset: 0x4CCC2, size: 0x8, addend: 0x0, symName: __ZL8N_epochs, symObjAddr: 0x219E8, symBinAddr: 0x100030098, symSize: 0x0 }
  - { offsetInCU: 0x4CCDB, offset: 0x4CCDB, size: 0x8, addend: 0x0, symName: __ZL11NevPerEpoch, symObjAddr: 0x191B78, symBinAddr: 0x100030240, symSize: 0x0 }
  - { offsetInCU: 0x4CCF4, offset: 0x4CCF4, size: 0x8, addend: 0x0, symName: __ZL9MaxFactor, symObjAddr: 0x219EC, symBinAddr: 0x10003009C, symSize: 0x0 }
  - { offsetInCU: 0x4CD0D, offset: 0x4CD0D, size: 0x8, addend: 0x0, symName: __ZL4_NL0, symObjAddr: 0x219F0, symBinAddr: 0x1000300A0, symSize: 0x0 }
  - { offsetInCU: 0x4CD26, offset: 0x4CD26, size: 0x8, addend: 0x0, symName: __ZL4_NL1, symObjAddr: 0x219F4, symBinAddr: 0x1000300A4, symSize: 0x0 }
  - { offsetInCU: 0x4CD3F, offset: 0x4CD3F, size: 0x8, addend: 0x0, symName: __ZL6_alpha, symObjAddr: 0x219F8, symBinAddr: 0x1000300A8, symSize: 0x0 }
  - { offsetInCU: 0x4CD58, offset: 0x4CD58, size: 0x8, addend: 0x0, symName: __ZL5_CFI0, symObjAddr: 0x219FC, symBinAddr: 0x1000300AC, symSize: 0x0 }
  - { offsetInCU: 0x4CD71, offset: 0x4CD71, size: 0x8, addend: 0x0, symName: __ZL5_CFI1, symObjAddr: 0x21A00, symBinAddr: 0x1000300B0, symSize: 0x0 }
  - { offsetInCU: 0x4CD8A, offset: 0x4CD8A, size: 0x8, addend: 0x0, symName: __ZL5_CF01, symObjAddr: 0x21A04, symBinAddr: 0x1000300B4, symSize: 0x0 }
  - { offsetInCU: 0x4CDA3, offset: 0x4CDA3, size: 0x8, addend: 0x0, symName: __ZL16_L1inhibitfactor, symObjAddr: 0x21A08, symBinAddr: 0x1000300B8, symSize: 0x0 }
  - { offsetInCU: 0x4CDBC, offset: 0x4CDBC, size: 0x8, addend: 0x0, symName: __ZL2_K, symObjAddr: 0x21A0C, symBinAddr: 0x1000300BC, symSize: 0x0 }
  - { offsetInCU: 0x4CDD5, offset: 0x4CDD5, size: 0x8, addend: 0x0, symName: __ZL3_K1, symObjAddr: 0x21A10, symBinAddr: 0x1000300C0, symSize: 0x0 }
  - { offsetInCU: 0x4CDEE, offset: 0x4CDEE, size: 0x8, addend: 0x0, symName: __ZL3_K2, symObjAddr: 0x21A14, symBinAddr: 0x1000300C4, symSize: 0x0 }
  - { offsetInCU: 0x4CE07, offset: 0x4CE07, size: 0x8, addend: 0x0, symName: __ZL13_IE_Pot_const, symObjAddr: 0x21A18, symBinAddr: 0x1000300C8, symSize: 0x0 }
  - { offsetInCU: 0x4CE20, offset: 0x4CE20, size: 0x8, addend: 0x0, symName: __ZL17_IPSP_dt_dilation, symObjAddr: 0x21A20, symBinAddr: 0x1000300D0, symSize: 0x0 }
  - { offsetInCU: 0x4CE39, offset: 0x4CE39, size: 0x8, addend: 0x0, symName: __ZL9_MaxDelay, symObjAddr: 0x191B80, symBinAddr: 0x100030248, symSize: 0x0 }
  - { offsetInCU: 0x4CE52, offset: 0x4CE52, size: 0x8, addend: 0x0, symName: __ZL6_tau_m, symObjAddr: 0x21A28, symBinAddr: 0x1000300D8, symSize: 0x0 }
  - { offsetInCU: 0x4CE6B, offset: 0x4CE6B, size: 0x8, addend: 0x0, symName: __ZL6_tau_s, symObjAddr: 0x21A30, symBinAddr: 0x1000300E0, symSize: 0x0 }
  - { offsetInCU: 0x4CE84, offset: 0x4CE84, size: 0x8, addend: 0x0, symName: __ZL6_tau_r, symObjAddr: 0x21A38, symBinAddr: 0x1000300E8, symSize: 0x0 }
  - { offsetInCU: 0x4CE9D, offset: 0x4CE9D, size: 0x8, addend: 0x0, symName: __ZL9_tau_plus, symObjAddr: 0x21A40, symBinAddr: 0x1000300F0, symSize: 0x0 }
  - { offsetInCU: 0x4CEB6, offset: 0x4CEB6, size: 0x8, addend: 0x0, symName: __ZL10_tau_minus, symObjAddr: 0x21A48, symBinAddr: 0x1000300F8, symSize: 0x0 }
  - { offsetInCU: 0x4CECF, offset: 0x4CECF, size: 0x8, addend: 0x0, symName: __ZL7_a_plus, symObjAddr: 0x21A50, symBinAddr: 0x100030100, symSize: 0x0 }
  - { offsetInCU: 0x4CEE8, offset: 0x4CEE8, size: 0x8, addend: 0x0, symName: __ZL8_a_minus, symObjAddr: 0x21A58, symBinAddr: 0x100030108, symSize: 0x0 }
  - { offsetInCU: 0x4CF01, offset: 0x4CF01, size: 0x8, addend: 0x0, symName: __ZL15_N_InputStreams, symObjAddr: 0x21A60, symBinAddr: 0x100030110, symSize: 0x0 }
  - { offsetInCU: 0x4CF1A, offset: 0x4CF1A, size: 0x8, addend: 0x0, symName: __ZL11_Threshold0, symObjAddr: 0x21A64, symBinAddr: 0x100030114, symSize: 0x0 }
  - { offsetInCU: 0x4CF33, offset: 0x4CF33, size: 0x8, addend: 0x0, symName: __ZL11_Threshold1, symObjAddr: 0x21A68, symBinAddr: 0x100030118, symSize: 0x0 }
  - { offsetInCU: 0x4CF4C, offset: 0x4CF4C, size: 0x8, addend: 0x0, symName: __ZL9_sparsity, symObjAddr: 0x21A6C, symBinAddr: 0x10003011C, symSize: 0x0 }
  - { offsetInCU: 0x4CF65, offset: 0x4CF65, size: 0x8, addend: 0x0, symName: __ZL6Q_best, symObjAddr: 0x191B88, symBinAddr: 0x100030250, symSize: 0x0 }
  - { offsetInCU: 0x4CF7E, offset: 0x4CF7E, size: 0x8, addend: 0x0, symName: __ZL10SelL1_best, symObjAddr: 0x191B8C, symBinAddr: 0x100030254, symSize: 0x0 }
  - { offsetInCU: 0x4CF97, offset: 0x4CF97, size: 0x8, addend: 0x0, symName: __ZL8Eff_best, symObjAddr: 0x191B90, symBinAddr: 0x100030258, symSize: 0x0 }
  - { offsetInCU: 0x4CFB0, offset: 0x4CFB0, size: 0x8, addend: 0x0, symName: __ZL8Acc_best, symObjAddr: 0x191B94, symBinAddr: 0x10003025C, symSize: 0x0 }
  - { offsetInCU: 0x4CFC9, offset: 0x4CFC9, size: 0x8, addend: 0x0, symName: __ZL8progress, symObjAddr: 0x21A70, symBinAddr: 0x100030120, symSize: 0x0 }
  - { offsetInCU: 0x4CFF0, offset: 0x4CFF0, size: 0x8, addend: 0x0, symName: __ZL9rootInput, symObjAddr: 0x21AA8, symBinAddr: 0x100030158, symSize: 0x0 }
  - { offsetInCU: 0x4D009, offset: 0x4D009, size: 0x8, addend: 0x0, symName: __ZL8ReadPars, symObjAddr: 0x191B98, symBinAddr: 0x100030260, symSize: 0x0 }
  - { offsetInCU: 0x4D022, offset: 0x4D022, size: 0x8, addend: 0x0, symName: __ZL11learnDelays, symObjAddr: 0x191B99, symBinAddr: 0x100030261, symSize: 0x0 }
  - { offsetInCU: 0x4D03B, offset: 0x4D03B, size: 0x8, addend: 0x0, symName: __ZL15ProbWSwitchDown, symObjAddr: 0x21AB0, symBinAddr: 0x100030160, symSize: 0x0 }
  - { offsetInCU: 0x4D054, offset: 0x4D054, size: 0x8, addend: 0x0, symName: __ZL13ProbWSwitchUp, symObjAddr: 0x21AB4, symBinAddr: 0x100030164, symSize: 0x0 }
  - { offsetInCU: 0x4D06D, offset: 0x4D06D, size: 0x8, addend: 0x0, symName: __ZL7indfile, symObjAddr: 0x191B9C, symBinAddr: 0x100030264, symSize: 0x0 }
  - { offsetInCU: 0x5D63C, offset: 0x5D63C, size: 0x8, addend: 0x0, symName: __ZNSt3__16vectorIiNS_9allocatorIiEEE26__swap_out_circular_bufferERNS_14__split_bufferIiRS2_EE, symObjAddr: 0x144AC, symBinAddr: 0x100015420, symSize: 0x118 }
  - { offsetInCU: 0x5D694, offset: 0x5D694, size: 0x8, addend: 0x0, symName: __Z3powB7v160006IdiENSt3__19enable_ifIXaasr3std13is_arithmeticIT_EE5valuesr3std13is_arithmeticIT0_EE5valueENS0_9__promoteIS2_S3_vEEE4type4typeES2_S3_, symObjAddr: 0x11F14, symBinAddr: 0x100012E88, symSize: 0x38 }
  - { offsetInCU: 0x5D6FF, offset: 0x5D6FF, size: 0x8, addend: 0x0, symName: __ZNSt3__16vectorIdNS_9allocatorIdEEE26__swap_out_circular_bufferERNS_14__split_bufferIdRS2_EE, symObjAddr: 0x18C00, symBinAddr: 0x100019B74, symSize: 0x118 }
  - { offsetInCU: 0x5D757, offset: 0x5D757, size: 0x8, addend: 0x0, symName: __Z3powB7v160006IfiENSt3__19enable_ifIXaasr3std13is_arithmeticIT_EE5valuesr3std13is_arithmeticIT0_EE5valueENS0_9__promoteIS2_S3_vEEE4type4typeES2_S3_, symObjAddr: 0x9C8, symBinAddr: 0x10000193C, symSize: 0x3C }
  - { offsetInCU: 0x5D7D4, offset: 0x5D7D4, size: 0x8, addend: 0x0, symName: __Z3powB7v160006IfdENSt3__19enable_ifIXaasr3std13is_arithmeticIT_EE5valuesr3std13is_arithmeticIT0_EE5valueENS0_9__promoteIS2_S3_vEEE4type4typeES2_S3_, symObjAddr: 0x1314, symBinAddr: 0x100002288, symSize: 0x30 }
  - { offsetInCU: 0x5D830, offset: 0x5D830, size: 0x8, addend: 0x0, symName: __ZNSt3__16vectorI3HitNS_9allocatorIS1_EEE26__swap_out_circular_bufferERNS_14__split_bufferIS1_RS3_EE, symObjAddr: 0x1A2E8, symBinAddr: 0x10001B25C, symSize: 0x118 }
  - { offsetInCU: 0x5DA2A, offset: 0x5DA2A, size: 0x8, addend: 0x0, symName: __ZNSt3__16vectorIP4TH1FNS_9allocatorIS2_EEE26__swap_out_circular_bufferERNS_14__split_bufferIS2_RS4_EE, symObjAddr: 0x1BC38, symBinAddr: 0x10001CBAC, symSize: 0x118 }
  - { offsetInCU: 0x5DC91, offset: 0x5DC91, size: 0x8, addend: 0x0, symName: __ZNSt3__124uniform_int_distributionIlEclINS_26linear_congruential_engineIjLj48271ELj0ELj2147483647EEEEElRT_RKNS1_10param_typeE, symObjAddr: 0x1DF68, symBinAddr: 0x10001EEDC, symSize: 0x174 }
  - { offsetInCU: 0x5DD45, offset: 0x5DD45, size: 0x8, addend: 0x0, symName: __ZNSt3__16vectorIfNS_9allocatorIfEEE26__swap_out_circular_bufferERNS_14__split_bufferIfRS2_EE, symObjAddr: 0x1ECF0, symBinAddr: 0x10001FC64, symSize: 0x118 }
  - { offsetInCU: 0x5FD52, offset: 0x5FD52, size: 0x8, addend: 0x0, symName: __ZNSt3__16vectorI3HitNS_9allocatorIS1_EEEC1B7v160006Ev, symObjAddr: 0x0, symBinAddr: 0x100000F74, symSize: 0x2C }
  - { offsetInCU: 0x5FD7C, offset: 0x5FD7C, size: 0x8, addend: 0x0, symName: __ZNSt3__16vectorI3HitNS_9allocatorIS1_EEED1B7v160006Ev, symObjAddr: 0x2C, symBinAddr: 0x100000FA0, symSize: 0x2C }
  - { offsetInCU: 0x5FDA6, offset: 0x5FDA6, size: 0x8, addend: 0x0, symName: __ZNSt3__16vectorIdNS_9allocatorIdEEEC1B7v160006Ev, symObjAddr: 0x58, symBinAddr: 0x100000FCC, symSize: 0x2C }
  - { offsetInCU: 0x5FDD0, offset: 0x5FDD0, size: 0x8, addend: 0x0, symName: __ZNSt3__16vectorIdNS_9allocatorIdEEED1B7v160006Ev, symObjAddr: 0x84, symBinAddr: 0x100000FF8, symSize: 0x2C }
  - { offsetInCU: 0x5FDFA, offset: 0x5FDFA, size: 0x8, addend: 0x0, symName: __ZNSt3__16vectorIiNS_9allocatorIiEEEC1B7v160006Ev, symObjAddr: 0xB0, symBinAddr: 0x100001024, symSize: 0x2C }
  - { offsetInCU: 0x5FE24, offset: 0x5FE24, size: 0x8, addend: 0x0, symName: __ZNSt3__16vectorIiNS_9allocatorIiEEED1B7v160006Ev, symObjAddr: 0xDC, symBinAddr: 0x100001050, symSize: 0x2C }
  - { offsetInCU: 0x5FE4E, offset: 0x5FE4E, size: 0x8, addend: 0x0, symName: __ZN7TObjectnwEm, symObjAddr: 0x108, symBinAddr: 0x10000107C, symSize: 0x24 }
  - { offsetInCU: 0x5FE71, offset: 0x5FE71, size: 0x8, addend: 0x0, symName: __Z10Reset_hitsv, symObjAddr: 0x12C, symBinAddr: 0x1000010A0, symSize: 0x1C }
  - { offsetInCU: 0x5FE8B, offset: 0x5FE8B, size: 0x8, addend: 0x0, symName: __ZNSt3__16vectorI3HitNS_9allocatorIS1_EEE5clearB7v160006Ev, symObjAddr: 0x148, symBinAddr: 0x1000010BC, symSize: 0x54 }
  - { offsetInCU: 0x5FEBF, offset: 0x5FEBF, size: 0x8, addend: 0x0, symName: __Z7GetBinRd, symObjAddr: 0x19C, symBinAddr: 0x100001110, symSize: 0x12C }
  - { offsetInCU: 0x5FF07, offset: 0x5FF07, size: 0x8, addend: 0x0, symName: __Z7GetBinZd, symObjAddr: 0x2C8, symBinAddr: 0x10000123C, symSize: 0xAC }
  - { offsetInCU: 0x5FF42, offset: 0x5FF42, size: 0x8, addend: 0x0, symName: __Z11GetStreamIDii, symObjAddr: 0x374, symBinAddr: 0x1000012E8, symSize: 0x28 }
  - { offsetInCU: 0x5FF80, offset: 0x5FF80, size: 0x8, addend: 0x0, symName: __Z6Encoded, symObjAddr: 0x39C, symBinAddr: 0x100001310, symSize: 0x288 }
  - { offsetInCU: 0x600D5, offset: 0x600D5, size: 0x8, addend: 0x0, symName: __ZNSt3__16vectorI3HitNS_9allocatorIS1_EEE5beginB7v160006Ev, symObjAddr: 0x664, symBinAddr: 0x1000015D8, symSize: 0x30 }
  - { offsetInCU: 0x600FD, offset: 0x600FD, size: 0x8, addend: 0x0, symName: __ZNSt3__16vectorI3HitNS_9allocatorIS1_EEE3endB7v160006Ev, symObjAddr: 0x694, symBinAddr: 0x100001608, symSize: 0x30 }
  - { offsetInCU: 0x60125, offset: 0x60125, size: 0x8, addend: 0x0, symName: __ZNKSt3__111__wrap_iterIP3HitEdeB7v160006Ev, symObjAddr: 0x6F8, symBinAddr: 0x10000166C, symSize: 0x18 }
  - { offsetInCU: 0x6014B, offset: 0x6014B, size: 0x8, addend: 0x0, symName: __ZNSt3__16vectorIdNS_9allocatorIdEEE9push_backB7v160006ERKd, symObjAddr: 0x710, symBinAddr: 0x100001684, symSize: 0x6C }
  - { offsetInCU: 0x60182, offset: 0x60182, size: 0x8, addend: 0x0, symName: __ZNSt3__16vectorIiNS_9allocatorIiEEE9push_backB7v160006ERKi, symObjAddr: 0x77C, symBinAddr: 0x1000016F0, symSize: 0x6C }
  - { offsetInCU: 0x601B9, offset: 0x601B9, size: 0x8, addend: 0x0, symName: __ZNSt3__16vectorIiNS_9allocatorIiEEE9push_backB7v160006EOi, symObjAddr: 0x7E8, symBinAddr: 0x10000175C, symSize: 0x6C }
  - { offsetInCU: 0x601F0, offset: 0x601F0, size: 0x8, addend: 0x0, symName: __ZNSt3__111__wrap_iterIP3HitEppB7v160006Ev, symObjAddr: 0x854, symBinAddr: 0x1000017C8, symSize: 0x20 }
  - { offsetInCU: 0x60215, offset: 0x60215, size: 0x8, addend: 0x0, symName: __Z12LR_Schedulerfii, symObjAddr: 0x874, symBinAddr: 0x1000017E8, symSize: 0x130 }
  - { offsetInCU: 0x6027F, offset: 0x6027F, size: 0x8, addend: 0x0, symName: __Z3expB7v160006f, symObjAddr: 0x9A4, symBinAddr: 0x100001918, symSize: 0x24 }
  - { offsetInCU: 0x602AD, offset: 0x602AD, size: 0x8, addend: 0x0, symName: __Z3cosB7v160006f, symObjAddr: 0xA04, symBinAddr: 0x100001978, symSize: 0x24 }
  - { offsetInCU: 0x602DB, offset: 0x602DB, size: 0x8, addend: 0x0, symName: __Z19Compute_SelectivityiiR3SNN, symObjAddr: 0xA28, symBinAddr: 0x10000199C, symSize: 0x774 }
  - { offsetInCU: 0x60565, offset: 0x60565, size: 0x8, addend: 0x0, symName: __Z4log2B7v160006f, symObjAddr: 0x119C, symBinAddr: 0x100002110, symSize: 0x24 }
  - { offsetInCU: 0x60593, offset: 0x60593, size: 0x8, addend: 0x0, symName: __Z9Compute_Qfff, symObjAddr: 0x11C0, symBinAddr: 0x100002134, symSize: 0x154 }
  - { offsetInCU: 0x605FE, offset: 0x605FE, size: 0x8, addend: 0x0, symName: __Z4sqrtB7v160006f, symObjAddr: 0x1344, symBinAddr: 0x1000022B8, symSize: 0x18 }
  - { offsetInCU: 0x6062D, offset: 0x6062D, size: 0x8, addend: 0x0, symName: __Z17ReadFromProcessedP5TTreeS0_l, symObjAddr: 0x135C, symBinAddr: 0x1000022D0, symSize: 0x5D4 }
  - { offsetInCU: 0x6070A, offset: 0x6070A, size: 0x8, addend: 0x0, symName: __ZN5TTree16SetBranchAddressIfEEiPKcPT_PP7TBranch, symObjAddr: 0x1930, symBinAddr: 0x1000028A4, symSize: 0xA4 }
  - { offsetInCU: 0x6078A, offset: 0x6078A, size: 0x8, addend: 0x0, symName: __ZNSt3__16vectorI3HitNS_9allocatorIS1_EEE12emplace_backIJRfS6_S6_iEEERS1_DpOT_, symObjAddr: 0x19D4, symBinAddr: 0x100002948, symSize: 0x98 }
  - { offsetInCU: 0x60808, offset: 0x60808, size: 0x8, addend: 0x0, symName: __Z11ReadWeightsP5TFileR3SNN, symObjAddr: 0x1A6C, symBinAddr: 0x1000029E0, symSize: 0x388 }
  - { offsetInCU: 0x60904, offset: 0x60904, size: 0x8, addend: 0x0, symName: __ZNSt3__16vectorIP4TH1FNS_9allocatorIS2_EEEC1B7v160006Ev, symObjAddr: 0x1DF4, symBinAddr: 0x100002D68, symSize: 0x2C }
  - { offsetInCU: 0x6092E, offset: 0x6092E, size: 0x8, addend: 0x0, symName: __ZNSt3__16vectorIP4TH1FNS_9allocatorIS2_EEE9push_backB7v160006ERKS2_, symObjAddr: 0x1E20, symBinAddr: 0x100002D94, symSize: 0x6C }
  - { offsetInCU: 0x60965, offset: 0x60965, size: 0x8, addend: 0x0, symName: __ZNKSt3__16vectorIP4TH1FNS_9allocatorIS2_EEE4sizeB7v160006Ev, symObjAddr: 0x1ED4, symBinAddr: 0x100002E48, symSize: 0x28 }
  - { offsetInCU: 0x6098B, offset: 0x6098B, size: 0x8, addend: 0x0, symName: __ZNSt3__113basic_ostreamIcNS_11char_traitsIcEEElsB7v160006EPFRS3_S4_E, symObjAddr: 0x1EFC, symBinAddr: 0x100002E70, symSize: 0x2C }
  - { offsetInCU: 0x609BF, offset: 0x609BF, size: 0x8, addend: 0x0, symName: __ZNSt3__16vectorIP4TH1FNS_9allocatorIS2_EEEixB7v160006Em, symObjAddr: 0x1F80, symBinAddr: 0x100002EF4, symSize: 0x24 }
  - { offsetInCU: 0x609F6, offset: 0x609F6, size: 0x8, addend: 0x0, symName: __ZNSt3__16vectorIP4TH1FNS_9allocatorIS2_EEED1B7v160006Ev, symObjAddr: 0x1FA4, symBinAddr: 0x100002F18, symSize: 0x2C }
  - { offsetInCU: 0x60A58, offset: 0x60A58, size: 0x8, addend: 0x0, symName: __Z14PlotPotentialsPKcR3SNNibS0_, symObjAddr: 0x1FD0, symBinAddr: 0x100002F44, symSize: 0x2208 }
  - { offsetInCU: 0x61147, offset: 0x61147, size: 0x8, addend: 0x0, symName: __ZNSt3__16vectorIfNS_9allocatorIfEEEC1B7v160006Ev, symObjAddr: 0x41D8, symBinAddr: 0x10000514C, symSize: 0x2C }
  - { offsetInCU: 0x61171, offset: 0x61171, size: 0x8, addend: 0x0, symName: __ZNSt3__16vectorIdNS_9allocatorIdEEE5clearB7v160006Ev, symObjAddr: 0x4204, symBinAddr: 0x100005178, symSize: 0x4C }
  - { offsetInCU: 0x611A6, offset: 0x611A6, size: 0x8, addend: 0x0, symName: __ZNSt3__16vectorIiNS_9allocatorIiEEE5clearB7v160006Ev, symObjAddr: 0x4250, symBinAddr: 0x1000051C4, symSize: 0x54 }
  - { offsetInCU: 0x611DB, offset: 0x611DB, size: 0x8, addend: 0x0, symName: __ZNKSt3__16vectorI3HitNS_9allocatorIS1_EEE4sizeB7v160006Ev, symObjAddr: 0x42A4, symBinAddr: 0x100005218, symSize: 0x28 }
  - { offsetInCU: 0x61201, offset: 0x61201, size: 0x8, addend: 0x0, symName: __ZNKSt3__16vectorIdNS_9allocatorIdEEE4sizeB7v160006Ev, symObjAddr: 0x42CC, symBinAddr: 0x100005240, symSize: 0x28 }
  - { offsetInCU: 0x61227, offset: 0x61227, size: 0x8, addend: 0x0, symName: __ZNSt3__16vectorIdNS_9allocatorIdEEEixB7v160006Em, symObjAddr: 0x42F4, symBinAddr: 0x100005268, symSize: 0x24 }
  - { offsetInCU: 0x6125E, offset: 0x6125E, size: 0x8, addend: 0x0, symName: __ZNSt3__126linear_congruential_engineIjLj48271ELj0ELj2147483647EEC1B7v160006Ev, symObjAddr: 0x4318, symBinAddr: 0x10000528C, symSize: 0x30 }
  - { offsetInCU: 0x61288, offset: 0x61288, size: 0x8, addend: 0x0, symName: __ZNSt3__16vectorIiNS_9allocatorIiEEE5beginB7v160006Ev, symObjAddr: 0x4390, symBinAddr: 0x100005304, symSize: 0x30 }
  - { offsetInCU: 0x612B0, offset: 0x612B0, size: 0x8, addend: 0x0, symName: __ZNSt3__16vectorIiNS_9allocatorIiEEE3endB7v160006Ev, symObjAddr: 0x43C0, symBinAddr: 0x100005334, symSize: 0x30 }
  - { offsetInCU: 0x612D8, offset: 0x612D8, size: 0x8, addend: 0x0, symName: __ZNKSt3__111__wrap_iterIPiEdeB7v160006Ev, symObjAddr: 0x4424, symBinAddr: 0x100005398, symSize: 0x18 }
  - { offsetInCU: 0x612FE, offset: 0x612FE, size: 0x8, addend: 0x0, symName: __ZNSt3__111__wrap_iterIPiEppB7v160006Ev, symObjAddr: 0x443C, symBinAddr: 0x1000053B0, symSize: 0x20 }
  - { offsetInCU: 0x61324, offset: 0x61324, size: 0x8, addend: 0x0, symName: __ZNSt3__16vectorIfNS_9allocatorIfEEE9push_backB7v160006EOf, symObjAddr: 0x445C, symBinAddr: 0x1000053D0, symSize: 0x6C }
  - { offsetInCU: 0x6135B, offset: 0x6135B, size: 0x8, addend: 0x0, symName: __ZNSt3__16vectorIdNS_9allocatorIdEEE9push_backB7v160006EOd, symObjAddr: 0x44F4, symBinAddr: 0x100005468, symSize: 0x6C }
  - { offsetInCU: 0x61392, offset: 0x61392, size: 0x8, addend: 0x0, symName: __ZNSt3__16vectorIiNS_9allocatorIiEEEixB7v160006Em, symObjAddr: 0x4560, symBinAddr: 0x1000054D4, symSize: 0x24 }
  - { offsetInCU: 0x61471, offset: 0x61471, size: 0x8, addend: 0x0, symName: __ZNSt3__114basic_ofstreamIcNS_11char_traitsIcEEEC1Ev, symObjAddr: 0x4584, symBinAddr: 0x1000054F8, symSize: 0xE8 }
  - { offsetInCU: 0x6149D, offset: 0x6149D, size: 0x8, addend: 0x0, symName: __ZNKSt3__16vectorIfNS_9allocatorIfEEE4sizeB7v160006Ev, symObjAddr: 0x466C, symBinAddr: 0x1000055E0, symSize: 0x28 }
  - { offsetInCU: 0x614C3, offset: 0x614C3, size: 0x8, addend: 0x0, symName: __ZNSt3__16vectorIfNS_9allocatorIfEEEixB7v160006Em, symObjAddr: 0x4694, symBinAddr: 0x100005608, symSize: 0x24 }
  - { offsetInCU: 0x614FA, offset: 0x614FA, size: 0x8, addend: 0x0, symName: __ZNSt3__114basic_ofstreamIcNS_11char_traitsIcEEE5closeEv, symObjAddr: 0x46B8, symBinAddr: 0x10000562C, symSize: 0x58 }
  - { offsetInCU: 0x61527, offset: 0x61527, size: 0x8, addend: 0x0, symName: __ZNSt3__114basic_ofstreamIcNS_11char_traitsIcEEED1Ev, symObjAddr: 0x4710, symBinAddr: 0x100005684, symSize: 0x40 }
  - { offsetInCU: 0x61554, offset: 0x61554, size: 0x8, addend: 0x0, symName: __ZNSt3__16vectorIfNS_9allocatorIfEEED1B7v160006Ev, symObjAddr: 0x4750, symBinAddr: 0x1000056C4, symSize: 0x2C }
  - { offsetInCU: 0x6157E, offset: 0x6157E, size: 0x8, addend: 0x0, symName: __Z12SNN_TrackingR3SNNi, symObjAddr: 0x477C, symBinAddr: 0x1000056F0, symSize: 0xD574 }
  - { offsetInCU: 0x6BCC3, offset: 0x6BCC3, size: 0x8, addend: 0x0, symName: __ZN5TROOT8SetBatchEb, symObjAddr: 0x11CF0, symBinAddr: 0x100012C64, symSize: 0x34 }
  - { offsetInCU: 0x6BCF8, offset: 0x6BCF8, size: 0x8, addend: 0x0, symName: __ZNSt3__16vectorIfNS_9allocatorIfEEE9push_backB7v160006ERKf, symObjAddr: 0x11D80, symBinAddr: 0x100012CF4, symSize: 0x6C }
  - { offsetInCU: 0x6BD2F, offset: 0x6BD2F, size: 0x8, addend: 0x0, symName: __ZNSt3__16vectorIfNS_9allocatorIfEEE5eraseB7v160006ENS_11__wrap_iterIPKfEE, symObjAddr: 0x11DEC, symBinAddr: 0x100012D60, symSize: 0xA4 }
  - { offsetInCU: 0x6BD84, offset: 0x6BD84, size: 0x8, addend: 0x0, symName: __ZNSt3__16vectorIfNS_9allocatorIfEEE5beginB7v160006Ev, symObjAddr: 0x11E90, symBinAddr: 0x100012E04, symSize: 0x30 }
  - { offsetInCU: 0x6BDB7, offset: 0x6BDB7, size: 0x8, addend: 0x0, symName: __ZNSt3__111__wrap_iterIPKfEC1B7v160006IPfEERKNS0_IT_EEPNS_9enable_ifIXsr14is_convertibleIS6_S2_EE5valueEvE4typeE, symObjAddr: 0x11EC0, symBinAddr: 0x100012E34, symSize: 0x3C }
  - { offsetInCU: 0x6BE03, offset: 0x6BE03, size: 0x8, addend: 0x0, symName: __Z4fabsB7v160006f, symObjAddr: 0x11EFC, symBinAddr: 0x100012E70, symSize: 0x18 }
  - { offsetInCU: 0x6BE31, offset: 0x6BE31, size: 0x8, addend: 0x0, symName: __Z3powB7v160006ff, symObjAddr: 0x11F4C, symBinAddr: 0x100012EC0, symSize: 0x2C }
  - { offsetInCU: 0x6BE74, offset: 0x6BE74, size: 0x8, addend: 0x0, symName: __ZNSt3__112basic_stringIcNS_11char_traitsIcEENS_9allocatorIcEEEC1B7v160006IDnEEPKc, symObjAddr: 0x11F78, symBinAddr: 0x100012EEC, symSize: 0x34 }
  - { offsetInCU: 0x6BF1D, offset: 0x6BF1D, size: 0x8, addend: 0x0, symName: __ZNSt3__118basic_stringstreamIcNS_11char_traitsIcEENS_9allocatorIcEEEC1B7v160006Ev, symObjAddr: 0x11FAC, symBinAddr: 0x100012F20, symSize: 0x104 }
  - { offsetInCU: 0x6BF47, offset: 0x6BF47, size: 0x8, addend: 0x0, symName: __ZNKSt3__118basic_stringstreamIcNS_11char_traitsIcEENS_9allocatorIcEEE3strB7v160006Ev, symObjAddr: 0x12134, symBinAddr: 0x1000130A8, symSize: 0x30 }
  - { offsetInCU: 0x6BF6D, offset: 0x6BF6D, size: 0x8, addend: 0x0, symName: __ZNKSt3__112basic_stringIcNS_11char_traitsIcEENS_9allocatorIcEEE5c_strB7v160006Ev, symObjAddr: 0x12164, symBinAddr: 0x1000130D8, symSize: 0x24 }
  - { offsetInCU: 0x6BF93, offset: 0x6BF93, size: 0x8, addend: 0x0, symName: __ZN5TROOT4TimeEi, symObjAddr: 0x12188, symBinAddr: 0x1000130FC, symSize: 0x20 }
  - { offsetInCU: 0x6BFCD, offset: 0x6BFCD, size: 0x8, addend: 0x0, symName: __ZNSt3__118basic_stringstreamIcNS_11char_traitsIcEENS_9allocatorIcEEED1Ev, symObjAddr: 0x121A8, symBinAddr: 0x10001311C, symSize: 0x40 }
  - { offsetInCU: 0x6BFFA, offset: 0x6BFFA, size: 0x8, addend: 0x0, symName: __Z9PrintHelpv, symObjAddr: 0x121E8, symBinAddr: 0x10001315C, symSize: 0x39C }
  - { offsetInCU: 0x6C015, offset: 0x6C015, size: 0x8, addend: 0x0, symName: _main, symObjAddr: 0x12584, symBinAddr: 0x1000134F8, symSize: 0x12E8 }
  - { offsetInCU: 0x6C098, offset: 0x6C098, size: 0x8, addend: 0x0, symName: __ZNKSt3__111__wrap_iterIP3HitE4baseB7v160006Ev, symObjAddr: 0x138B4, symBinAddr: 0x100014828, symSize: 0x18 }
  - { offsetInCU: 0x6C0BE, offset: 0x6C0BE, size: 0x8, addend: 0x0, symName: __ZNKSt3__111__wrap_iterIPiE4baseB7v160006Ev, symObjAddr: 0x13914, symBinAddr: 0x100014888, symSize: 0x18 }
  - { offsetInCU: 0x6C0EF, offset: 0x6C0EF, size: 0x8, addend: 0x0, symName: __ZNKSt3__16__lessIffEclB7v160006ERKfS3_, symObjAddr: 0x13980, symBinAddr: 0x1000148F4, symSize: 0x34 }
  - { offsetInCU: 0x6C131, offset: 0x6C131, size: 0x8, addend: 0x0, symName: __ZNSt3__114basic_ofstreamIcNS_11char_traitsIcEEED2Ev, symObjAddr: 0x139B4, symBinAddr: 0x100014928, symSize: 0x64 }
  - { offsetInCU: 0x6C16B, offset: 0x6C16B, size: 0x8, addend: 0x0, symName: __ZTv0_n24_NSt3__114basic_ofstreamIcNS_11char_traitsIcEEED1Ev, symObjAddr: 0x13A18, symBinAddr: 0x10001498C, symSize: 0x28 }
  - { offsetInCU: 0x6C182, offset: 0x6C182, size: 0x8, addend: 0x0, symName: __ZNSt3__111__wrap_iterIPKfEC2B7v160006IPfEERKNS0_IT_EEPNS_9enable_ifIXsr14is_convertibleIS6_S2_EE5valueEvE4typeE, symObjAddr: 0x13A40, symBinAddr: 0x1000149B4, symSize: 0x40 }
  - { offsetInCU: 0x6C1CE, offset: 0x6C1CE, size: 0x8, addend: 0x0, symName: __ZNKSt3__111__wrap_iterIPfE4baseB7v160006Ev, symObjAddr: 0x13A80, symBinAddr: 0x1000149F4, symSize: 0x18 }
  - { offsetInCU: 0x6C1F4, offset: 0x6C1F4, size: 0x8, addend: 0x0, symName: __ZNSt3__118basic_stringstreamIcNS_11char_traitsIcEENS_9allocatorIcEEED2Ev, symObjAddr: 0x13A98, symBinAddr: 0x100014A0C, symSize: 0x6C }
  - { offsetInCU: 0x6C22E, offset: 0x6C22E, size: 0x8, addend: 0x0, symName: __ZThn16_NSt3__118basic_stringstreamIcNS_11char_traitsIcEENS_9allocatorIcEEED1Ev, symObjAddr: 0x13B04, symBinAddr: 0x100014A78, symSize: 0x1C }
  - { offsetInCU: 0x6C245, offset: 0x6C245, size: 0x8, addend: 0x0, symName: __ZTv0_n24_NSt3__118basic_stringstreamIcNS_11char_traitsIcEENS_9allocatorIcEEED1Ev, symObjAddr: 0x13B20, symBinAddr: 0x100014A94, symSize: 0x28 }
  - { offsetInCU: 0x6C261, offset: 0x6C261, size: 0x8, addend: 0x0, symName: __ZNSt3__115basic_stringbufIcNS_11char_traitsIcEENS_9allocatorIcEEED1Ev, symObjAddr: 0x13B48, symBinAddr: 0x100014ABC, symSize: 0x2C }
  - { offsetInCU: 0x6C28E, offset: 0x6C28E, size: 0x8, addend: 0x0, symName: __ZNSt3__115basic_stringbufIcNS_11char_traitsIcEENS_9allocatorIcEEED2Ev, symObjAddr: 0x13B74, symBinAddr: 0x100014AE8, symSize: 0x48 }
  - { offsetInCU: 0x6C2BB, offset: 0x6C2BB, size: 0x8, addend: 0x0, symName: __ZNSt3__112basic_stringIcNS_11char_traitsIcEENS_9allocatorIcEEEC2B7v160006IDnEEPKc, symObjAddr: 0x13BBC, symBinAddr: 0x100014B30, symSize: 0x60 }
  - { offsetInCU: 0x6C2FF, offset: 0x6C2FF, size: 0x8, addend: 0x0, symName: __ZNSt3__117__compressed_pairINS_12basic_stringIcNS_11char_traitsIcEENS_9allocatorIcEEE5__repES5_EC1B7v160006INS_18__default_init_tagESA_EEOT_OT0_, symObjAddr: 0x13C1C, symBinAddr: 0x100014B90, symSize: 0x3C }
  - { offsetInCU: 0x6C357, offset: 0x6C357, size: 0x8, addend: 0x0, symName: __ZNSt3__111char_traitsIcE6lengthEPKc, symObjAddr: 0x13C58, symBinAddr: 0x100014BCC, symSize: 0x34 }
  - { offsetInCU: 0x6C37A, offset: 0x6C37A, size: 0x8, addend: 0x0, symName: __ZNSt3__117__compressed_pairINS_12basic_stringIcNS_11char_traitsIcEENS_9allocatorIcEEE5__repES5_EC2B7v160006INS_18__default_init_tagESA_EEOT_OT0_, symObjAddr: 0x13C9C, symBinAddr: 0x100014C10, symSize: 0x3C }
  - { offsetInCU: 0x6C3D2, offset: 0x6C3D2, size: 0x8, addend: 0x0, symName: __ZNSt3__122__compressed_pair_elemINS_12basic_stringIcNS_11char_traitsIcEENS_9allocatorIcEEE5__repELi0ELb0EEC2B7v160006ENS_18__default_init_tagE, symObjAddr: 0x13CD8, symBinAddr: 0x100014C4C, symSize: 0x14 }
  - { offsetInCU: 0x6C407, offset: 0x6C407, size: 0x8, addend: 0x0, symName: __ZNSt3__122__compressed_pair_elemINS_9allocatorIcEELi1ELb1EEC2B7v160006ENS_18__default_init_tagE, symObjAddr: 0x13CEC, symBinAddr: 0x100014C60, symSize: 0x2C }
  - { offsetInCU: 0x6C43C, offset: 0x6C43C, size: 0x8, addend: 0x0, symName: __ZNSt3__19allocatorIcEC2B7v160006Ev, symObjAddr: 0x13D18, symBinAddr: 0x100014C8C, symSize: 0x2C }
  - { offsetInCU: 0x6C466, offset: 0x6C466, size: 0x8, addend: 0x0, symName: __ZNSt3__116__non_trivial_ifILb1ENS_9allocatorIcEEEC2B7v160006Ev, symObjAddr: 0x13D44, symBinAddr: 0x100014CB8, symSize: 0x14 }
  - { offsetInCU: 0x6C490, offset: 0x6C490, size: 0x8, addend: 0x0, symName: __ZNKSt3__16vectorIiNS_9allocatorIiEEE4sizeB7v160006Ev, symObjAddr: 0x13D88, symBinAddr: 0x100014CFC, symSize: 0x28 }
  - { offsetInCU: 0x6C4B6, offset: 0x6C4B6, size: 0x8, addend: 0x0, symName: __ZNSt3__16vectorIiNS_9allocatorIiEEE7__clearB7v160006Ev, symObjAddr: 0x13DB0, symBinAddr: 0x100014D24, symSize: 0x28 }
  - { offsetInCU: 0x6C4DC, offset: 0x6C4DC, size: 0x8, addend: 0x0, symName: __ZNKSt3__16vectorIiNS_9allocatorIiEEE17__annotate_shrinkB7v160006Em, symObjAddr: 0x13DD8, symBinAddr: 0x100014D4C, symSize: 0xB4 }
  - { offsetInCU: 0x6C511, offset: 0x6C511, size: 0x8, addend: 0x0, symName: __ZNSt3__16vectorIiNS_9allocatorIiEEE22__base_destruct_at_endB7v160006EPi, symObjAddr: 0x13E9C, symBinAddr: 0x100014E10, symSize: 0x8C }
  - { offsetInCU: 0x6C555, offset: 0x6C555, size: 0x8, addend: 0x0, symName: __ZNSt3__116allocator_traitsINS_9allocatorIiEEE7destroyB7v160006IivEEvRS2_PT_, symObjAddr: 0x13F28, symBinAddr: 0x100014E9C, symSize: 0x2C }
  - { offsetInCU: 0x6C592, offset: 0x6C592, size: 0x8, addend: 0x0, symName: __ZNSt3__16vectorIiNS_9allocatorIiEEE7__allocB7v160006Ev, symObjAddr: 0x13F54, symBinAddr: 0x100014EC8, symSize: 0x28 }
  - { offsetInCU: 0x6C5B8, offset: 0x6C5B8, size: 0x8, addend: 0x0, symName: __ZNSt3__19allocatorIiE7destroyB7v160006EPi, symObjAddr: 0x13F90, symBinAddr: 0x100014F04, symSize: 0x14 }
  - { offsetInCU: 0x6C5EC, offset: 0x6C5EC, size: 0x8, addend: 0x0, symName: __ZNSt3__117__compressed_pairIPiNS_9allocatorIiEEE6secondB7v160006Ev, symObjAddr: 0x13FA4, symBinAddr: 0x100014F18, symSize: 0x24 }
  - { offsetInCU: 0x6C612, offset: 0x6C612, size: 0x8, addend: 0x0, symName: __ZNSt3__122__compressed_pair_elemINS_9allocatorIiEELi1ELb1EE5__getB7v160006Ev, symObjAddr: 0x13FC8, symBinAddr: 0x100014F3C, symSize: 0x14 }
  - { offsetInCU: 0x6C638, offset: 0x6C638, size: 0x8, addend: 0x0, symName: __ZNKSt3__16vectorIiNS_9allocatorIiEEE31__annotate_contiguous_containerB7v160006EPKvS5_S5_S5_, symObjAddr: 0x13FDC, symBinAddr: 0x100014F50, symSize: 0x20 }
  - { offsetInCU: 0x6C68A, offset: 0x6C68A, size: 0x8, addend: 0x0, symName: __ZNKSt3__16vectorIiNS_9allocatorIiEEE4dataB7v160006Ev, symObjAddr: 0x13FFC, symBinAddr: 0x100014F70, symSize: 0x28 }
  - { offsetInCU: 0x6C6B0, offset: 0x6C6B0, size: 0x8, addend: 0x0, symName: __ZNKSt3__16vectorIiNS_9allocatorIiEEE8capacityB7v160006Ev, symObjAddr: 0x14024, symBinAddr: 0x100014F98, symSize: 0x40 }
  - { offsetInCU: 0x6C6D6, offset: 0x6C6D6, size: 0x8, addend: 0x0, symName: __ZNKSt3__16vectorIiNS_9allocatorIiEEE9__end_capB7v160006Ev, symObjAddr: 0x14064, symBinAddr: 0x100014FD8, symSize: 0x28 }
  - { offsetInCU: 0x6C6FC, offset: 0x6C6FC, size: 0x8, addend: 0x0, symName: __ZNKSt3__117__compressed_pairIPiNS_9allocatorIiEEE5firstB7v160006Ev, symObjAddr: 0x1408C, symBinAddr: 0x100015000, symSize: 0x24 }
  - { offsetInCU: 0x6C722, offset: 0x6C722, size: 0x8, addend: 0x0, symName: __ZNKSt3__122__compressed_pair_elemIPiLi0ELb0EE5__getB7v160006Ev, symObjAddr: 0x140B0, symBinAddr: 0x100015024, symSize: 0x14 }
  - { offsetInCU: 0x6C748, offset: 0x6C748, size: 0x8, addend: 0x0, symName: __ZNSt3__16vectorIiNS_9allocatorIiEEE9__end_capB7v160006Ev, symObjAddr: 0x140C4, symBinAddr: 0x100015038, symSize: 0x28 }
  - { offsetInCU: 0x6C76E, offset: 0x6C76E, size: 0x8, addend: 0x0, symName: __ZNSt3__16vectorIiNS_9allocatorIiEEE22__construct_one_at_endB7v160006IJiEEEvDpOT_, symObjAddr: 0x140EC, symBinAddr: 0x100015060, symSize: 0x90 }
  - { offsetInCU: 0x6C7BD, offset: 0x6C7BD, size: 0x8, addend: 0x0, symName: __ZNSt3__16vectorIiNS_9allocatorIiEEE21__push_back_slow_pathIiEEvOT_, symObjAddr: 0x1417C, symBinAddr: 0x1000150F0, symSize: 0xD8 }
  - { offsetInCU: 0x6C81B, offset: 0x6C81B, size: 0x8, addend: 0x0, symName: __ZNSt3__117__compressed_pairIPiNS_9allocatorIiEEE5firstB7v160006Ev, symObjAddr: 0x14254, symBinAddr: 0x1000151C8, symSize: 0x24 }
  - { offsetInCU: 0x6C841, offset: 0x6C841, size: 0x8, addend: 0x0, symName: __ZNSt3__122__compressed_pair_elemIPiLi0ELb0EE5__getB7v160006Ev, symObjAddr: 0x14278, symBinAddr: 0x1000151EC, symSize: 0x14 }
  - { offsetInCU: 0x6C884, offset: 0x6C884, size: 0x8, addend: 0x0, symName: __ZNSt3__16vectorIiNS_9allocatorIiEEE21_ConstructTransactionC1B7v160006ERS3_m, symObjAddr: 0x1428C, symBinAddr: 0x100015200, symSize: 0x3C }
  - { offsetInCU: 0x6C8CC, offset: 0x6C8CC, size: 0x8, addend: 0x0, symName: __ZNSt3__116allocator_traitsINS_9allocatorIiEEE9constructB7v160006IiJiEvEEvRS2_PT_DpOT0_, symObjAddr: 0x142C8, symBinAddr: 0x10001523C, symSize: 0x34 }
  - { offsetInCU: 0x6C923, offset: 0x6C923, size: 0x8, addend: 0x0, symName: __ZNSt3__16vectorIiNS_9allocatorIiEEE21_ConstructTransactionD1B7v160006Ev, symObjAddr: 0x142FC, symBinAddr: 0x100015270, symSize: 0x2C }
  - { offsetInCU: 0x6C94D, offset: 0x6C94D, size: 0x8, addend: 0x0, symName: __ZNSt3__16vectorIiNS_9allocatorIiEEE21_ConstructTransactionC2B7v160006ERS3_m, symObjAddr: 0x14328, symBinAddr: 0x10001529C, symSize: 0x44 }
  - { offsetInCU: 0x6C995, offset: 0x6C995, size: 0x8, addend: 0x0, symName: __ZNSt3__19allocatorIiE9constructB7v160006IiJiEEEvPT_DpOT0_, symObjAddr: 0x1436C, symBinAddr: 0x1000152E0, symSize: 0x28 }
  - { offsetInCU: 0x6C9EB, offset: 0x6C9EB, size: 0x8, addend: 0x0, symName: __ZNSt3__16vectorIiNS_9allocatorIiEEE21_ConstructTransactionD2B7v160006Ev, symObjAddr: 0x14394, symBinAddr: 0x100015308, symSize: 0x20 }
  - { offsetInCU: 0x6CA15, offset: 0x6CA15, size: 0x8, addend: 0x0, symName: __ZNKSt3__16vectorIiNS_9allocatorIiEEE11__recommendB7v160006Em, symObjAddr: 0x143B4, symBinAddr: 0x100015328, symSize: 0xB4 }
  - { offsetInCU: 0x6CA6A, offset: 0x6CA6A, size: 0x8, addend: 0x0, symName: __ZNSt3__114__split_bufferIiRNS_9allocatorIiEEEC1EmmS3_, symObjAddr: 0x14468, symBinAddr: 0x1000153DC, symSize: 0x44 }
  - { offsetInCU: 0x6CAC0, offset: 0x6CAC0, size: 0x8, addend: 0x0, symName: __ZNSt3__114__split_bufferIiRNS_9allocatorIiEEED1Ev, symObjAddr: 0x145C4, symBinAddr: 0x100015538, symSize: 0x2C }
  - { offsetInCU: 0x6CAEC, offset: 0x6CAEC, size: 0x8, addend: 0x0, symName: __ZNKSt3__16vectorIiNS_9allocatorIiEEE8max_sizeEv, symObjAddr: 0x145F0, symBinAddr: 0x100015564, symSize: 0x60 }
  - { offsetInCU: 0x6CB14, offset: 0x6CB14, size: 0x8, addend: 0x0, symName: __ZNKSt3__16vectorIiNS_9allocatorIiEEE20__throw_length_errorB7v160006Ev, symObjAddr: 0x14650, symBinAddr: 0x1000155C4, symSize: 0x1C }
  - { offsetInCU: 0x6CB46, offset: 0x6CB46, size: 0x8, addend: 0x0, symName: __ZNSt3__116allocator_traitsINS_9allocatorIiEEE8max_sizeB7v160006IS2_vEEmRKS2_, symObjAddr: 0x146C4, symBinAddr: 0x100015638, symSize: 0x24 }
  - { offsetInCU: 0x6CB74, offset: 0x6CB74, size: 0x8, addend: 0x0, symName: __ZNKSt3__16vectorIiNS_9allocatorIiEEE7__allocB7v160006Ev, symObjAddr: 0x146E8, symBinAddr: 0x10001565C, symSize: 0x28 }
  - { offsetInCU: 0x6CB9A, offset: 0x6CB9A, size: 0x8, addend: 0x0, symName: __ZNSt3__114numeric_limitsIlE3maxB7v160006Ev, symObjAddr: 0x14710, symBinAddr: 0x100015684, symSize: 0x14 }
  - { offsetInCU: 0x6CBB9, offset: 0x6CBB9, size: 0x8, addend: 0x0, symName: __ZNKSt3__16__lessImmEclB7v160006ERKmS3_, symObjAddr: 0x14778, symBinAddr: 0x1000156EC, symSize: 0x34 }
  - { offsetInCU: 0x6CBFB, offset: 0x6CBFB, size: 0x8, addend: 0x0, symName: __ZNKSt3__19allocatorIiE8max_sizeB7v160006Ev, symObjAddr: 0x147AC, symBinAddr: 0x100015720, symSize: 0x14 }
  - { offsetInCU: 0x6CC21, offset: 0x6CC21, size: 0x8, addend: 0x0, symName: __ZNKSt3__117__compressed_pairIPiNS_9allocatorIiEEE6secondB7v160006Ev, symObjAddr: 0x147C0, symBinAddr: 0x100015734, symSize: 0x24 }
  - { offsetInCU: 0x6CC47, offset: 0x6CC47, size: 0x8, addend: 0x0, symName: __ZNKSt3__122__compressed_pair_elemINS_9allocatorIiEELi1ELb1EE5__getB7v160006Ev, symObjAddr: 0x147E4, symBinAddr: 0x100015758, symSize: 0x14 }
  - { offsetInCU: 0x6CC6D, offset: 0x6CC6D, size: 0x8, addend: 0x0, symName: __ZNSt3__123__libcpp_numeric_limitsIlLb1EE3maxB7v160006Ev, symObjAddr: 0x147F8, symBinAddr: 0x10001576C, symSize: 0x8 }
  - { offsetInCU: 0x6CC81, offset: 0x6CC81, size: 0x8, addend: 0x0, symName: __ZNSt12length_errorC1B7v160006EPKc, symObjAddr: 0x14864, symBinAddr: 0x1000157D8, symSize: 0x34 }
  - { offsetInCU: 0x6CCB9, offset: 0x6CCB9, size: 0x8, addend: 0x0, symName: __ZNSt12length_errorC2B7v160006EPKc, symObjAddr: 0x14898, symBinAddr: 0x10001580C, symSize: 0x4C }
  - { offsetInCU: 0x6CCF1, offset: 0x6CCF1, size: 0x8, addend: 0x0, symName: __ZNSt3__114__split_bufferIiRNS_9allocatorIiEEEC2EmmS3_, symObjAddr: 0x14938, symBinAddr: 0x1000158AC, symSize: 0xD4 }
  - { offsetInCU: 0x6CD6A, offset: 0x6CD6A, size: 0x8, addend: 0x0, symName: __ZNSt3__117__compressed_pairIPiRNS_9allocatorIiEEEC1B7v160006IDnS4_EEOT_OT0_, symObjAddr: 0x14A0C, symBinAddr: 0x100015980, symSize: 0x3C }
  - { offsetInCU: 0x6CDC2, offset: 0x6CDC2, size: 0x8, addend: 0x0, symName: __ZNSt3__114__split_bufferIiRNS_9allocatorIiEEE7__allocB7v160006Ev, symObjAddr: 0x14A88, symBinAddr: 0x1000159FC, symSize: 0x28 }
  - { offsetInCU: 0x6CDE8, offset: 0x6CDE8, size: 0x8, addend: 0x0, symName: __ZNSt3__114__split_bufferIiRNS_9allocatorIiEEE9__end_capB7v160006Ev, symObjAddr: 0x14AB0, symBinAddr: 0x100015A24, symSize: 0x28 }
  - { offsetInCU: 0x6CE0E, offset: 0x6CE0E, size: 0x8, addend: 0x0, symName: __ZNSt3__117__compressed_pairIPiRNS_9allocatorIiEEEC2B7v160006IDnS4_EEOT_OT0_, symObjAddr: 0x14AD8, symBinAddr: 0x100015A4C, symSize: 0x48 }
  - { offsetInCU: 0x6CE66, offset: 0x6CE66, size: 0x8, addend: 0x0, symName: __ZNSt3__122__compressed_pair_elemIPiLi0ELb0EEC2B7v160006IDnvEEOT_, symObjAddr: 0x14B20, symBinAddr: 0x100015A94, symSize: 0x1C }
  - { offsetInCU: 0x6CEA8, offset: 0x6CEA8, size: 0x8, addend: 0x0, symName: __ZNSt3__122__compressed_pair_elemIRNS_9allocatorIiEELi1ELb0EEC2B7v160006IS3_vEEOT_, symObjAddr: 0x14B3C, symBinAddr: 0x100015AB0, symSize: 0x20 }
  - { offsetInCU: 0x6CEEA, offset: 0x6CEEA, size: 0x8, addend: 0x0, symName: __ZNSt3__19allocatorIiE8allocateB7v160006Em, symObjAddr: 0x14B5C, symBinAddr: 0x100015AD0, symSize: 0x58 }
  - { offsetInCU: 0x6CF1E, offset: 0x6CF1E, size: 0x8, addend: 0x0, symName: __ZNSt3__117__compressed_pairIPiRNS_9allocatorIiEEE6secondB7v160006Ev, symObjAddr: 0x14CB8, symBinAddr: 0x100015C2C, symSize: 0x28 }
  - { offsetInCU: 0x6CF44, offset: 0x6CF44, size: 0x8, addend: 0x0, symName: __ZNSt3__122__compressed_pair_elemIRNS_9allocatorIiEELi1ELb0EE5__getB7v160006Ev, symObjAddr: 0x14CE0, symBinAddr: 0x100015C54, symSize: 0x18 }
  - { offsetInCU: 0x6CF6A, offset: 0x6CF6A, size: 0x8, addend: 0x0, symName: __ZNSt3__117__compressed_pairIPiRNS_9allocatorIiEEE5firstB7v160006Ev, symObjAddr: 0x14CF8, symBinAddr: 0x100015C6C, symSize: 0x24 }
  - { offsetInCU: 0x6CF90, offset: 0x6CF90, size: 0x8, addend: 0x0, symName: __ZNKSt3__16vectorIiNS_9allocatorIiEEE17__annotate_deleteB7v160006Ev, symObjAddr: 0x14D1C, symBinAddr: 0x100015C90, symSize: 0xB8 }
  - { offsetInCU: 0x6CFB6, offset: 0x6CFB6, size: 0x8, addend: 0x0, symName: __ZNSt3__116reverse_iteratorIPiEC1B7v160006ES1_, symObjAddr: 0x14E4C, symBinAddr: 0x100015DC0, symSize: 0x34 }
  - { offsetInCU: 0x6CFEE, offset: 0x6CFEE, size: 0x8, addend: 0x0, symName: __ZNKSt3__116reverse_iteratorIPiE4baseB7v160006Ev, symObjAddr: 0x14E80, symBinAddr: 0x100015DF4, symSize: 0x18 }
  - { offsetInCU: 0x6D014, offset: 0x6D014, size: 0x8, addend: 0x0, symName: __ZNKSt3__16vectorIiNS_9allocatorIiEEE14__annotate_newB7v160006Em, symObjAddr: 0x14ED4, symBinAddr: 0x100015E48, symSize: 0xAC }
  - { offsetInCU: 0x6D071, offset: 0x6D071, size: 0x8, addend: 0x0, symName: __ZNKSt3__111__move_loopINS_17_ClassicAlgPolicyEEclB7v160006INS_16reverse_iteratorIPiEES6_S6_EENS_4pairIT_T1_EES8_T0_S9_, symObjAddr: 0x15270, symBinAddr: 0x1000161E4, symSize: 0xA0 }
  - { offsetInCU: 0x6D0DC, offset: 0x6D0DC, size: 0x8, addend: 0x0, symName: __ZNSt3__18_IterOpsINS_17_ClassicAlgPolicyEE11__iter_moveB7v160006IRNS_16reverse_iteratorIPiEEEENS_9enable_ifIXsr12is_referenceIDTdeclsr3stdE7declvalIRT_EEEEE5valueEDTclsr3stdE4movedeclsr3stdE7declvalISA_EEEEE4typeEOS9_, symObjAddr: 0x154A4, symBinAddr: 0x100016418, symSize: 0x28 }
  - { offsetInCU: 0x6D108, offset: 0x6D108, size: 0x8, addend: 0x0, symName: __ZNKSt3__116reverse_iteratorIPiEdeB7v160006Ev, symObjAddr: 0x154CC, symBinAddr: 0x100016440, symSize: 0x28 }
  - { offsetInCU: 0x6D13C, offset: 0x6D13C, size: 0x8, addend: 0x0, symName: __ZNSt3__116reverse_iteratorIPiEppB7v160006Ev, symObjAddr: 0x154F4, symBinAddr: 0x100016468, symSize: 0x20 }
  - { offsetInCU: 0x6D162, offset: 0x6D162, size: 0x8, addend: 0x0, symName: __ZNSt3__18_IterOpsINS_17_ClassicAlgPolicyEE25__validate_iter_referenceB7v160006IRNS_16reverse_iteratorIPiEEEEvv, symObjAddr: 0x15514, symBinAddr: 0x100016488, symSize: 0x4 }
  - { offsetInCU: 0x6D180, offset: 0x6D180, size: 0x8, addend: 0x0, symName: __ZNSt3__118__unwrap_iter_implINS_16reverse_iteratorIPiEELb0EE8__unwrapB7v160006ES3_, symObjAddr: 0x15518, symBinAddr: 0x10001648C, symSize: 0x24 }
  - { offsetInCU: 0x6D1A9, offset: 0x6D1A9, size: 0x8, addend: 0x0, symName: __ZNSt3__14pairINS_16reverse_iteratorIPiEES3_EC1B7v160006IS3_S3_LPv0EEEOT_OT0_, symObjAddr: 0x1553C, symBinAddr: 0x1000164B0, symSize: 0x3C }
  - { offsetInCU: 0x6D207, offset: 0x6D207, size: 0x8, addend: 0x0, symName: __ZNSt3__14pairINS_16reverse_iteratorIPiEES3_EC2B7v160006IS3_S3_LPv0EEEOT_OT0_, symObjAddr: 0x15578, symBinAddr: 0x1000164EC, symSize: 0x34 }
  - { offsetInCU: 0x6D265, offset: 0x6D265, size: 0x8, addend: 0x0, symName: __ZNSt3__118__unwrap_iter_implINS_16reverse_iteratorIPiEELb0EE8__rewrapB7v160006ES3_S3_, symObjAddr: 0x155AC, symBinAddr: 0x100016520, symSize: 0x2C }
  - { offsetInCU: 0x6D293, offset: 0x6D293, size: 0x8, addend: 0x0, symName: __ZNSt3__116reverse_iteratorIPiEC2B7v160006ES1_, symObjAddr: 0x155D8, symBinAddr: 0x10001654C, symSize: 0x28 }
  - { offsetInCU: 0x6D2CB, offset: 0x6D2CB, size: 0x8, addend: 0x0, symName: __ZNSt3__114__split_bufferIiRNS_9allocatorIiEEED2Ev, symObjAddr: 0x15600, symBinAddr: 0x100016574, symSize: 0x8C }
  - { offsetInCU: 0x6D2F7, offset: 0x6D2F7, size: 0x8, addend: 0x0, symName: __ZNSt3__114__split_bufferIiRNS_9allocatorIiEEE5clearB7v160006Ev, symObjAddr: 0x1568C, symBinAddr: 0x100016600, symSize: 0x28 }
  - { offsetInCU: 0x6D31D, offset: 0x6D31D, size: 0x8, addend: 0x0, symName: __ZNSt3__116allocator_traitsINS_9allocatorIiEEE10deallocateB7v160006ERS2_Pim, symObjAddr: 0x156B4, symBinAddr: 0x100016628, symSize: 0x34 }
  - { offsetInCU: 0x6D35F, offset: 0x6D35F, size: 0x8, addend: 0x0, symName: __ZNKSt3__114__split_bufferIiRNS_9allocatorIiEEE8capacityB7v160006Ev, symObjAddr: 0x156E8, symBinAddr: 0x10001665C, symSize: 0x40 }
  - { offsetInCU: 0x6D385, offset: 0x6D385, size: 0x8, addend: 0x0, symName: __ZNSt3__114__split_bufferIiRNS_9allocatorIiEEE17__destruct_at_endB7v160006EPi, symObjAddr: 0x15728, symBinAddr: 0x10001669C, symSize: 0x2C }
  - { offsetInCU: 0x6D3B9, offset: 0x6D3B9, size: 0x8, addend: 0x0, symName: __ZNSt3__114__split_bufferIiRNS_9allocatorIiEEE17__destruct_at_endB7v160006EPiNS_17integral_constantIbLb0EEE, symObjAddr: 0x15754, symBinAddr: 0x1000166C8, symSize: 0x80 }
  - { offsetInCU: 0x6D3FA, offset: 0x6D3FA, size: 0x8, addend: 0x0, symName: __ZNSt3__19allocatorIiE10deallocateB7v160006EPim, symObjAddr: 0x157D4, symBinAddr: 0x100016748, symSize: 0x40 }
  - { offsetInCU: 0x6D43C, offset: 0x6D43C, size: 0x8, addend: 0x0, symName: __ZNKSt3__114__split_bufferIiRNS_9allocatorIiEEE9__end_capB7v160006Ev, symObjAddr: 0x1591C, symBinAddr: 0x100016890, symSize: 0x28 }
  - { offsetInCU: 0x6D462, offset: 0x6D462, size: 0x8, addend: 0x0, symName: __ZNKSt3__117__compressed_pairIPiRNS_9allocatorIiEEE5firstB7v160006Ev, symObjAddr: 0x15944, symBinAddr: 0x1000168B8, symSize: 0x24 }
  - { offsetInCU: 0x6D488, offset: 0x6D488, size: 0x8, addend: 0x0, symName: __ZNKSt3__112basic_stringIcNS_11char_traitsIcEENS_9allocatorIcEEE4dataB7v160006Ev, symObjAddr: 0x15968, symBinAddr: 0x1000168DC, symSize: 0x28 }
  - { offsetInCU: 0x6D4AE, offset: 0x6D4AE, size: 0x8, addend: 0x0, symName: __ZNKSt3__112basic_stringIcNS_11char_traitsIcEENS_9allocatorIcEEE13__get_pointerB7v160006Ev, symObjAddr: 0x159A4, symBinAddr: 0x100016918, symSize: 0x54 }
  - { offsetInCU: 0x6D4D4, offset: 0x6D4D4, size: 0x8, addend: 0x0, symName: __ZNKSt3__112basic_stringIcNS_11char_traitsIcEENS_9allocatorIcEEE9__is_longB7v160006Ev, symObjAddr: 0x159F8, symBinAddr: 0x10001696C, symSize: 0x38 }
  - { offsetInCU: 0x6D4FA, offset: 0x6D4FA, size: 0x8, addend: 0x0, symName: __ZNKSt3__112basic_stringIcNS_11char_traitsIcEENS_9allocatorIcEEE18__get_long_pointerB7v160006Ev, symObjAddr: 0x15A30, symBinAddr: 0x1000169A4, symSize: 0x28 }
  - { offsetInCU: 0x6D520, offset: 0x6D520, size: 0x8, addend: 0x0, symName: __ZNKSt3__112basic_stringIcNS_11char_traitsIcEENS_9allocatorIcEEE19__get_short_pointerB7v160006Ev, symObjAddr: 0x15A58, symBinAddr: 0x1000169CC, symSize: 0x28 }
  - { offsetInCU: 0x6D546, offset: 0x6D546, size: 0x8, addend: 0x0, symName: __ZNKSt3__117__compressed_pairINS_12basic_stringIcNS_11char_traitsIcEENS_9allocatorIcEEE5__repES5_E5firstB7v160006Ev, symObjAddr: 0x15A80, symBinAddr: 0x1000169F4, symSize: 0x24 }
  - { offsetInCU: 0x6D56C, offset: 0x6D56C, size: 0x8, addend: 0x0, symName: __ZNKSt3__122__compressed_pair_elemINS_12basic_stringIcNS_11char_traitsIcEENS_9allocatorIcEEE5__repELi0ELb0EE5__getB7v160006Ev, symObjAddr: 0x15AA4, symBinAddr: 0x100016A18, symSize: 0x14 }
  - { offsetInCU: 0x6D592, offset: 0x6D592, size: 0x8, addend: 0x0, symName: __ZNSt3__114pointer_traitsIPKcE10pointer_toB7v160006ERS1_, symObjAddr: 0x15AB8, symBinAddr: 0x100016A2C, symSize: 0x14 }
  - { offsetInCU: 0x6D5B5, offset: 0x6D5B5, size: 0x8, addend: 0x0, symName: __ZNSt3__16vectorI3HitNS_9allocatorIS1_EEEC2B7v160006Ev, symObjAddr: 0x15ACC, symBinAddr: 0x100016A40, symSize: 0x58 }
  - { offsetInCU: 0x6D5DF, offset: 0x6D5DF, size: 0x8, addend: 0x0, symName: __ZNSt3__117__compressed_pairIP3HitNS_9allocatorIS1_EEEC1B7v160006IDnNS_18__default_init_tagEEEOT_OT0_, symObjAddr: 0x15B24, symBinAddr: 0x100016A98, symSize: 0x3C }
  - { offsetInCU: 0x6D637, offset: 0x6D637, size: 0x8, addend: 0x0, symName: __ZNSt3__117__compressed_pairIP3HitNS_9allocatorIS1_EEEC2B7v160006IDnNS_18__default_init_tagEEEOT_OT0_, symObjAddr: 0x15B70, symBinAddr: 0x100016AE4, symSize: 0x40 }
  - { offsetInCU: 0x6D68F, offset: 0x6D68F, size: 0x8, addend: 0x0, symName: __ZNSt3__122__compressed_pair_elemIP3HitLi0ELb0EEC2B7v160006IDnvEEOT_, symObjAddr: 0x15BB0, symBinAddr: 0x100016B24, symSize: 0x1C }
  - { offsetInCU: 0x6D6D1, offset: 0x6D6D1, size: 0x8, addend: 0x0, symName: __ZNSt3__122__compressed_pair_elemINS_9allocatorI3HitEELi1ELb1EEC2B7v160006ENS_18__default_init_tagE, symObjAddr: 0x15BCC, symBinAddr: 0x100016B40, symSize: 0x2C }
  - { offsetInCU: 0x6D706, offset: 0x6D706, size: 0x8, addend: 0x0, symName: __ZNSt3__19allocatorI3HitEC2B7v160006Ev, symObjAddr: 0x15BF8, symBinAddr: 0x100016B6C, symSize: 0x2C }
  - { offsetInCU: 0x6D730, offset: 0x6D730, size: 0x8, addend: 0x0, symName: __ZNSt3__116__non_trivial_ifILb1ENS_9allocatorI3HitEEEC2B7v160006Ev, symObjAddr: 0x15C24, symBinAddr: 0x100016B98, symSize: 0x14 }
  - { offsetInCU: 0x6D75A, offset: 0x6D75A, size: 0x8, addend: 0x0, symName: __ZNSt3__16vectorI3HitNS_9allocatorIS1_EEED2B7v160006Ev, symObjAddr: 0x15C38, symBinAddr: 0x100016BAC, symSize: 0x44 }
  - { offsetInCU: 0x6D784, offset: 0x6D784, size: 0x8, addend: 0x0, symName: __ZNSt3__16vectorI3HitNS_9allocatorIS1_EEE16__destroy_vectorC1ERS4_, symObjAddr: 0x15C7C, symBinAddr: 0x100016BF0, symSize: 0x34 }
  - { offsetInCU: 0x6D7BD, offset: 0x6D7BD, size: 0x8, addend: 0x0, symName: __ZNSt3__16vectorI3HitNS_9allocatorIS1_EEE16__destroy_vectorclB7v160006Ev, symObjAddr: 0x15CB0, symBinAddr: 0x100016C24, symSize: 0x9C }
  - { offsetInCU: 0x6D7E3, offset: 0x6D7E3, size: 0x8, addend: 0x0, symName: __ZNSt3__16vectorI3HitNS_9allocatorIS1_EEE16__destroy_vectorC2ERS4_, symObjAddr: 0x15D4C, symBinAddr: 0x100016CC0, symSize: 0x20 }
  - { offsetInCU: 0x6D81C, offset: 0x6D81C, size: 0x8, addend: 0x0, symName: __ZNKSt3__16vectorI3HitNS_9allocatorIS1_EEE17__annotate_deleteB7v160006Ev, symObjAddr: 0x15D6C, symBinAddr: 0x100016CE0, symSize: 0xB8 }
  - { offsetInCU: 0x6D842, offset: 0x6D842, size: 0x8, addend: 0x0, symName: __ZNSt3__16vectorI3HitNS_9allocatorIS1_EEE7__clearB7v160006Ev, symObjAddr: 0x15E34, symBinAddr: 0x100016DA8, symSize: 0x28 }
  - { offsetInCU: 0x6D868, offset: 0x6D868, size: 0x8, addend: 0x0, symName: __ZNSt3__116allocator_traitsINS_9allocatorI3HitEEE10deallocateB7v160006ERS3_PS2_m, symObjAddr: 0x15E5C, symBinAddr: 0x100016DD0, symSize: 0x34 }
  - { offsetInCU: 0x6D8AA, offset: 0x6D8AA, size: 0x8, addend: 0x0, symName: __ZNSt3__16vectorI3HitNS_9allocatorIS1_EEE7__allocB7v160006Ev, symObjAddr: 0x15E90, symBinAddr: 0x100016E04, symSize: 0x28 }
  - { offsetInCU: 0x6D8D0, offset: 0x6D8D0, size: 0x8, addend: 0x0, symName: __ZNKSt3__16vectorI3HitNS_9allocatorIS1_EEE8capacityB7v160006Ev, symObjAddr: 0x15EB8, symBinAddr: 0x100016E2C, symSize: 0x40 }
  - { offsetInCU: 0x6D8F6, offset: 0x6D8F6, size: 0x8, addend: 0x0, symName: __ZNKSt3__16vectorI3HitNS_9allocatorIS1_EEE31__annotate_contiguous_containerB7v160006EPKvS6_S6_S6_, symObjAddr: 0x15EF8, symBinAddr: 0x100016E6C, symSize: 0x20 }
  - { offsetInCU: 0x6D948, offset: 0x6D948, size: 0x8, addend: 0x0, symName: __ZNKSt3__16vectorI3HitNS_9allocatorIS1_EEE4dataB7v160006Ev, symObjAddr: 0x15F18, symBinAddr: 0x100016E8C, symSize: 0x28 }
  - { offsetInCU: 0x6D96E, offset: 0x6D96E, size: 0x8, addend: 0x0, symName: __ZNSt3__16vectorI3HitNS_9allocatorIS1_EEE22__base_destruct_at_endB7v160006EPS1_, symObjAddr: 0x15F54, symBinAddr: 0x100016EC8, symSize: 0x8C }
  - { offsetInCU: 0x6D9B2, offset: 0x6D9B2, size: 0x8, addend: 0x0, symName: __ZNSt3__116allocator_traitsINS_9allocatorI3HitEEE7destroyB7v160006IS2_vEEvRS3_PT_, symObjAddr: 0x15FE0, symBinAddr: 0x100016F54, symSize: 0x2C }
  - { offsetInCU: 0x6D9EF, offset: 0x6D9EF, size: 0x8, addend: 0x0, symName: __ZNSt3__19allocatorI3HitE7destroyB7v160006EPS1_, symObjAddr: 0x1600C, symBinAddr: 0x100016F80, symSize: 0x14 }
  - { offsetInCU: 0x6DA23, offset: 0x6DA23, size: 0x8, addend: 0x0, symName: __ZNSt3__19allocatorI3HitE10deallocateB7v160006EPS1_m, symObjAddr: 0x16020, symBinAddr: 0x100016F94, symSize: 0x40 }
  - { offsetInCU: 0x6DA65, offset: 0x6DA65, size: 0x8, addend: 0x0, symName: __ZNSt3__117__compressed_pairIP3HitNS_9allocatorIS1_EEE6secondB7v160006Ev, symObjAddr: 0x16060, symBinAddr: 0x100016FD4, symSize: 0x24 }
  - { offsetInCU: 0x6DA8B, offset: 0x6DA8B, size: 0x8, addend: 0x0, symName: __ZNSt3__122__compressed_pair_elemINS_9allocatorI3HitEELi1ELb1EE5__getB7v160006Ev, symObjAddr: 0x16084, symBinAddr: 0x100016FF8, symSize: 0x14 }
  - { offsetInCU: 0x6DAB1, offset: 0x6DAB1, size: 0x8, addend: 0x0, symName: __ZNKSt3__16vectorI3HitNS_9allocatorIS1_EEE9__end_capB7v160006Ev, symObjAddr: 0x16098, symBinAddr: 0x10001700C, symSize: 0x28 }
  - { offsetInCU: 0x6DAD7, offset: 0x6DAD7, size: 0x8, addend: 0x0, symName: __ZNKSt3__117__compressed_pairIP3HitNS_9allocatorIS1_EEE5firstB7v160006Ev, symObjAddr: 0x160C0, symBinAddr: 0x100017034, symSize: 0x24 }
  - { offsetInCU: 0x6DAFD, offset: 0x6DAFD, size: 0x8, addend: 0x0, symName: __ZNKSt3__122__compressed_pair_elemIP3HitLi0ELb0EE5__getB7v160006Ev, symObjAddr: 0x160E4, symBinAddr: 0x100017058, symSize: 0x14 }
  - { offsetInCU: 0x6DB23, offset: 0x6DB23, size: 0x8, addend: 0x0, symName: __ZNSt3__112basic_stringIcNS_11char_traitsIcEENS_9allocatorIcEEEC1B7v160006EOS5_, symObjAddr: 0x160F8, symBinAddr: 0x10001706C, symSize: 0x34 }
  - { offsetInCU: 0x6DB5C, offset: 0x6DB5C, size: 0x8, addend: 0x0, symName: __ZNSt3__112basic_stringIcNS_11char_traitsIcEENS_9allocatorIcEEEC2B7v160006EOS5_, symObjAddr: 0x1612C, symBinAddr: 0x1000170A0, symSize: 0x84 }
  - { offsetInCU: 0x6DB95, offset: 0x6DB95, size: 0x8, addend: 0x0, symName: __ZNSt3__112basic_stringIcNS_11char_traitsIcEENS_9allocatorIcEEE14__default_initB7v160006Ev, symObjAddr: 0x161B0, symBinAddr: 0x100017124, symSize: 0x40 }
  - { offsetInCU: 0x6DBBB, offset: 0x6DBBB, size: 0x8, addend: 0x0, symName: __ZNSt3__117__compressed_pairINS_12basic_stringIcNS_11char_traitsIcEENS_9allocatorIcEEE5__repES5_E5firstB7v160006Ev, symObjAddr: 0x16204, symBinAddr: 0x100017178, symSize: 0x24 }
  - { offsetInCU: 0x6DBE1, offset: 0x6DBE1, size: 0x8, addend: 0x0, symName: __ZNSt3__122__compressed_pair_elemINS_12basic_stringIcNS_11char_traitsIcEENS_9allocatorIcEEE5__repELi0ELb0EE5__getB7v160006Ev, symObjAddr: 0x16228, symBinAddr: 0x10001719C, symSize: 0x14 }
  - { offsetInCU: 0x6DC07, offset: 0x6DC07, size: 0x8, addend: 0x0, symName: __ZNSt3__16vectorIdNS_9allocatorIdEEEC2B7v160006Ev, symObjAddr: 0x1623C, symBinAddr: 0x1000171B0, symSize: 0x58 }
  - { offsetInCU: 0x6DC31, offset: 0x6DC31, size: 0x8, addend: 0x0, symName: __ZNSt3__117__compressed_pairIPdNS_9allocatorIdEEEC1B7v160006IDnNS_18__default_init_tagEEEOT_OT0_, symObjAddr: 0x16294, symBinAddr: 0x100017208, symSize: 0x3C }
  - { offsetInCU: 0x6DC89, offset: 0x6DC89, size: 0x8, addend: 0x0, symName: __ZNSt3__117__compressed_pairIPdNS_9allocatorIdEEEC2B7v160006IDnNS_18__default_init_tagEEEOT_OT0_, symObjAddr: 0x162E0, symBinAddr: 0x100017254, symSize: 0x40 }
  - { offsetInCU: 0x6DCE1, offset: 0x6DCE1, size: 0x8, addend: 0x0, symName: __ZNSt3__122__compressed_pair_elemIPdLi0ELb0EEC2B7v160006IDnvEEOT_, symObjAddr: 0x16320, symBinAddr: 0x100017294, symSize: 0x1C }
  - { offsetInCU: 0x6DD23, offset: 0x6DD23, size: 0x8, addend: 0x0, symName: __ZNSt3__122__compressed_pair_elemINS_9allocatorIdEELi1ELb1EEC2B7v160006ENS_18__default_init_tagE, symObjAddr: 0x1633C, symBinAddr: 0x1000172B0, symSize: 0x2C }
  - { offsetInCU: 0x6DD58, offset: 0x6DD58, size: 0x8, addend: 0x0, symName: __ZNSt3__19allocatorIdEC2B7v160006Ev, symObjAddr: 0x16368, symBinAddr: 0x1000172DC, symSize: 0x2C }
  - { offsetInCU: 0x6DD82, offset: 0x6DD82, size: 0x8, addend: 0x0, symName: __ZNSt3__116__non_trivial_ifILb1ENS_9allocatorIdEEEC2B7v160006Ev, symObjAddr: 0x16394, symBinAddr: 0x100017308, symSize: 0x14 }
  - { offsetInCU: 0x6DDAC, offset: 0x6DDAC, size: 0x8, addend: 0x0, symName: __ZNSt3__16vectorIdNS_9allocatorIdEEED2B7v160006Ev, symObjAddr: 0x163A8, symBinAddr: 0x10001731C, symSize: 0x44 }
  - { offsetInCU: 0x6DDD6, offset: 0x6DDD6, size: 0x8, addend: 0x0, symName: __ZNSt3__16vectorIdNS_9allocatorIdEEE16__destroy_vectorC1ERS3_, symObjAddr: 0x163EC, symBinAddr: 0x100017360, symSize: 0x34 }
  - { offsetInCU: 0x6DE0F, offset: 0x6DE0F, size: 0x8, addend: 0x0, symName: __ZNSt3__16vectorIdNS_9allocatorIdEEE16__destroy_vectorclB7v160006Ev, symObjAddr: 0x16420, symBinAddr: 0x100017394, symSize: 0x9C }
  - { offsetInCU: 0x6DE35, offset: 0x6DE35, size: 0x8, addend: 0x0, symName: __ZNSt3__16vectorIdNS_9allocatorIdEEE16__destroy_vectorC2ERS3_, symObjAddr: 0x164BC, symBinAddr: 0x100017430, symSize: 0x20 }
  - { offsetInCU: 0x6DE6E, offset: 0x6DE6E, size: 0x8, addend: 0x0, symName: __ZNKSt3__16vectorIdNS_9allocatorIdEEE17__annotate_deleteB7v160006Ev, symObjAddr: 0x164DC, symBinAddr: 0x100017450, symSize: 0xB8 }
  - { offsetInCU: 0x6DE94, offset: 0x6DE94, size: 0x8, addend: 0x0, symName: __ZNSt3__16vectorIdNS_9allocatorIdEEE7__clearB7v160006Ev, symObjAddr: 0x165A4, symBinAddr: 0x100017518, symSize: 0x28 }
  - { offsetInCU: 0x6DEBA, offset: 0x6DEBA, size: 0x8, addend: 0x0, symName: __ZNSt3__116allocator_traitsINS_9allocatorIdEEE10deallocateB7v160006ERS2_Pdm, symObjAddr: 0x165CC, symBinAddr: 0x100017540, symSize: 0x34 }
  - { offsetInCU: 0x6DEFC, offset: 0x6DEFC, size: 0x8, addend: 0x0, symName: __ZNSt3__16vectorIdNS_9allocatorIdEEE7__allocB7v160006Ev, symObjAddr: 0x16600, symBinAddr: 0x100017574, symSize: 0x28 }
  - { offsetInCU: 0x6DF22, offset: 0x6DF22, size: 0x8, addend: 0x0, symName: __ZNKSt3__16vectorIdNS_9allocatorIdEEE8capacityB7v160006Ev, symObjAddr: 0x16628, symBinAddr: 0x10001759C, symSize: 0x40 }
  - { offsetInCU: 0x6DF48, offset: 0x6DF48, size: 0x8, addend: 0x0, symName: __ZNKSt3__16vectorIdNS_9allocatorIdEEE31__annotate_contiguous_containerB7v160006EPKvS5_S5_S5_, symObjAddr: 0x16668, symBinAddr: 0x1000175DC, symSize: 0x20 }
  - { offsetInCU: 0x6DF9A, offset: 0x6DF9A, size: 0x8, addend: 0x0, symName: __ZNKSt3__16vectorIdNS_9allocatorIdEEE4dataB7v160006Ev, symObjAddr: 0x16688, symBinAddr: 0x1000175FC, symSize: 0x28 }
  - { offsetInCU: 0x6DFC0, offset: 0x6DFC0, size: 0x8, addend: 0x0, symName: __ZNSt3__16vectorIdNS_9allocatorIdEEE22__base_destruct_at_endB7v160006EPd, symObjAddr: 0x166C4, symBinAddr: 0x100017638, symSize: 0x8C }
  - { offsetInCU: 0x6E004, offset: 0x6E004, size: 0x8, addend: 0x0, symName: __ZNSt3__116allocator_traitsINS_9allocatorIdEEE7destroyB7v160006IdvEEvRS2_PT_, symObjAddr: 0x16750, symBinAddr: 0x1000176C4, symSize: 0x2C }
  - { offsetInCU: 0x6E041, offset: 0x6E041, size: 0x8, addend: 0x0, symName: __ZNSt3__19allocatorIdE7destroyB7v160006EPd, symObjAddr: 0x1677C, symBinAddr: 0x1000176F0, symSize: 0x14 }
  - { offsetInCU: 0x6E075, offset: 0x6E075, size: 0x8, addend: 0x0, symName: __ZNSt3__19allocatorIdE10deallocateB7v160006EPdm, symObjAddr: 0x16790, symBinAddr: 0x100017704, symSize: 0x40 }
  - { offsetInCU: 0x6E0B7, offset: 0x6E0B7, size: 0x8, addend: 0x0, symName: __ZNSt3__117__compressed_pairIPdNS_9allocatorIdEEE6secondB7v160006Ev, symObjAddr: 0x167D0, symBinAddr: 0x100017744, symSize: 0x24 }
  - { offsetInCU: 0x6E0DD, offset: 0x6E0DD, size: 0x8, addend: 0x0, symName: __ZNSt3__122__compressed_pair_elemINS_9allocatorIdEELi1ELb1EE5__getB7v160006Ev, symObjAddr: 0x167F4, symBinAddr: 0x100017768, symSize: 0x14 }
  - { offsetInCU: 0x6E103, offset: 0x6E103, size: 0x8, addend: 0x0, symName: __ZNKSt3__16vectorIdNS_9allocatorIdEEE9__end_capB7v160006Ev, symObjAddr: 0x16808, symBinAddr: 0x10001777C, symSize: 0x28 }
  - { offsetInCU: 0x6E129, offset: 0x6E129, size: 0x8, addend: 0x0, symName: __ZNKSt3__117__compressed_pairIPdNS_9allocatorIdEEE5firstB7v160006Ev, symObjAddr: 0x16830, symBinAddr: 0x1000177A4, symSize: 0x24 }
  - { offsetInCU: 0x6E14F, offset: 0x6E14F, size: 0x8, addend: 0x0, symName: __ZNKSt3__122__compressed_pair_elemIPdLi0ELb0EE5__getB7v160006Ev, symObjAddr: 0x16854, symBinAddr: 0x1000177C8, symSize: 0x14 }
  - { offsetInCU: 0x6E175, offset: 0x6E175, size: 0x8, addend: 0x0, symName: __ZNSt3__16vectorIiNS_9allocatorIiEEEC2B7v160006Ev, symObjAddr: 0x16868, symBinAddr: 0x1000177DC, symSize: 0x58 }
  - { offsetInCU: 0x6E19F, offset: 0x6E19F, size: 0x8, addend: 0x0, symName: __ZNSt3__117__compressed_pairIPiNS_9allocatorIiEEEC1B7v160006IDnNS_18__default_init_tagEEEOT_OT0_, symObjAddr: 0x168C0, symBinAddr: 0x100017834, symSize: 0x3C }
  - { offsetInCU: 0x6E1F7, offset: 0x6E1F7, size: 0x8, addend: 0x0, symName: __ZNSt3__117__compressed_pairIPiNS_9allocatorIiEEEC2B7v160006IDnNS_18__default_init_tagEEEOT_OT0_, symObjAddr: 0x1690C, symBinAddr: 0x100017880, symSize: 0x40 }
  - { offsetInCU: 0x6E24F, offset: 0x6E24F, size: 0x8, addend: 0x0, symName: __ZNSt3__122__compressed_pair_elemINS_9allocatorIiEELi1ELb1EEC2B7v160006ENS_18__default_init_tagE, symObjAddr: 0x1694C, symBinAddr: 0x1000178C0, symSize: 0x2C }
  - { offsetInCU: 0x6E284, offset: 0x6E284, size: 0x8, addend: 0x0, symName: __ZNSt3__19allocatorIiEC2B7v160006Ev, symObjAddr: 0x16978, symBinAddr: 0x1000178EC, symSize: 0x2C }
  - { offsetInCU: 0x6E2AE, offset: 0x6E2AE, size: 0x8, addend: 0x0, symName: __ZNSt3__116__non_trivial_ifILb1ENS_9allocatorIiEEEC2B7v160006Ev, symObjAddr: 0x169A4, symBinAddr: 0x100017918, symSize: 0x14 }
  - { offsetInCU: 0x6E2D8, offset: 0x6E2D8, size: 0x8, addend: 0x0, symName: __ZNSt3__16vectorIiNS_9allocatorIiEEED2B7v160006Ev, symObjAddr: 0x169B8, symBinAddr: 0x10001792C, symSize: 0x44 }
  - { offsetInCU: 0x6E302, offset: 0x6E302, size: 0x8, addend: 0x0, symName: __ZNSt3__16vectorIiNS_9allocatorIiEEE16__destroy_vectorC1ERS3_, symObjAddr: 0x169FC, symBinAddr: 0x100017970, symSize: 0x34 }
  - { offsetInCU: 0x6E33B, offset: 0x6E33B, size: 0x8, addend: 0x0, symName: __ZNSt3__16vectorIiNS_9allocatorIiEEE16__destroy_vectorclB7v160006Ev, symObjAddr: 0x16A30, symBinAddr: 0x1000179A4, symSize: 0x9C }
  - { offsetInCU: 0x6E361, offset: 0x6E361, size: 0x8, addend: 0x0, symName: __ZNSt3__16vectorIiNS_9allocatorIiEEE16__destroy_vectorC2ERS3_, symObjAddr: 0x16ACC, symBinAddr: 0x100017A40, symSize: 0x20 }
  - { offsetInCU: 0x6E39A, offset: 0x6E39A, size: 0x8, addend: 0x0, symName: __ZNKSt3__16vectorI3HitNS_9allocatorIS1_EEE17__annotate_shrinkB7v160006Em, symObjAddr: 0x16AFC, symBinAddr: 0x100017A70, symSize: 0xB4 }
  - { offsetInCU: 0x6E3CF, offset: 0x6E3CF, size: 0x8, addend: 0x0, symName: __ZNSt3__16vectorI3HitNS_9allocatorIS1_EEE11__make_iterB7v160006EPS1_, symObjAddr: 0x16BC0, symBinAddr: 0x100017B34, symSize: 0x34 }
  - { offsetInCU: 0x6E404, offset: 0x6E404, size: 0x8, addend: 0x0, symName: __ZNSt3__111__wrap_iterIP3HitEC1B7v160006EPKvS2_, symObjAddr: 0x16BF4, symBinAddr: 0x100017B68, symSize: 0x3C }
  - { offsetInCU: 0x6E44A, offset: 0x6E44A, size: 0x8, addend: 0x0, symName: __ZNSt3__111__wrap_iterIP3HitEC2B7v160006EPKvS2_, symObjAddr: 0x16C30, symBinAddr: 0x100017BA4, symSize: 0x24 }
  - { offsetInCU: 0x6E496, offset: 0x6E496, size: 0x8, addend: 0x0, symName: '__ZNSt3__116_UnwrapAlgPolicyIRZ6EncodedE3$_0E10__get_compB7v160006ES2_', symObjAddr: 0x16DD4, symBinAddr: 0x100017D48, symSize: 0x14 }
  - { offsetInCU: 0x6E4C4, offset: 0x6E4C4, size: 0x8, addend: 0x0, symName: '__ZZ6EncodedENK3$_0clERK3HitS2_', symObjAddr: 0x174D4, symBinAddr: 0x100018448, symSize: 0x34 }
  - { offsetInCU: 0x6E50C, offset: 0x6E50C, size: 0x8, addend: 0x0, symName: __ZNSt3__18_IterOpsINS_17_ClassicAlgPolicyEE9iter_swapB7v160006IRP3HitS6_EEvOT_OT0_, symObjAddr: 0x17508, symBinAddr: 0x10001847C, symSize: 0x34 }
  - { offsetInCU: 0x6E555, offset: 0x6E555, size: 0x8, addend: 0x0, symName: __ZNSt3__18_IterOpsINS_17_ClassicAlgPolicyEE11__iter_moveB7v160006IRP3HitEENS_9enable_ifIXsr12is_referenceIDTdeclsr3stdE7declvalIRT_EEEEE5valueEDTclsr3stdE4movedeclsr3stdE7declvalIS9_EEEEE4typeEOS8_, symObjAddr: 0x17E28, symBinAddr: 0x100018D9C, symSize: 0x28 }
  - { offsetInCU: 0x6E581, offset: 0x6E581, size: 0x8, addend: 0x0, symName: __ZNSt3__18_IterOpsINS_17_ClassicAlgPolicyEE25__validate_iter_referenceB7v160006IRP3HitEEvv, symObjAddr: 0x17E50, symBinAddr: 0x100018DC4, symSize: 0x4 }
  - { offsetInCU: 0x6E59F, offset: 0x6E59F, size: 0x8, addend: 0x0, symName: __ZNSt3__18_IterOpsINS_17_ClassicAlgPolicyEE4nextB7v160006IP3HitEET_S6_S6_, symObjAddr: 0x17E54, symBinAddr: 0x100018DC8, symSize: 0x18 }
  - { offsetInCU: 0x6E5D6, offset: 0x6E5D6, size: 0x8, addend: 0x0, symName: __ZNSt3__118__unwrap_iter_implINS_11__wrap_iterIP3HitEELb1EE8__unwrapB7v160006ES4_, symObjAddr: 0x18770, symBinAddr: 0x1000196E4, symSize: 0x28 }
  - { offsetInCU: 0x6E604, offset: 0x6E604, size: 0x8, addend: 0x0, symName: __ZNSt3__119__to_address_helperINS_11__wrap_iterIP3HitEEvE6__callB7v160006ERKS4_, symObjAddr: 0x187BC, symBinAddr: 0x100019730, symSize: 0x30 }
  - { offsetInCU: 0x6E627, offset: 0x6E627, size: 0x8, addend: 0x0, symName: __ZNSt3__114pointer_traitsINS_11__wrap_iterIP3HitEEE10to_addressB7v160006ES4_, symObjAddr: 0x187EC, symBinAddr: 0x100019760, symSize: 0x2C }
  - { offsetInCU: 0x6E64B, offset: 0x6E64B, size: 0x8, addend: 0x0, symName: __ZNSt3__16vectorIdNS_9allocatorIdEEE9__end_capB7v160006Ev, symObjAddr: 0x18818, symBinAddr: 0x10001978C, symSize: 0x28 }
  - { offsetInCU: 0x6E671, offset: 0x6E671, size: 0x8, addend: 0x0, symName: __ZNSt3__16vectorIdNS_9allocatorIdEEE22__construct_one_at_endB7v160006IJRKdEEEvDpOT_, symObjAddr: 0x18840, symBinAddr: 0x1000197B4, symSize: 0x90 }
  - { offsetInCU: 0x6E6C0, offset: 0x6E6C0, size: 0x8, addend: 0x0, symName: __ZNSt3__16vectorIdNS_9allocatorIdEEE21__push_back_slow_pathIRKdEEvOT_, symObjAddr: 0x188D0, symBinAddr: 0x100019844, symSize: 0xD8 }
  - { offsetInCU: 0x6E71E, offset: 0x6E71E, size: 0x8, addend: 0x0, symName: __ZNSt3__117__compressed_pairIPdNS_9allocatorIdEEE5firstB7v160006Ev, symObjAddr: 0x189A8, symBinAddr: 0x10001991C, symSize: 0x24 }
  - { offsetInCU: 0x6E744, offset: 0x6E744, size: 0x8, addend: 0x0, symName: __ZNSt3__122__compressed_pair_elemIPdLi0ELb0EE5__getB7v160006Ev, symObjAddr: 0x189CC, symBinAddr: 0x100019940, symSize: 0x14 }
  - { offsetInCU: 0x6E787, offset: 0x6E787, size: 0x8, addend: 0x0, symName: __ZNSt3__16vectorIdNS_9allocatorIdEEE21_ConstructTransactionC1B7v160006ERS3_m, symObjAddr: 0x189E0, symBinAddr: 0x100019954, symSize: 0x3C }
  - { offsetInCU: 0x6E7CF, offset: 0x6E7CF, size: 0x8, addend: 0x0, symName: __ZNSt3__116allocator_traitsINS_9allocatorIdEEE9constructB7v160006IdJRKdEvEEvRS2_PT_DpOT0_, symObjAddr: 0x18A1C, symBinAddr: 0x100019990, symSize: 0x34 }
  - { offsetInCU: 0x6E826, offset: 0x6E826, size: 0x8, addend: 0x0, symName: __ZNSt3__16vectorIdNS_9allocatorIdEEE21_ConstructTransactionD1B7v160006Ev, symObjAddr: 0x18A50, symBinAddr: 0x1000199C4, symSize: 0x2C }
  - { offsetInCU: 0x6E850, offset: 0x6E850, size: 0x8, addend: 0x0, symName: __ZNSt3__16vectorIdNS_9allocatorIdEEE21_ConstructTransactionC2B7v160006ERS3_m, symObjAddr: 0x18A7C, symBinAddr: 0x1000199F0, symSize: 0x44 }
  - { offsetInCU: 0x6E898, offset: 0x6E898, size: 0x8, addend: 0x0, symName: __ZNSt3__19allocatorIdE9constructB7v160006IdJRKdEEEvPT_DpOT0_, symObjAddr: 0x18AC0, symBinAddr: 0x100019A34, symSize: 0x28 }
  - { offsetInCU: 0x6E8EE, offset: 0x6E8EE, size: 0x8, addend: 0x0, symName: __ZNSt3__16vectorIdNS_9allocatorIdEEE21_ConstructTransactionD2B7v160006Ev, symObjAddr: 0x18AE8, symBinAddr: 0x100019A5C, symSize: 0x20 }
  - { offsetInCU: 0x6E918, offset: 0x6E918, size: 0x8, addend: 0x0, symName: __ZNKSt3__16vectorIdNS_9allocatorIdEEE11__recommendB7v160006Em, symObjAddr: 0x18B08, symBinAddr: 0x100019A7C, symSize: 0xB4 }
  - { offsetInCU: 0x6E96D, offset: 0x6E96D, size: 0x8, addend: 0x0, symName: __ZNSt3__114__split_bufferIdRNS_9allocatorIdEEEC1EmmS3_, symObjAddr: 0x18BBC, symBinAddr: 0x100019B30, symSize: 0x44 }
  - { offsetInCU: 0x6E9C3, offset: 0x6E9C3, size: 0x8, addend: 0x0, symName: __ZNSt3__114__split_bufferIdRNS_9allocatorIdEEED1Ev, symObjAddr: 0x18D18, symBinAddr: 0x100019C8C, symSize: 0x2C }
  - { offsetInCU: 0x6E9EF, offset: 0x6E9EF, size: 0x8, addend: 0x0, symName: __ZNKSt3__16vectorIdNS_9allocatorIdEEE8max_sizeEv, symObjAddr: 0x18D44, symBinAddr: 0x100019CB8, symSize: 0x60 }
  - { offsetInCU: 0x6EA17, offset: 0x6EA17, size: 0x8, addend: 0x0, symName: __ZNKSt3__16vectorIdNS_9allocatorIdEEE20__throw_length_errorB7v160006Ev, symObjAddr: 0x18DA4, symBinAddr: 0x100019D18, symSize: 0x1C }
  - { offsetInCU: 0x6EA49, offset: 0x6EA49, size: 0x8, addend: 0x0, symName: __ZNSt3__116allocator_traitsINS_9allocatorIdEEE8max_sizeB7v160006IS2_vEEmRKS2_, symObjAddr: 0x18DC0, symBinAddr: 0x100019D34, symSize: 0x24 }
  - { offsetInCU: 0x6EA77, offset: 0x6EA77, size: 0x8, addend: 0x0, symName: __ZNKSt3__16vectorIdNS_9allocatorIdEEE7__allocB7v160006Ev, symObjAddr: 0x18DE4, symBinAddr: 0x100019D58, symSize: 0x28 }
  - { offsetInCU: 0x6EA9D, offset: 0x6EA9D, size: 0x8, addend: 0x0, symName: __ZNKSt3__19allocatorIdE8max_sizeB7v160006Ev, symObjAddr: 0x18E0C, symBinAddr: 0x100019D80, symSize: 0x14 }
  - { offsetInCU: 0x6EAC3, offset: 0x6EAC3, size: 0x8, addend: 0x0, symName: __ZNKSt3__117__compressed_pairIPdNS_9allocatorIdEEE6secondB7v160006Ev, symObjAddr: 0x18E20, symBinAddr: 0x100019D94, symSize: 0x24 }
  - { offsetInCU: 0x6EAE9, offset: 0x6EAE9, size: 0x8, addend: 0x0, symName: __ZNKSt3__122__compressed_pair_elemINS_9allocatorIdEELi1ELb1EE5__getB7v160006Ev, symObjAddr: 0x18E44, symBinAddr: 0x100019DB8, symSize: 0x14 }
  - { offsetInCU: 0x6EB0F, offset: 0x6EB0F, size: 0x8, addend: 0x0, symName: __ZNSt3__114__split_bufferIdRNS_9allocatorIdEEEC2EmmS3_, symObjAddr: 0x18E58, symBinAddr: 0x100019DCC, symSize: 0xD4 }
  - { offsetInCU: 0x6EB82, offset: 0x6EB82, size: 0x8, addend: 0x0, symName: __ZNSt3__117__compressed_pairIPdRNS_9allocatorIdEEEC1B7v160006IDnS4_EEOT_OT0_, symObjAddr: 0x18F2C, symBinAddr: 0x100019EA0, symSize: 0x3C }
  - { offsetInCU: 0x6EBDA, offset: 0x6EBDA, size: 0x8, addend: 0x0, symName: __ZNSt3__114__split_bufferIdRNS_9allocatorIdEEE7__allocB7v160006Ev, symObjAddr: 0x18FA8, symBinAddr: 0x100019F1C, symSize: 0x28 }
  - { offsetInCU: 0x6EC00, offset: 0x6EC00, size: 0x8, addend: 0x0, symName: __ZNSt3__114__split_bufferIdRNS_9allocatorIdEEE9__end_capB7v160006Ev, symObjAddr: 0x18FD0, symBinAddr: 0x100019F44, symSize: 0x28 }
  - { offsetInCU: 0x6EC26, offset: 0x6EC26, size: 0x8, addend: 0x0, symName: __ZNSt3__117__compressed_pairIPdRNS_9allocatorIdEEEC2B7v160006IDnS4_EEOT_OT0_, symObjAddr: 0x18FF8, symBinAddr: 0x100019F6C, symSize: 0x48 }
  - { offsetInCU: 0x6EC7E, offset: 0x6EC7E, size: 0x8, addend: 0x0, symName: __ZNSt3__122__compressed_pair_elemIRNS_9allocatorIdEELi1ELb0EEC2B7v160006IS3_vEEOT_, symObjAddr: 0x19040, symBinAddr: 0x100019FB4, symSize: 0x20 }
  - { offsetInCU: 0x6ECC0, offset: 0x6ECC0, size: 0x8, addend: 0x0, symName: __ZNSt3__19allocatorIdE8allocateB7v160006Em, symObjAddr: 0x19060, symBinAddr: 0x100019FD4, symSize: 0x58 }
  - { offsetInCU: 0x6ECF4, offset: 0x6ECF4, size: 0x8, addend: 0x0, symName: __ZNSt3__117__compressed_pairIPdRNS_9allocatorIdEEE6secondB7v160006Ev, symObjAddr: 0x190B8, symBinAddr: 0x10001A02C, symSize: 0x28 }
  - { offsetInCU: 0x6ED1A, offset: 0x6ED1A, size: 0x8, addend: 0x0, symName: __ZNSt3__122__compressed_pair_elemIRNS_9allocatorIdEELi1ELb0EE5__getB7v160006Ev, symObjAddr: 0x190E0, symBinAddr: 0x10001A054, symSize: 0x18 }
  - { offsetInCU: 0x6ED40, offset: 0x6ED40, size: 0x8, addend: 0x0, symName: __ZNSt3__117__compressed_pairIPdRNS_9allocatorIdEEE5firstB7v160006Ev, symObjAddr: 0x190F8, symBinAddr: 0x10001A06C, symSize: 0x24 }
  - { offsetInCU: 0x6ED66, offset: 0x6ED66, size: 0x8, addend: 0x0, symName: __ZNSt3__116reverse_iteratorIPdEC1B7v160006ES1_, symObjAddr: 0x19194, symBinAddr: 0x10001A108, symSize: 0x34 }
  - { offsetInCU: 0x6ED9E, offset: 0x6ED9E, size: 0x8, addend: 0x0, symName: __ZNKSt3__116reverse_iteratorIPdE4baseB7v160006Ev, symObjAddr: 0x191C8, symBinAddr: 0x10001A13C, symSize: 0x18 }
  - { offsetInCU: 0x6EDC4, offset: 0x6EDC4, size: 0x8, addend: 0x0, symName: __ZNKSt3__16vectorIdNS_9allocatorIdEEE14__annotate_newB7v160006Em, symObjAddr: 0x1921C, symBinAddr: 0x10001A190, symSize: 0xAC }
  - { offsetInCU: 0x6EE16, offset: 0x6EE16, size: 0x8, addend: 0x0, symName: __ZNKSt3__111__move_loopINS_17_ClassicAlgPolicyEEclB7v160006INS_16reverse_iteratorIPdEES6_S6_EENS_4pairIT_T1_EES8_T0_S9_, symObjAddr: 0x195C8, symBinAddr: 0x10001A53C, symSize: 0xA0 }
  - { offsetInCU: 0x6EE87, offset: 0x6EE87, size: 0x8, addend: 0x0, symName: __ZNSt3__18_IterOpsINS_17_ClassicAlgPolicyEE11__iter_moveB7v160006IRNS_16reverse_iteratorIPdEEEENS_9enable_ifIXsr12is_referenceIDTdeclsr3stdE7declvalIRT_EEEEE5valueEDTclsr3stdE4movedeclsr3stdE7declvalISA_EEEEE4typeEOS9_, symObjAddr: 0x197FC, symBinAddr: 0x10001A770, symSize: 0x28 }
  - { offsetInCU: 0x6EEB3, offset: 0x6EEB3, size: 0x8, addend: 0x0, symName: __ZNKSt3__116reverse_iteratorIPdEdeB7v160006Ev, symObjAddr: 0x19824, symBinAddr: 0x10001A798, symSize: 0x28 }
  - { offsetInCU: 0x6EEE7, offset: 0x6EEE7, size: 0x8, addend: 0x0, symName: __ZNSt3__116reverse_iteratorIPdEppB7v160006Ev, symObjAddr: 0x1984C, symBinAddr: 0x10001A7C0, symSize: 0x20 }
  - { offsetInCU: 0x6EF0D, offset: 0x6EF0D, size: 0x8, addend: 0x0, symName: __ZNSt3__18_IterOpsINS_17_ClassicAlgPolicyEE25__validate_iter_referenceB7v160006IRNS_16reverse_iteratorIPdEEEEvv, symObjAddr: 0x1986C, symBinAddr: 0x10001A7E0, symSize: 0x4 }
  - { offsetInCU: 0x6EF2B, offset: 0x6EF2B, size: 0x8, addend: 0x0, symName: __ZNSt3__118__unwrap_iter_implINS_16reverse_iteratorIPdEELb0EE8__unwrapB7v160006ES3_, symObjAddr: 0x19870, symBinAddr: 0x10001A7E4, symSize: 0x24 }
  - { offsetInCU: 0x6EF54, offset: 0x6EF54, size: 0x8, addend: 0x0, symName: __ZNSt3__14pairINS_16reverse_iteratorIPdEES3_EC1B7v160006IS3_S3_LPv0EEEOT_OT0_, symObjAddr: 0x19894, symBinAddr: 0x10001A808, symSize: 0x3C }
  - { offsetInCU: 0x6EFB2, offset: 0x6EFB2, size: 0x8, addend: 0x0, symName: __ZNSt3__14pairINS_16reverse_iteratorIPdEES3_EC2B7v160006IS3_S3_LPv0EEEOT_OT0_, symObjAddr: 0x198D0, symBinAddr: 0x10001A844, symSize: 0x34 }
  - { offsetInCU: 0x6F010, offset: 0x6F010, size: 0x8, addend: 0x0, symName: __ZNSt3__118__unwrap_iter_implINS_16reverse_iteratorIPdEELb0EE8__rewrapB7v160006ES3_S3_, symObjAddr: 0x19904, symBinAddr: 0x10001A878, symSize: 0x2C }
  - { offsetInCU: 0x6F03E, offset: 0x6F03E, size: 0x8, addend: 0x0, symName: __ZNSt3__116reverse_iteratorIPdEC2B7v160006ES1_, symObjAddr: 0x19930, symBinAddr: 0x10001A8A4, symSize: 0x28 }
  - { offsetInCU: 0x6F076, offset: 0x6F076, size: 0x8, addend: 0x0, symName: __ZNSt3__114__split_bufferIdRNS_9allocatorIdEEED2Ev, symObjAddr: 0x19958, symBinAddr: 0x10001A8CC, symSize: 0x8C }
  - { offsetInCU: 0x6F0A2, offset: 0x6F0A2, size: 0x8, addend: 0x0, symName: __ZNSt3__114__split_bufferIdRNS_9allocatorIdEEE5clearB7v160006Ev, symObjAddr: 0x199E4, symBinAddr: 0x10001A958, symSize: 0x28 }
  - { offsetInCU: 0x6F0C8, offset: 0x6F0C8, size: 0x8, addend: 0x0, symName: __ZNKSt3__114__split_bufferIdRNS_9allocatorIdEEE8capacityB7v160006Ev, symObjAddr: 0x19A0C, symBinAddr: 0x10001A980, symSize: 0x40 }
  - { offsetInCU: 0x6F0EE, offset: 0x6F0EE, size: 0x8, addend: 0x0, symName: __ZNSt3__114__split_bufferIdRNS_9allocatorIdEEE17__destruct_at_endB7v160006EPd, symObjAddr: 0x19A4C, symBinAddr: 0x10001A9C0, symSize: 0x2C }
  - { offsetInCU: 0x6F122, offset: 0x6F122, size: 0x8, addend: 0x0, symName: __ZNSt3__114__split_bufferIdRNS_9allocatorIdEEE17__destruct_at_endB7v160006EPdNS_17integral_constantIbLb0EEE, symObjAddr: 0x19A78, symBinAddr: 0x10001A9EC, symSize: 0x80 }
  - { offsetInCU: 0x6F163, offset: 0x6F163, size: 0x8, addend: 0x0, symName: __ZNKSt3__114__split_bufferIdRNS_9allocatorIdEEE9__end_capB7v160006Ev, symObjAddr: 0x19AF8, symBinAddr: 0x10001AA6C, symSize: 0x28 }
  - { offsetInCU: 0x6F189, offset: 0x6F189, size: 0x8, addend: 0x0, symName: __ZNKSt3__117__compressed_pairIPdRNS_9allocatorIdEEE5firstB7v160006Ev, symObjAddr: 0x19B20, symBinAddr: 0x10001AA94, symSize: 0x24 }
  - { offsetInCU: 0x6F1AF, offset: 0x6F1AF, size: 0x8, addend: 0x0, symName: __ZNSt3__16vectorIiNS_9allocatorIiEEE22__construct_one_at_endB7v160006IJRKiEEEvDpOT_, symObjAddr: 0x19B44, symBinAddr: 0x10001AAB8, symSize: 0x90 }
  - { offsetInCU: 0x6F1FE, offset: 0x6F1FE, size: 0x8, addend: 0x0, symName: __ZNSt3__16vectorIiNS_9allocatorIiEEE21__push_back_slow_pathIRKiEEvOT_, symObjAddr: 0x19BD4, symBinAddr: 0x10001AB48, symSize: 0xD8 }
  - { offsetInCU: 0x6F25C, offset: 0x6F25C, size: 0x8, addend: 0x0, symName: __ZNSt3__116allocator_traitsINS_9allocatorIiEEE9constructB7v160006IiJRKiEvEEvRS2_PT_DpOT0_, symObjAddr: 0x19CAC, symBinAddr: 0x10001AC20, symSize: 0x34 }
  - { offsetInCU: 0x6F2B3, offset: 0x6F2B3, size: 0x8, addend: 0x0, symName: __ZNSt3__19allocatorIiE9constructB7v160006IiJRKiEEEvPT_DpOT0_, symObjAddr: 0x19CE0, symBinAddr: 0x10001AC54, symSize: 0x28 }
  - { offsetInCU: 0x6F309, offset: 0x6F309, size: 0x8, addend: 0x0, symName: __ZN6TClass8GetClassIfEEPS_bb, symObjAddr: 0x19D08, symBinAddr: 0x10001AC7C, symSize: 0x40 }
  - { offsetInCU: 0x6F354, offset: 0x6F354, size: 0x8, addend: 0x0, symName: __ZN4ROOT8Internal20TClassGetClassHelperIfE8GetClassEbb, symObjAddr: 0x19D88, symBinAddr: 0x10001ACFC, symSize: 0x50 }
  - { offsetInCU: 0x6F387, offset: 0x6F387, size: 0x8, addend: 0x0, symName: __ZNSt3__16vectorI3HitNS_9allocatorIS1_EEE9__end_capB7v160006Ev, symObjAddr: 0x19DD8, symBinAddr: 0x10001AD4C, symSize: 0x28 }
  - { offsetInCU: 0x6F3AD, offset: 0x6F3AD, size: 0x8, addend: 0x0, symName: __ZNSt3__16vectorI3HitNS_9allocatorIS1_EEE22__construct_one_at_endB7v160006IJRfS6_S6_iEEEvDpOT_, symObjAddr: 0x19E00, symBinAddr: 0x10001AD74, symSize: 0xA8 }
  - { offsetInCU: 0x6F438, offset: 0x6F438, size: 0x8, addend: 0x0, symName: __ZNSt3__16vectorI3HitNS_9allocatorIS1_EEE24__emplace_back_slow_pathIJRfS6_S6_iEEEvDpOT_, symObjAddr: 0x19EA8, symBinAddr: 0x10001AE1C, symSize: 0xF0 }
  - { offsetInCU: 0x6F4D4, offset: 0x6F4D4, size: 0x8, addend: 0x0, symName: __ZNSt3__16vectorI3HitNS_9allocatorIS1_EEE4backB7v160006Ev, symObjAddr: 0x19F98, symBinAddr: 0x10001AF0C, symSize: 0x1C }
  - { offsetInCU: 0x6F4FA, offset: 0x6F4FA, size: 0x8, addend: 0x0, symName: __ZNSt3__117__compressed_pairIP3HitNS_9allocatorIS1_EEE5firstB7v160006Ev, symObjAddr: 0x19FB4, symBinAddr: 0x10001AF28, symSize: 0x24 }
  - { offsetInCU: 0x6F520, offset: 0x6F520, size: 0x8, addend: 0x0, symName: __ZNSt3__122__compressed_pair_elemIP3HitLi0ELb0EE5__getB7v160006Ev, symObjAddr: 0x19FD8, symBinAddr: 0x10001AF4C, symSize: 0x14 }
  - { offsetInCU: 0x6F563, offset: 0x6F563, size: 0x8, addend: 0x0, symName: __ZNSt3__16vectorI3HitNS_9allocatorIS1_EEE21_ConstructTransactionC1B7v160006ERS4_m, symObjAddr: 0x19FEC, symBinAddr: 0x10001AF60, symSize: 0x3C }
  - { offsetInCU: 0x6F5AB, offset: 0x6F5AB, size: 0x8, addend: 0x0, symName: __ZNSt3__116allocator_traitsINS_9allocatorI3HitEEE9constructB7v160006IS2_JRfS6_S6_iEvEEvRS3_PT_DpOT0_, symObjAddr: 0x1A028, symBinAddr: 0x10001AF9C, symSize: 0x4C }
  - { offsetInCU: 0x6F63E, offset: 0x6F63E, size: 0x8, addend: 0x0, symName: __ZNSt3__16vectorI3HitNS_9allocatorIS1_EEE21_ConstructTransactionD1B7v160006Ev, symObjAddr: 0x1A074, symBinAddr: 0x10001AFE8, symSize: 0x2C }
  - { offsetInCU: 0x6F668, offset: 0x6F668, size: 0x8, addend: 0x0, symName: __ZNSt3__16vectorI3HitNS_9allocatorIS1_EEE21_ConstructTransactionC2B7v160006ERS4_m, symObjAddr: 0x1A0A0, symBinAddr: 0x10001B014, symSize: 0x44 }
  - { offsetInCU: 0x6F6B0, offset: 0x6F6B0, size: 0x8, addend: 0x0, symName: __ZNSt3__19allocatorI3HitE9constructB7v160006IS1_JRfS4_S4_iEEEvPT_DpOT0_, symObjAddr: 0x1A0E4, symBinAddr: 0x10001B058, symSize: 0x5C }
  - { offsetInCU: 0x6F73F, offset: 0x6F73F, size: 0x8, addend: 0x0, symName: __ZN3HitC1Efffs, symObjAddr: 0x1A140, symBinAddr: 0x10001B0B4, symSize: 0x4C }
  - { offsetInCU: 0x6F7A1, offset: 0x6F7A1, size: 0x8, addend: 0x0, symName: __ZN3HitC2Efffs, symObjAddr: 0x1A18C, symBinAddr: 0x10001B100, symSize: 0x44 }
  - { offsetInCU: 0x6F803, offset: 0x6F803, size: 0x8, addend: 0x0, symName: __ZNSt3__16vectorI3HitNS_9allocatorIS1_EEE21_ConstructTransactionD2B7v160006Ev, symObjAddr: 0x1A1D0, symBinAddr: 0x10001B144, symSize: 0x20 }
  - { offsetInCU: 0x6F82D, offset: 0x6F82D, size: 0x8, addend: 0x0, symName: __ZNKSt3__16vectorI3HitNS_9allocatorIS1_EEE11__recommendB7v160006Em, symObjAddr: 0x1A1F0, symBinAddr: 0x10001B164, symSize: 0xB4 }
  - { offsetInCU: 0x6F882, offset: 0x6F882, size: 0x8, addend: 0x0, symName: __ZNSt3__114__split_bufferI3HitRNS_9allocatorIS1_EEEC1EmmS4_, symObjAddr: 0x1A2A4, symBinAddr: 0x10001B218, symSize: 0x44 }
  - { offsetInCU: 0x6F8D8, offset: 0x6F8D8, size: 0x8, addend: 0x0, symName: __ZNSt3__114__split_bufferI3HitRNS_9allocatorIS1_EEED1Ev, symObjAddr: 0x1A400, symBinAddr: 0x10001B374, symSize: 0x2C }
  - { offsetInCU: 0x6F904, offset: 0x6F904, size: 0x8, addend: 0x0, symName: __ZNKSt3__16vectorI3HitNS_9allocatorIS1_EEE8max_sizeEv, symObjAddr: 0x1A42C, symBinAddr: 0x10001B3A0, symSize: 0x60 }
  - { offsetInCU: 0x6F92C, offset: 0x6F92C, size: 0x8, addend: 0x0, symName: __ZNKSt3__16vectorI3HitNS_9allocatorIS1_EEE20__throw_length_errorB7v160006Ev, symObjAddr: 0x1A48C, symBinAddr: 0x10001B400, symSize: 0x1C }
  - { offsetInCU: 0x6F95E, offset: 0x6F95E, size: 0x8, addend: 0x0, symName: __ZNSt3__116allocator_traitsINS_9allocatorI3HitEEE8max_sizeB7v160006IS3_vEEmRKS3_, symObjAddr: 0x1A4A8, symBinAddr: 0x10001B41C, symSize: 0x24 }
  - { offsetInCU: 0x6F98C, offset: 0x6F98C, size: 0x8, addend: 0x0, symName: __ZNKSt3__16vectorI3HitNS_9allocatorIS1_EEE7__allocB7v160006Ev, symObjAddr: 0x1A4CC, symBinAddr: 0x10001B440, symSize: 0x28 }
  - { offsetInCU: 0x6F9B2, offset: 0x6F9B2, size: 0x8, addend: 0x0, symName: __ZNKSt3__19allocatorI3HitE8max_sizeB7v160006Ev, symObjAddr: 0x1A4F4, symBinAddr: 0x10001B468, symSize: 0x14 }
  - { offsetInCU: 0x6F9D8, offset: 0x6F9D8, size: 0x8, addend: 0x0, symName: __ZNKSt3__117__compressed_pairIP3HitNS_9allocatorIS1_EEE6secondB7v160006Ev, symObjAddr: 0x1A508, symBinAddr: 0x10001B47C, symSize: 0x24 }
  - { offsetInCU: 0x6F9FE, offset: 0x6F9FE, size: 0x8, addend: 0x0, symName: __ZNKSt3__122__compressed_pair_elemINS_9allocatorI3HitEELi1ELb1EE5__getB7v160006Ev, symObjAddr: 0x1A52C, symBinAddr: 0x10001B4A0, symSize: 0x14 }
  - { offsetInCU: 0x6FA24, offset: 0x6FA24, size: 0x8, addend: 0x0, symName: __ZNSt3__114__split_bufferI3HitRNS_9allocatorIS1_EEEC2EmmS4_, symObjAddr: 0x1A540, symBinAddr: 0x10001B4B4, symSize: 0xD4 }
  - { offsetInCU: 0x6FA97, offset: 0x6FA97, size: 0x8, addend: 0x0, symName: __ZNSt3__117__compressed_pairIP3HitRNS_9allocatorIS1_EEEC1B7v160006IDnS5_EEOT_OT0_, symObjAddr: 0x1A614, symBinAddr: 0x10001B588, symSize: 0x3C }
  - { offsetInCU: 0x6FAEF, offset: 0x6FAEF, size: 0x8, addend: 0x0, symName: __ZNSt3__114__split_bufferI3HitRNS_9allocatorIS1_EEE7__allocB7v160006Ev, symObjAddr: 0x1A690, symBinAddr: 0x10001B604, symSize: 0x28 }
  - { offsetInCU: 0x6FB15, offset: 0x6FB15, size: 0x8, addend: 0x0, symName: __ZNSt3__114__split_bufferI3HitRNS_9allocatorIS1_EEE9__end_capB7v160006Ev, symObjAddr: 0x1A6B8, symBinAddr: 0x10001B62C, symSize: 0x28 }
  - { offsetInCU: 0x6FB3B, offset: 0x6FB3B, size: 0x8, addend: 0x0, symName: __ZNSt3__117__compressed_pairIP3HitRNS_9allocatorIS1_EEEC2B7v160006IDnS5_EEOT_OT0_, symObjAddr: 0x1A6E0, symBinAddr: 0x10001B654, symSize: 0x48 }
  - { offsetInCU: 0x6FB93, offset: 0x6FB93, size: 0x8, addend: 0x0, symName: __ZNSt3__122__compressed_pair_elemIRNS_9allocatorI3HitEELi1ELb0EEC2B7v160006IS4_vEEOT_, symObjAddr: 0x1A728, symBinAddr: 0x10001B69C, symSize: 0x20 }
  - { offsetInCU: 0x6FBD5, offset: 0x6FBD5, size: 0x8, addend: 0x0, symName: __ZNSt3__19allocatorI3HitE8allocateB7v160006Em, symObjAddr: 0x1A748, symBinAddr: 0x10001B6BC, symSize: 0x58 }
  - { offsetInCU: 0x6FC09, offset: 0x6FC09, size: 0x8, addend: 0x0, symName: __ZNSt3__117__compressed_pairIP3HitRNS_9allocatorIS1_EEE6secondB7v160006Ev, symObjAddr: 0x1A7A0, symBinAddr: 0x10001B714, symSize: 0x28 }
  - { offsetInCU: 0x6FC2F, offset: 0x6FC2F, size: 0x8, addend: 0x0, symName: __ZNSt3__122__compressed_pair_elemIRNS_9allocatorI3HitEELi1ELb0EE5__getB7v160006Ev, symObjAddr: 0x1A7C8, symBinAddr: 0x10001B73C, symSize: 0x18 }
  - { offsetInCU: 0x6FC55, offset: 0x6FC55, size: 0x8, addend: 0x0, symName: __ZNSt3__117__compressed_pairIP3HitRNS_9allocatorIS1_EEE5firstB7v160006Ev, symObjAddr: 0x1A7E0, symBinAddr: 0x10001B754, symSize: 0x24 }
  - { offsetInCU: 0x6FC7B, offset: 0x6FC7B, size: 0x8, addend: 0x0, symName: __ZNSt3__116reverse_iteratorIP3HitEC1B7v160006ES2_, symObjAddr: 0x1A87C, symBinAddr: 0x10001B7F0, symSize: 0x34 }
  - { offsetInCU: 0x6FCB3, offset: 0x6FCB3, size: 0x8, addend: 0x0, symName: __ZNKSt3__116reverse_iteratorIP3HitE4baseB7v160006Ev, symObjAddr: 0x1A8B0, symBinAddr: 0x10001B824, symSize: 0x18 }
  - { offsetInCU: 0x6FCD9, offset: 0x6FCD9, size: 0x8, addend: 0x0, symName: __ZNKSt3__16vectorI3HitNS_9allocatorIS1_EEE14__annotate_newB7v160006Em, symObjAddr: 0x1A904, symBinAddr: 0x10001B878, symSize: 0xAC }
  - { offsetInCU: 0x6FD2B, offset: 0x6FD2B, size: 0x8, addend: 0x0, symName: __ZNKSt3__111__move_loopINS_17_ClassicAlgPolicyEEclB7v160006INS_16reverse_iteratorIP3HitEES7_S7_EENS_4pairIT_T1_EES9_T0_SA_, symObjAddr: 0x1ACA0, symBinAddr: 0x10001BC14, symSize: 0xA8 }
  - { offsetInCU: 0x6FD96, offset: 0x6FD96, size: 0x8, addend: 0x0, symName: __ZNSt3__18_IterOpsINS_17_ClassicAlgPolicyEE11__iter_moveB7v160006IRNS_16reverse_iteratorIP3HitEEEENS_9enable_ifIXsr12is_referenceIDTdeclsr3stdE7declvalIRT_EEEEE5valueEDTclsr3stdE4movedeclsr3stdE7declvalISB_EEEEE4typeEOSA_, symObjAddr: 0x1AEDC, symBinAddr: 0x10001BE50, symSize: 0x28 }
  - { offsetInCU: 0x6FDC2, offset: 0x6FDC2, size: 0x8, addend: 0x0, symName: __ZNKSt3__116reverse_iteratorIP3HitEdeB7v160006Ev, symObjAddr: 0x1AF04, symBinAddr: 0x10001BE78, symSize: 0x28 }
  - { offsetInCU: 0x6FDF6, offset: 0x6FDF6, size: 0x8, addend: 0x0, symName: __ZNSt3__116reverse_iteratorIP3HitEppB7v160006Ev, symObjAddr: 0x1AF2C, symBinAddr: 0x10001BEA0, symSize: 0x20 }
  - { offsetInCU: 0x6FE1C, offset: 0x6FE1C, size: 0x8, addend: 0x0, symName: __ZNSt3__18_IterOpsINS_17_ClassicAlgPolicyEE25__validate_iter_referenceB7v160006IRNS_16reverse_iteratorIP3HitEEEEvv, symObjAddr: 0x1AF4C, symBinAddr: 0x10001BEC0, symSize: 0x4 }
  - { offsetInCU: 0x6FE3A, offset: 0x6FE3A, size: 0x8, addend: 0x0, symName: __ZNSt3__118__unwrap_iter_implINS_16reverse_iteratorIP3HitEELb0EE8__unwrapB7v160006ES4_, symObjAddr: 0x1AF50, symBinAddr: 0x10001BEC4, symSize: 0x24 }
  - { offsetInCU: 0x6FE63, offset: 0x6FE63, size: 0x8, addend: 0x0, symName: __ZNSt3__14pairINS_16reverse_iteratorIP3HitEES4_EC1B7v160006IS4_S4_LPv0EEEOT_OT0_, symObjAddr: 0x1AF74, symBinAddr: 0x10001BEE8, symSize: 0x3C }
  - { offsetInCU: 0x6FEC1, offset: 0x6FEC1, size: 0x8, addend: 0x0, symName: __ZNSt3__14pairINS_16reverse_iteratorIP3HitEES4_EC2B7v160006IS4_S4_LPv0EEEOT_OT0_, symObjAddr: 0x1AFB0, symBinAddr: 0x10001BF24, symSize: 0x34 }
  - { offsetInCU: 0x6FF1F, offset: 0x6FF1F, size: 0x8, addend: 0x0, symName: __ZNSt3__118__unwrap_iter_implINS_16reverse_iteratorIP3HitEELb0EE8__rewrapB7v160006ES4_S4_, symObjAddr: 0x1AFE4, symBinAddr: 0x10001BF58, symSize: 0x2C }
  - { offsetInCU: 0x6FF4D, offset: 0x6FF4D, size: 0x8, addend: 0x0, symName: __ZNSt3__116reverse_iteratorIP3HitEC2B7v160006ES2_, symObjAddr: 0x1B010, symBinAddr: 0x10001BF84, symSize: 0x28 }
  - { offsetInCU: 0x6FF85, offset: 0x6FF85, size: 0x8, addend: 0x0, symName: __ZNSt3__114__split_bufferI3HitRNS_9allocatorIS1_EEED2Ev, symObjAddr: 0x1B038, symBinAddr: 0x10001BFAC, symSize: 0x8C }
  - { offsetInCU: 0x6FFB1, offset: 0x6FFB1, size: 0x8, addend: 0x0, symName: __ZNSt3__114__split_bufferI3HitRNS_9allocatorIS1_EEE5clearB7v160006Ev, symObjAddr: 0x1B0C4, symBinAddr: 0x10001C038, symSize: 0x28 }
  - { offsetInCU: 0x6FFD7, offset: 0x6FFD7, size: 0x8, addend: 0x0, symName: __ZNKSt3__114__split_bufferI3HitRNS_9allocatorIS1_EEE8capacityB7v160006Ev, symObjAddr: 0x1B0EC, symBinAddr: 0x10001C060, symSize: 0x40 }
  - { offsetInCU: 0x6FFFD, offset: 0x6FFFD, size: 0x8, addend: 0x0, symName: __ZNSt3__114__split_bufferI3HitRNS_9allocatorIS1_EEE17__destruct_at_endB7v160006EPS1_, symObjAddr: 0x1B12C, symBinAddr: 0x10001C0A0, symSize: 0x2C }
  - { offsetInCU: 0x70031, offset: 0x70031, size: 0x8, addend: 0x0, symName: __ZNSt3__114__split_bufferI3HitRNS_9allocatorIS1_EEE17__destruct_at_endB7v160006EPS1_NS_17integral_constantIbLb0EEE, symObjAddr: 0x1B158, symBinAddr: 0x10001C0CC, symSize: 0x80 }
  - { offsetInCU: 0x70072, offset: 0x70072, size: 0x8, addend: 0x0, symName: __ZNKSt3__114__split_bufferI3HitRNS_9allocatorIS1_EEE9__end_capB7v160006Ev, symObjAddr: 0x1B1D8, symBinAddr: 0x10001C14C, symSize: 0x28 }
  - { offsetInCU: 0x70098, offset: 0x70098, size: 0x8, addend: 0x0, symName: __ZNKSt3__117__compressed_pairIP3HitRNS_9allocatorIS1_EEE5firstB7v160006Ev, symObjAddr: 0x1B200, symBinAddr: 0x10001C174, symSize: 0x24 }
  - { offsetInCU: 0x700BE, offset: 0x700BE, size: 0x8, addend: 0x0, symName: __ZNSt3__16vectorIP4TH1FNS_9allocatorIS2_EEEC2B7v160006Ev, symObjAddr: 0x1B224, symBinAddr: 0x10001C198, symSize: 0x58 }
  - { offsetInCU: 0x700E8, offset: 0x700E8, size: 0x8, addend: 0x0, symName: __ZNSt3__117__compressed_pairIPP4TH1FNS_9allocatorIS2_EEEC1B7v160006IDnNS_18__default_init_tagEEEOT_OT0_, symObjAddr: 0x1B27C, symBinAddr: 0x10001C1F0, symSize: 0x3C }
  - { offsetInCU: 0x70140, offset: 0x70140, size: 0x8, addend: 0x0, symName: __ZNSt3__117__compressed_pairIPP4TH1FNS_9allocatorIS2_EEEC2B7v160006IDnNS_18__default_init_tagEEEOT_OT0_, symObjAddr: 0x1B2C8, symBinAddr: 0x10001C23C, symSize: 0x40 }
  - { offsetInCU: 0x70198, offset: 0x70198, size: 0x8, addend: 0x0, symName: __ZNSt3__122__compressed_pair_elemIPP4TH1FLi0ELb0EEC2B7v160006IDnvEEOT_, symObjAddr: 0x1B308, symBinAddr: 0x10001C27C, symSize: 0x1C }
  - { offsetInCU: 0x701DA, offset: 0x701DA, size: 0x8, addend: 0x0, symName: __ZNSt3__122__compressed_pair_elemINS_9allocatorIP4TH1FEELi1ELb1EEC2B7v160006ENS_18__default_init_tagE, symObjAddr: 0x1B324, symBinAddr: 0x10001C298, symSize: 0x2C }
  - { offsetInCU: 0x7020F, offset: 0x7020F, size: 0x8, addend: 0x0, symName: __ZNSt3__19allocatorIP4TH1FEC2B7v160006Ev, symObjAddr: 0x1B350, symBinAddr: 0x10001C2C4, symSize: 0x2C }
  - { offsetInCU: 0x70239, offset: 0x70239, size: 0x8, addend: 0x0, symName: __ZNSt3__116__non_trivial_ifILb1ENS_9allocatorIP4TH1FEEEC2B7v160006Ev, symObjAddr: 0x1B37C, symBinAddr: 0x10001C2F0, symSize: 0x14 }
  - { offsetInCU: 0x70263, offset: 0x70263, size: 0x8, addend: 0x0, symName: __ZNSt3__16vectorIP4TH1FNS_9allocatorIS2_EEED2B7v160006Ev, symObjAddr: 0x1B390, symBinAddr: 0x10001C304, symSize: 0x44 }
  - { offsetInCU: 0x7028D, offset: 0x7028D, size: 0x8, addend: 0x0, symName: __ZNSt3__16vectorIP4TH1FNS_9allocatorIS2_EEE16__destroy_vectorC1ERS5_, symObjAddr: 0x1B3D4, symBinAddr: 0x10001C348, symSize: 0x34 }
  - { offsetInCU: 0x702C6, offset: 0x702C6, size: 0x8, addend: 0x0, symName: __ZNSt3__16vectorIP4TH1FNS_9allocatorIS2_EEE16__destroy_vectorclB7v160006Ev, symObjAddr: 0x1B408, symBinAddr: 0x10001C37C, symSize: 0x9C }
  - { offsetInCU: 0x702EC, offset: 0x702EC, size: 0x8, addend: 0x0, symName: __ZNSt3__16vectorIP4TH1FNS_9allocatorIS2_EEE16__destroy_vectorC2ERS5_, symObjAddr: 0x1B4A4, symBinAddr: 0x10001C418, symSize: 0x20 }
  - { offsetInCU: 0x70325, offset: 0x70325, size: 0x8, addend: 0x0, symName: __ZNKSt3__16vectorIP4TH1FNS_9allocatorIS2_EEE17__annotate_deleteB7v160006Ev, symObjAddr: 0x1B4C4, symBinAddr: 0x10001C438, symSize: 0xB8 }
  - { offsetInCU: 0x7034B, offset: 0x7034B, size: 0x8, addend: 0x0, symName: __ZNSt3__16vectorIP4TH1FNS_9allocatorIS2_EEE7__clearB7v160006Ev, symObjAddr: 0x1B58C, symBinAddr: 0x10001C500, symSize: 0x28 }
  - { offsetInCU: 0x70371, offset: 0x70371, size: 0x8, addend: 0x0, symName: __ZNSt3__116allocator_traitsINS_9allocatorIP4TH1FEEE10deallocateB7v160006ERS4_PS3_m, symObjAddr: 0x1B5B4, symBinAddr: 0x10001C528, symSize: 0x34 }
  - { offsetInCU: 0x703B3, offset: 0x703B3, size: 0x8, addend: 0x0, symName: __ZNSt3__16vectorIP4TH1FNS_9allocatorIS2_EEE7__allocB7v160006Ev, symObjAddr: 0x1B5E8, symBinAddr: 0x10001C55C, symSize: 0x28 }
  - { offsetInCU: 0x703D9, offset: 0x703D9, size: 0x8, addend: 0x0, symName: __ZNKSt3__16vectorIP4TH1FNS_9allocatorIS2_EEE8capacityB7v160006Ev, symObjAddr: 0x1B610, symBinAddr: 0x10001C584, symSize: 0x40 }
  - { offsetInCU: 0x703FF, offset: 0x703FF, size: 0x8, addend: 0x0, symName: __ZNKSt3__16vectorIP4TH1FNS_9allocatorIS2_EEE31__annotate_contiguous_containerB7v160006EPKvS7_S7_S7_, symObjAddr: 0x1B650, symBinAddr: 0x10001C5C4, symSize: 0x20 }
  - { offsetInCU: 0x70451, offset: 0x70451, size: 0x8, addend: 0x0, symName: __ZNKSt3__16vectorIP4TH1FNS_9allocatorIS2_EEE4dataB7v160006Ev, symObjAddr: 0x1B670, symBinAddr: 0x10001C5E4, symSize: 0x28 }
  - { offsetInCU: 0x70477, offset: 0x70477, size: 0x8, addend: 0x0, symName: __ZNSt3__16vectorIP4TH1FNS_9allocatorIS2_EEE22__base_destruct_at_endB7v160006EPS2_, symObjAddr: 0x1B6AC, symBinAddr: 0x10001C620, symSize: 0x8C }
  - { offsetInCU: 0x704BB, offset: 0x704BB, size: 0x8, addend: 0x0, symName: __ZNSt3__116allocator_traitsINS_9allocatorIP4TH1FEEE7destroyB7v160006IS3_vEEvRS4_PT_, symObjAddr: 0x1B738, symBinAddr: 0x10001C6AC, symSize: 0x2C }
  - { offsetInCU: 0x704F8, offset: 0x704F8, size: 0x8, addend: 0x0, symName: __ZNSt3__19allocatorIP4TH1FE7destroyB7v160006EPS2_, symObjAddr: 0x1B764, symBinAddr: 0x10001C6D8, symSize: 0x14 }
  - { offsetInCU: 0x7052C, offset: 0x7052C, size: 0x8, addend: 0x0, symName: __ZNSt3__19allocatorIP4TH1FE10deallocateB7v160006EPS2_m, symObjAddr: 0x1B778, symBinAddr: 0x10001C6EC, symSize: 0x40 }
  - { offsetInCU: 0x7056E, offset: 0x7056E, size: 0x8, addend: 0x0, symName: __ZNSt3__117__compressed_pairIPP4TH1FNS_9allocatorIS2_EEE6secondB7v160006Ev, symObjAddr: 0x1B7B8, symBinAddr: 0x10001C72C, symSize: 0x24 }
  - { offsetInCU: 0x70594, offset: 0x70594, size: 0x8, addend: 0x0, symName: __ZNSt3__122__compressed_pair_elemINS_9allocatorIP4TH1FEELi1ELb1EE5__getB7v160006Ev, symObjAddr: 0x1B7DC, symBinAddr: 0x10001C750, symSize: 0x14 }
  - { offsetInCU: 0x705BA, offset: 0x705BA, size: 0x8, addend: 0x0, symName: __ZNKSt3__16vectorIP4TH1FNS_9allocatorIS2_EEE9__end_capB7v160006Ev, symObjAddr: 0x1B7F0, symBinAddr: 0x10001C764, symSize: 0x28 }
  - { offsetInCU: 0x705E0, offset: 0x705E0, size: 0x8, addend: 0x0, symName: __ZNKSt3__117__compressed_pairIPP4TH1FNS_9allocatorIS2_EEE5firstB7v160006Ev, symObjAddr: 0x1B818, symBinAddr: 0x10001C78C, symSize: 0x24 }
  - { offsetInCU: 0x70606, offset: 0x70606, size: 0x8, addend: 0x0, symName: __ZNKSt3__122__compressed_pair_elemIPP4TH1FLi0ELb0EE5__getB7v160006Ev, symObjAddr: 0x1B83C, symBinAddr: 0x10001C7B0, symSize: 0x14 }
  - { offsetInCU: 0x7062C, offset: 0x7062C, size: 0x8, addend: 0x0, symName: __ZNSt3__16vectorIP4TH1FNS_9allocatorIS2_EEE9__end_capB7v160006Ev, symObjAddr: 0x1B850, symBinAddr: 0x10001C7C4, symSize: 0x28 }
  - { offsetInCU: 0x70652, offset: 0x70652, size: 0x8, addend: 0x0, symName: __ZNSt3__16vectorIP4TH1FNS_9allocatorIS2_EEE22__construct_one_at_endB7v160006IJRKS2_EEEvDpOT_, symObjAddr: 0x1B878, symBinAddr: 0x10001C7EC, symSize: 0x90 }
  - { offsetInCU: 0x706A1, offset: 0x706A1, size: 0x8, addend: 0x0, symName: __ZNSt3__16vectorIP4TH1FNS_9allocatorIS2_EEE21__push_back_slow_pathIRKS2_EEvOT_, symObjAddr: 0x1B908, symBinAddr: 0x10001C87C, symSize: 0xD8 }
  - { offsetInCU: 0x706FF, offset: 0x706FF, size: 0x8, addend: 0x0, symName: __ZNSt3__117__compressed_pairIPP4TH1FNS_9allocatorIS2_EEE5firstB7v160006Ev, symObjAddr: 0x1B9E0, symBinAddr: 0x10001C954, symSize: 0x24 }
  - { offsetInCU: 0x70725, offset: 0x70725, size: 0x8, addend: 0x0, symName: __ZNSt3__122__compressed_pair_elemIPP4TH1FLi0ELb0EE5__getB7v160006Ev, symObjAddr: 0x1BA04, symBinAddr: 0x10001C978, symSize: 0x14 }
  - { offsetInCU: 0x70768, offset: 0x70768, size: 0x8, addend: 0x0, symName: __ZNSt3__16vectorIP4TH1FNS_9allocatorIS2_EEE21_ConstructTransactionC1B7v160006ERS5_m, symObjAddr: 0x1BA18, symBinAddr: 0x10001C98C, symSize: 0x3C }
  - { offsetInCU: 0x707B0, offset: 0x707B0, size: 0x8, addend: 0x0, symName: __ZNSt3__116allocator_traitsINS_9allocatorIP4TH1FEEE9constructB7v160006IS3_JRKS3_EvEEvRS4_PT_DpOT0_, symObjAddr: 0x1BA54, symBinAddr: 0x10001C9C8, symSize: 0x34 }
  - { offsetInCU: 0x70807, offset: 0x70807, size: 0x8, addend: 0x0, symName: __ZNSt3__16vectorIP4TH1FNS_9allocatorIS2_EEE21_ConstructTransactionD1B7v160006Ev, symObjAddr: 0x1BA88, symBinAddr: 0x10001C9FC, symSize: 0x2C }
  - { offsetInCU: 0x70831, offset: 0x70831, size: 0x8, addend: 0x0, symName: __ZNSt3__16vectorIP4TH1FNS_9allocatorIS2_EEE21_ConstructTransactionC2B7v160006ERS5_m, symObjAddr: 0x1BAB4, symBinAddr: 0x10001CA28, symSize: 0x44 }
  - { offsetInCU: 0x70879, offset: 0x70879, size: 0x8, addend: 0x0, symName: __ZNSt3__19allocatorIP4TH1FE9constructB7v160006IS2_JRKS2_EEEvPT_DpOT0_, symObjAddr: 0x1BAF8, symBinAddr: 0x10001CA6C, symSize: 0x28 }
  - { offsetInCU: 0x708CF, offset: 0x708CF, size: 0x8, addend: 0x0, symName: __ZNSt3__16vectorIP4TH1FNS_9allocatorIS2_EEE21_ConstructTransactionD2B7v160006Ev, symObjAddr: 0x1BB20, symBinAddr: 0x10001CA94, symSize: 0x20 }
  - { offsetInCU: 0x708F9, offset: 0x708F9, size: 0x8, addend: 0x0, symName: __ZNKSt3__16vectorIP4TH1FNS_9allocatorIS2_EEE11__recommendB7v160006Em, symObjAddr: 0x1BB40, symBinAddr: 0x10001CAB4, symSize: 0xB4 }
  - { offsetInCU: 0x7094E, offset: 0x7094E, size: 0x8, addend: 0x0, symName: __ZNSt3__114__split_bufferIP4TH1FRNS_9allocatorIS2_EEEC1EmmS5_, symObjAddr: 0x1BBF4, symBinAddr: 0x10001CB68, symSize: 0x44 }
  - { offsetInCU: 0x709A4, offset: 0x709A4, size: 0x8, addend: 0x0, symName: __ZNSt3__114__split_bufferIP4TH1FRNS_9allocatorIS2_EEED1Ev, symObjAddr: 0x1BD50, symBinAddr: 0x10001CCC4, symSize: 0x2C }
  - { offsetInCU: 0x709D0, offset: 0x709D0, size: 0x8, addend: 0x0, symName: __ZNKSt3__16vectorIP4TH1FNS_9allocatorIS2_EEE8max_sizeEv, symObjAddr: 0x1BD7C, symBinAddr: 0x10001CCF0, symSize: 0x60 }
  - { offsetInCU: 0x709F8, offset: 0x709F8, size: 0x8, addend: 0x0, symName: __ZNKSt3__16vectorIP4TH1FNS_9allocatorIS2_EEE20__throw_length_errorB7v160006Ev, symObjAddr: 0x1BDDC, symBinAddr: 0x10001CD50, symSize: 0x1C }
  - { offsetInCU: 0x70A2A, offset: 0x70A2A, size: 0x8, addend: 0x0, symName: __ZNSt3__116allocator_traitsINS_9allocatorIP4TH1FEEE8max_sizeB7v160006IS4_vEEmRKS4_, symObjAddr: 0x1BDF8, symBinAddr: 0x10001CD6C, symSize: 0x24 }
  - { offsetInCU: 0x70A58, offset: 0x70A58, size: 0x8, addend: 0x0, symName: __ZNKSt3__16vectorIP4TH1FNS_9allocatorIS2_EEE7__allocB7v160006Ev, symObjAddr: 0x1BE1C, symBinAddr: 0x10001CD90, symSize: 0x28 }
  - { offsetInCU: 0x70A7E, offset: 0x70A7E, size: 0x8, addend: 0x0, symName: __ZNKSt3__19allocatorIP4TH1FE8max_sizeB7v160006Ev, symObjAddr: 0x1BE44, symBinAddr: 0x10001CDB8, symSize: 0x14 }
  - { offsetInCU: 0x70AA4, offset: 0x70AA4, size: 0x8, addend: 0x0, symName: __ZNKSt3__117__compressed_pairIPP4TH1FNS_9allocatorIS2_EEE6secondB7v160006Ev, symObjAddr: 0x1BE58, symBinAddr: 0x10001CDCC, symSize: 0x24 }
  - { offsetInCU: 0x70ACA, offset: 0x70ACA, size: 0x8, addend: 0x0, symName: __ZNKSt3__122__compressed_pair_elemINS_9allocatorIP4TH1FEELi1ELb1EE5__getB7v160006Ev, symObjAddr: 0x1BE7C, symBinAddr: 0x10001CDF0, symSize: 0x14 }
  - { offsetInCU: 0x70AF0, offset: 0x70AF0, size: 0x8, addend: 0x0, symName: __ZNSt3__114__split_bufferIP4TH1FRNS_9allocatorIS2_EEEC2EmmS5_, symObjAddr: 0x1BE90, symBinAddr: 0x10001CE04, symSize: 0xD4 }
  - { offsetInCU: 0x70B63, offset: 0x70B63, size: 0x8, addend: 0x0, symName: __ZNSt3__117__compressed_pairIPP4TH1FRNS_9allocatorIS2_EEEC1B7v160006IDnS6_EEOT_OT0_, symObjAddr: 0x1BF64, symBinAddr: 0x10001CED8, symSize: 0x3C }
  - { offsetInCU: 0x70BBB, offset: 0x70BBB, size: 0x8, addend: 0x0, symName: __ZNSt3__114__split_bufferIP4TH1FRNS_9allocatorIS2_EEE7__allocB7v160006Ev, symObjAddr: 0x1BFE0, symBinAddr: 0x10001CF54, symSize: 0x28 }
  - { offsetInCU: 0x70BE1, offset: 0x70BE1, size: 0x8, addend: 0x0, symName: __ZNSt3__114__split_bufferIP4TH1FRNS_9allocatorIS2_EEE9__end_capB7v160006Ev, symObjAddr: 0x1C008, symBinAddr: 0x10001CF7C, symSize: 0x28 }
  - { offsetInCU: 0x70C07, offset: 0x70C07, size: 0x8, addend: 0x0, symName: __ZNSt3__117__compressed_pairIPP4TH1FRNS_9allocatorIS2_EEEC2B7v160006IDnS6_EEOT_OT0_, symObjAddr: 0x1C030, symBinAddr: 0x10001CFA4, symSize: 0x48 }
  - { offsetInCU: 0x70C5F, offset: 0x70C5F, size: 0x8, addend: 0x0, symName: __ZNSt3__122__compressed_pair_elemIRNS_9allocatorIP4TH1FEELi1ELb0EEC2B7v160006IS5_vEEOT_, symObjAddr: 0x1C078, symBinAddr: 0x10001CFEC, symSize: 0x20 }
  - { offsetInCU: 0x70CA1, offset: 0x70CA1, size: 0x8, addend: 0x0, symName: __ZNSt3__19allocatorIP4TH1FE8allocateB7v160006Em, symObjAddr: 0x1C098, symBinAddr: 0x10001D00C, symSize: 0x58 }
  - { offsetInCU: 0x70CD5, offset: 0x70CD5, size: 0x8, addend: 0x0, symName: __ZNSt3__117__compressed_pairIPP4TH1FRNS_9allocatorIS2_EEE6secondB7v160006Ev, symObjAddr: 0x1C0F0, symBinAddr: 0x10001D064, symSize: 0x28 }
  - { offsetInCU: 0x70CFB, offset: 0x70CFB, size: 0x8, addend: 0x0, symName: __ZNSt3__122__compressed_pair_elemIRNS_9allocatorIP4TH1FEELi1ELb0EE5__getB7v160006Ev, symObjAddr: 0x1C118, symBinAddr: 0x10001D08C, symSize: 0x18 }
  - { offsetInCU: 0x70D21, offset: 0x70D21, size: 0x8, addend: 0x0, symName: __ZNSt3__117__compressed_pairIPP4TH1FRNS_9allocatorIS2_EEE5firstB7v160006Ev, symObjAddr: 0x1C130, symBinAddr: 0x10001D0A4, symSize: 0x24 }
  - { offsetInCU: 0x70D47, offset: 0x70D47, size: 0x8, addend: 0x0, symName: __ZNSt3__116reverse_iteratorIPP4TH1FEC1B7v160006ES3_, symObjAddr: 0x1C1CC, symBinAddr: 0x10001D140, symSize: 0x34 }
  - { offsetInCU: 0x70D7F, offset: 0x70D7F, size: 0x8, addend: 0x0, symName: __ZNKSt3__116reverse_iteratorIPP4TH1FE4baseB7v160006Ev, symObjAddr: 0x1C200, symBinAddr: 0x10001D174, symSize: 0x18 }
  - { offsetInCU: 0x70DA5, offset: 0x70DA5, size: 0x8, addend: 0x0, symName: __ZNKSt3__16vectorIP4TH1FNS_9allocatorIS2_EEE14__annotate_newB7v160006Em, symObjAddr: 0x1C254, symBinAddr: 0x10001D1C8, symSize: 0xAC }
  - { offsetInCU: 0x70DF7, offset: 0x70DF7, size: 0x8, addend: 0x0, symName: __ZNKSt3__111__move_loopINS_17_ClassicAlgPolicyEEclB7v160006INS_16reverse_iteratorIPP4TH1FEES8_S8_EENS_4pairIT_T1_EESA_T0_SB_, symObjAddr: 0x1C600, symBinAddr: 0x10001D574, symSize: 0xA0 }
  - { offsetInCU: 0x70E68, offset: 0x70E68, size: 0x8, addend: 0x0, symName: __ZNSt3__18_IterOpsINS_17_ClassicAlgPolicyEE11__iter_moveB7v160006IRNS_16reverse_iteratorIPP4TH1FEEEENS_9enable_ifIXsr12is_referenceIDTdeclsr3stdE7declvalIRT_EEEEE5valueEDTclsr3stdE4movedeclsr3stdE7declvalISC_EEEEE4typeEOSB_, symObjAddr: 0x1C834, symBinAddr: 0x10001D7A8, symSize: 0x28 }
  - { offsetInCU: 0x70E94, offset: 0x70E94, size: 0x8, addend: 0x0, symName: __ZNKSt3__116reverse_iteratorIPP4TH1FEdeB7v160006Ev, symObjAddr: 0x1C85C, symBinAddr: 0x10001D7D0, symSize: 0x28 }
  - { offsetInCU: 0x70EC8, offset: 0x70EC8, size: 0x8, addend: 0x0, symName: __ZNSt3__116reverse_iteratorIPP4TH1FEppB7v160006Ev, symObjAddr: 0x1C884, symBinAddr: 0x10001D7F8, symSize: 0x20 }
  - { offsetInCU: 0x70EEE, offset: 0x70EEE, size: 0x8, addend: 0x0, symName: __ZNSt3__18_IterOpsINS_17_ClassicAlgPolicyEE25__validate_iter_referenceB7v160006IRNS_16reverse_iteratorIPP4TH1FEEEEvv, symObjAddr: 0x1C8A4, symBinAddr: 0x10001D818, symSize: 0x4 }
  - { offsetInCU: 0x70F0C, offset: 0x70F0C, size: 0x8, addend: 0x0, symName: __ZNSt3__118__unwrap_iter_implINS_16reverse_iteratorIPP4TH1FEELb0EE8__unwrapB7v160006ES5_, symObjAddr: 0x1C8A8, symBinAddr: 0x10001D81C, symSize: 0x24 }
  - { offsetInCU: 0x70F35, offset: 0x70F35, size: 0x8, addend: 0x0, symName: __ZNSt3__14pairINS_16reverse_iteratorIPP4TH1FEES5_EC1B7v160006IS5_S5_LPv0EEEOT_OT0_, symObjAddr: 0x1C8CC, symBinAddr: 0x10001D840, symSize: 0x3C }
  - { offsetInCU: 0x70F93, offset: 0x70F93, size: 0x8, addend: 0x0, symName: __ZNSt3__14pairINS_16reverse_iteratorIPP4TH1FEES5_EC2B7v160006IS5_S5_LPv0EEEOT_OT0_, symObjAddr: 0x1C908, symBinAddr: 0x10001D87C, symSize: 0x34 }
  - { offsetInCU: 0x70FF1, offset: 0x70FF1, size: 0x8, addend: 0x0, symName: __ZNSt3__118__unwrap_iter_implINS_16reverse_iteratorIPP4TH1FEELb0EE8__rewrapB7v160006ES5_S5_, symObjAddr: 0x1C93C, symBinAddr: 0x10001D8B0, symSize: 0x2C }
  - { offsetInCU: 0x7101F, offset: 0x7101F, size: 0x8, addend: 0x0, symName: __ZNSt3__116reverse_iteratorIPP4TH1FEC2B7v160006ES3_, symObjAddr: 0x1C968, symBinAddr: 0x10001D8DC, symSize: 0x28 }
  - { offsetInCU: 0x71057, offset: 0x71057, size: 0x8, addend: 0x0, symName: __ZNSt3__114__split_bufferIP4TH1FRNS_9allocatorIS2_EEED2Ev, symObjAddr: 0x1C990, symBinAddr: 0x10001D904, symSize: 0x8C }
  - { offsetInCU: 0x71083, offset: 0x71083, size: 0x8, addend: 0x0, symName: __ZNSt3__114__split_bufferIP4TH1FRNS_9allocatorIS2_EEE5clearB7v160006Ev, symObjAddr: 0x1CA1C, symBinAddr: 0x10001D990, symSize: 0x28 }
  - { offsetInCU: 0x710A9, offset: 0x710A9, size: 0x8, addend: 0x0, symName: __ZNKSt3__114__split_bufferIP4TH1FRNS_9allocatorIS2_EEE8capacityB7v160006Ev, symObjAddr: 0x1CA44, symBinAddr: 0x10001D9B8, symSize: 0x40 }
  - { offsetInCU: 0x710CF, offset: 0x710CF, size: 0x8, addend: 0x0, symName: __ZNSt3__114__split_bufferIP4TH1FRNS_9allocatorIS2_EEE17__destruct_at_endB7v160006EPS2_, symObjAddr: 0x1CA84, symBinAddr: 0x10001D9F8, symSize: 0x2C }
  - { offsetInCU: 0x71103, offset: 0x71103, size: 0x8, addend: 0x0, symName: __ZNSt3__114__split_bufferIP4TH1FRNS_9allocatorIS2_EEE17__destruct_at_endB7v160006EPS2_NS_17integral_constantIbLb0EEE, symObjAddr: 0x1CAB0, symBinAddr: 0x10001DA24, symSize: 0x80 }
  - { offsetInCU: 0x71144, offset: 0x71144, size: 0x8, addend: 0x0, symName: __ZNKSt3__114__split_bufferIP4TH1FRNS_9allocatorIS2_EEE9__end_capB7v160006Ev, symObjAddr: 0x1CB30, symBinAddr: 0x10001DAA4, symSize: 0x28 }
  - { offsetInCU: 0x7116A, offset: 0x7116A, size: 0x8, addend: 0x0, symName: __ZNKSt3__117__compressed_pairIPP4TH1FRNS_9allocatorIS2_EEE5firstB7v160006Ev, symObjAddr: 0x1CB58, symBinAddr: 0x10001DACC, symSize: 0x24 }
  - { offsetInCU: 0x711AC, offset: 0x711AC, size: 0x8, addend: 0x0, symName: __ZNKSt3__113basic_ostreamIcNS_11char_traitsIcEEE6sentrycvbB7v160006Ev, symObjAddr: 0x1CD68, symBinAddr: 0x10001DCDC, symSize: 0x1C }
  - { offsetInCU: 0x711D2, offset: 0x711D2, size: 0x8, addend: 0x0, symName: __ZNSt3__119ostreambuf_iteratorIcNS_11char_traitsIcEEEC1B7v160006ERNS_13basic_ostreamIcS2_EE, symObjAddr: 0x1CFC4, symBinAddr: 0x10001DF38, symSize: 0x34 }
  - { offsetInCU: 0x7120A, offset: 0x7120A, size: 0x8, addend: 0x0, symName: __ZNKSt3__18ios_base5flagsB7v160006Ev, symObjAddr: 0x1CFF8, symBinAddr: 0x10001DF6C, symSize: 0x18 }
  - { offsetInCU: 0x71232, offset: 0x71232, size: 0x8, addend: 0x0, symName: __ZNKSt3__19basic_iosIcNS_11char_traitsIcEEE4fillB7v160006Ev, symObjAddr: 0x1D010, symBinAddr: 0x10001DF84, symSize: 0x64 }
  - { offsetInCU: 0x7125A, offset: 0x7125A, size: 0x8, addend: 0x0, symName: __ZNKSt3__119ostreambuf_iteratorIcNS_11char_traitsIcEEE6failedB7v160006Ev, symObjAddr: 0x1D074, symBinAddr: 0x10001DFE8, symSize: 0x24 }
  - { offsetInCU: 0x71280, offset: 0x71280, size: 0x8, addend: 0x0, symName: __ZNSt3__19basic_iosIcNS_11char_traitsIcEEE8setstateB7v160006Ej, symObjAddr: 0x1D098, symBinAddr: 0x10001E00C, symSize: 0x2C }
  - { offsetInCU: 0x712B5, offset: 0x712B5, size: 0x8, addend: 0x0, symName: __ZNKSt3__18ios_base5widthB7v160006Ev, symObjAddr: 0x1D0C4, symBinAddr: 0x10001E038, symSize: 0x18 }
  - { offsetInCU: 0x712DD, offset: 0x712DD, size: 0x8, addend: 0x0, symName: __ZNSt3__115basic_streambufIcNS_11char_traitsIcEEE5sputnB7v160006EPKcl, symObjAddr: 0x1D0DC, symBinAddr: 0x10001E050, symSize: 0x3C }
  - { offsetInCU: 0x7131F, offset: 0x7131F, size: 0x8, addend: 0x0, symName: __ZNSt3__112basic_stringIcNS_11char_traitsIcEENS_9allocatorIcEEEC1B7v160006Emc, symObjAddr: 0x1D118, symBinAddr: 0x10001E08C, symSize: 0x3C }
  - { offsetInCU: 0x71367, offset: 0x71367, size: 0x8, addend: 0x0, symName: __ZNSt3__112basic_stringIcNS_11char_traitsIcEENS_9allocatorIcEEE4dataB7v160006Ev, symObjAddr: 0x1D154, symBinAddr: 0x10001E0C8, symSize: 0x28 }
  - { offsetInCU: 0x7138D, offset: 0x7138D, size: 0x8, addend: 0x0, symName: __ZNSt3__18ios_base5widthB7v160006El, symObjAddr: 0x1D17C, symBinAddr: 0x10001E0F0, symSize: 0x2C }
  - { offsetInCU: 0x713D3, offset: 0x713D3, size: 0x8, addend: 0x0, symName: __ZNSt3__112basic_stringIcNS_11char_traitsIcEENS_9allocatorIcEEEC2B7v160006Emc, symObjAddr: 0x1D1A8, symBinAddr: 0x10001E11C, symSize: 0x54 }
  - { offsetInCU: 0x7141B, offset: 0x7141B, size: 0x8, addend: 0x0, symName: __ZNSt3__112basic_stringIcNS_11char_traitsIcEENS_9allocatorIcEEE13__get_pointerB7v160006Ev, symObjAddr: 0x1D210, symBinAddr: 0x10001E184, symSize: 0x54 }
  - { offsetInCU: 0x71441, offset: 0x71441, size: 0x8, addend: 0x0, symName: __ZNSt3__112basic_stringIcNS_11char_traitsIcEENS_9allocatorIcEEE18__get_long_pointerB7v160006Ev, symObjAddr: 0x1D264, symBinAddr: 0x10001E1D8, symSize: 0x28 }
  - { offsetInCU: 0x71467, offset: 0x71467, size: 0x8, addend: 0x0, symName: __ZNSt3__112basic_stringIcNS_11char_traitsIcEENS_9allocatorIcEEE19__get_short_pointerB7v160006Ev, symObjAddr: 0x1D28C, symBinAddr: 0x10001E200, symSize: 0x28 }
  - { offsetInCU: 0x7148D, offset: 0x7148D, size: 0x8, addend: 0x0, symName: __ZNSt3__114pointer_traitsIPcE10pointer_toB7v160006ERc, symObjAddr: 0x1D2B4, symBinAddr: 0x10001E228, symSize: 0x14 }
  - { offsetInCU: 0x714B0, offset: 0x714B0, size: 0x8, addend: 0x0, symName: __ZNSt3__119ostreambuf_iteratorIcNS_11char_traitsIcEEEC2B7v160006ERNS_13basic_ostreamIcS2_EE, symObjAddr: 0x1D2C8, symBinAddr: 0x10001E23C, symSize: 0x54 }
  - { offsetInCU: 0x714E8, offset: 0x714E8, size: 0x8, addend: 0x0, symName: __ZNKSt3__19basic_iosIcNS_11char_traitsIcEEE5rdbufB7v160006Ev, symObjAddr: 0x1D31C, symBinAddr: 0x10001E290, symSize: 0x24 }
  - { offsetInCU: 0x71510, offset: 0x71510, size: 0x8, addend: 0x0, symName: __ZNKSt3__18ios_base5rdbufB7v160006Ev, symObjAddr: 0x1D340, symBinAddr: 0x10001E2B4, symSize: 0x18 }
  - { offsetInCU: 0x71536, offset: 0x71536, size: 0x8, addend: 0x0, symName: __ZNSt3__111char_traitsIcE11eq_int_typeEii, symObjAddr: 0x1D358, symBinAddr: 0x10001E2CC, symSize: 0x28 }
  - { offsetInCU: 0x71567, offset: 0x71567, size: 0x8, addend: 0x0, symName: __ZNSt3__111char_traitsIcE3eofEv, symObjAddr: 0x1D380, symBinAddr: 0x10001E2F4, symSize: 0x8 }
  - { offsetInCU: 0x7157B, offset: 0x7157B, size: 0x8, addend: 0x0, symName: __ZNKSt3__19basic_iosIcNS_11char_traitsIcEEE5widenB7v160006Ec, symObjAddr: 0x1D388, symBinAddr: 0x10001E2FC, symSize: 0x84 }
  - { offsetInCU: 0x715E7, offset: 0x715E7, size: 0x8, addend: 0x0, symName: __ZNKSt3__15ctypeIcE5widenB7v160006Ec, symObjAddr: 0x1D438, symBinAddr: 0x10001E3AC, symSize: 0x38 }
  - { offsetInCU: 0x7161C, offset: 0x7161C, size: 0x8, addend: 0x0, symName: __ZNSt3__18ios_base8setstateB7v160006Ej, symObjAddr: 0x1D470, symBinAddr: 0x10001E3E4, symSize: 0x34 }
  - { offsetInCU: 0x71653, offset: 0x71653, size: 0x8, addend: 0x0, symName: __ZNSt3__16vectorIfNS_9allocatorIfEEEC2B7v160006Ev, symObjAddr: 0x1D4A4, symBinAddr: 0x10001E418, symSize: 0x58 }
  - { offsetInCU: 0x7167D, offset: 0x7167D, size: 0x8, addend: 0x0, symName: __ZNSt3__117__compressed_pairIPfNS_9allocatorIfEEEC1B7v160006IDnNS_18__default_init_tagEEEOT_OT0_, symObjAddr: 0x1D4FC, symBinAddr: 0x10001E470, symSize: 0x3C }
  - { offsetInCU: 0x716D5, offset: 0x716D5, size: 0x8, addend: 0x0, symName: __ZNSt3__117__compressed_pairIPfNS_9allocatorIfEEEC2B7v160006IDnNS_18__default_init_tagEEEOT_OT0_, symObjAddr: 0x1D548, symBinAddr: 0x10001E4BC, symSize: 0x40 }
  - { offsetInCU: 0x7172D, offset: 0x7172D, size: 0x8, addend: 0x0, symName: __ZNSt3__122__compressed_pair_elemIPfLi0ELb0EEC2B7v160006IDnvEEOT_, symObjAddr: 0x1D588, symBinAddr: 0x10001E4FC, symSize: 0x1C }
  - { offsetInCU: 0x7176F, offset: 0x7176F, size: 0x8, addend: 0x0, symName: __ZNSt3__122__compressed_pair_elemINS_9allocatorIfEELi1ELb1EEC2B7v160006ENS_18__default_init_tagE, symObjAddr: 0x1D5A4, symBinAddr: 0x10001E518, symSize: 0x2C }
  - { offsetInCU: 0x717A4, offset: 0x717A4, size: 0x8, addend: 0x0, symName: __ZNSt3__19allocatorIfEC2B7v160006Ev, symObjAddr: 0x1D5D0, symBinAddr: 0x10001E544, symSize: 0x2C }
  - { offsetInCU: 0x717CE, offset: 0x717CE, size: 0x8, addend: 0x0, symName: __ZNSt3__116__non_trivial_ifILb1ENS_9allocatorIfEEEC2B7v160006Ev, symObjAddr: 0x1D5FC, symBinAddr: 0x10001E570, symSize: 0x14 }
  - { offsetInCU: 0x717F8, offset: 0x717F8, size: 0x8, addend: 0x0, symName: __ZNSt3__16vectorIfNS_9allocatorIfEEED2B7v160006Ev, symObjAddr: 0x1D610, symBinAddr: 0x10001E584, symSize: 0x44 }
  - { offsetInCU: 0x71822, offset: 0x71822, size: 0x8, addend: 0x0, symName: __ZNSt3__16vectorIfNS_9allocatorIfEEE16__destroy_vectorC1ERS3_, symObjAddr: 0x1D654, symBinAddr: 0x10001E5C8, symSize: 0x34 }
  - { offsetInCU: 0x7185B, offset: 0x7185B, size: 0x8, addend: 0x0, symName: __ZNSt3__16vectorIfNS_9allocatorIfEEE16__destroy_vectorclB7v160006Ev, symObjAddr: 0x1D688, symBinAddr: 0x10001E5FC, symSize: 0x9C }
  - { offsetInCU: 0x71881, offset: 0x71881, size: 0x8, addend: 0x0, symName: __ZNSt3__16vectorIfNS_9allocatorIfEEE16__destroy_vectorC2ERS3_, symObjAddr: 0x1D724, symBinAddr: 0x10001E698, symSize: 0x20 }
  - { offsetInCU: 0x718BA, offset: 0x718BA, size: 0x8, addend: 0x0, symName: __ZNKSt3__16vectorIfNS_9allocatorIfEEE17__annotate_deleteB7v160006Ev, symObjAddr: 0x1D744, symBinAddr: 0x10001E6B8, symSize: 0xB8 }
  - { offsetInCU: 0x718E0, offset: 0x718E0, size: 0x8, addend: 0x0, symName: __ZNSt3__16vectorIfNS_9allocatorIfEEE7__clearB7v160006Ev, symObjAddr: 0x1D80C, symBinAddr: 0x10001E780, symSize: 0x28 }
  - { offsetInCU: 0x71906, offset: 0x71906, size: 0x8, addend: 0x0, symName: __ZNSt3__116allocator_traitsINS_9allocatorIfEEE10deallocateB7v160006ERS2_Pfm, symObjAddr: 0x1D834, symBinAddr: 0x10001E7A8, symSize: 0x34 }
  - { offsetInCU: 0x71948, offset: 0x71948, size: 0x8, addend: 0x0, symName: __ZNSt3__16vectorIfNS_9allocatorIfEEE7__allocB7v160006Ev, symObjAddr: 0x1D868, symBinAddr: 0x10001E7DC, symSize: 0x28 }
  - { offsetInCU: 0x7196E, offset: 0x7196E, size: 0x8, addend: 0x0, symName: __ZNKSt3__16vectorIfNS_9allocatorIfEEE8capacityB7v160006Ev, symObjAddr: 0x1D890, symBinAddr: 0x10001E804, symSize: 0x40 }
  - { offsetInCU: 0x71994, offset: 0x71994, size: 0x8, addend: 0x0, symName: __ZNKSt3__16vectorIfNS_9allocatorIfEEE31__annotate_contiguous_containerB7v160006EPKvS5_S5_S5_, symObjAddr: 0x1D8D0, symBinAddr: 0x10001E844, symSize: 0x20 }
  - { offsetInCU: 0x719E6, offset: 0x719E6, size: 0x8, addend: 0x0, symName: __ZNKSt3__16vectorIfNS_9allocatorIfEEE4dataB7v160006Ev, symObjAddr: 0x1D8F0, symBinAddr: 0x10001E864, symSize: 0x28 }
  - { offsetInCU: 0x71A0C, offset: 0x71A0C, size: 0x8, addend: 0x0, symName: __ZNSt3__16vectorIfNS_9allocatorIfEEE22__base_destruct_at_endB7v160006EPf, symObjAddr: 0x1D92C, symBinAddr: 0x10001E8A0, symSize: 0x8C }
  - { offsetInCU: 0x71A50, offset: 0x71A50, size: 0x8, addend: 0x0, symName: __ZNSt3__116allocator_traitsINS_9allocatorIfEEE7destroyB7v160006IfvEEvRS2_PT_, symObjAddr: 0x1D9B8, symBinAddr: 0x10001E92C, symSize: 0x2C }
  - { offsetInCU: 0x71A8D, offset: 0x71A8D, size: 0x8, addend: 0x0, symName: __ZNSt3__19allocatorIfE7destroyB7v160006EPf, symObjAddr: 0x1D9E4, symBinAddr: 0x10001E958, symSize: 0x14 }
  - { offsetInCU: 0x71AC1, offset: 0x71AC1, size: 0x8, addend: 0x0, symName: __ZNSt3__19allocatorIfE10deallocateB7v160006EPfm, symObjAddr: 0x1D9F8, symBinAddr: 0x10001E96C, symSize: 0x40 }
  - { offsetInCU: 0x71B03, offset: 0x71B03, size: 0x8, addend: 0x0, symName: __ZNSt3__117__compressed_pairIPfNS_9allocatorIfEEE6secondB7v160006Ev, symObjAddr: 0x1DA38, symBinAddr: 0x10001E9AC, symSize: 0x24 }
  - { offsetInCU: 0x71B29, offset: 0x71B29, size: 0x8, addend: 0x0, symName: __ZNSt3__122__compressed_pair_elemINS_9allocatorIfEELi1ELb1EE5__getB7v160006Ev, symObjAddr: 0x1DA5C, symBinAddr: 0x10001E9D0, symSize: 0x14 }
  - { offsetInCU: 0x71B4F, offset: 0x71B4F, size: 0x8, addend: 0x0, symName: __ZNKSt3__16vectorIfNS_9allocatorIfEEE9__end_capB7v160006Ev, symObjAddr: 0x1DA70, symBinAddr: 0x10001E9E4, symSize: 0x28 }
  - { offsetInCU: 0x71B75, offset: 0x71B75, size: 0x8, addend: 0x0, symName: __ZNKSt3__117__compressed_pairIPfNS_9allocatorIfEEE5firstB7v160006Ev, symObjAddr: 0x1DA98, symBinAddr: 0x10001EA0C, symSize: 0x24 }
  - { offsetInCU: 0x71B9B, offset: 0x71B9B, size: 0x8, addend: 0x0, symName: __ZNKSt3__122__compressed_pair_elemIPfLi0ELb0EE5__getB7v160006Ev, symObjAddr: 0x1DABC, symBinAddr: 0x10001EA30, symSize: 0x14 }
  - { offsetInCU: 0x71BC1, offset: 0x71BC1, size: 0x8, addend: 0x0, symName: __ZNKSt3__16vectorIdNS_9allocatorIdEEE17__annotate_shrinkB7v160006Em, symObjAddr: 0x1DAD0, symBinAddr: 0x10001EA44, symSize: 0xB4 }
  - { offsetInCU: 0x71BF6, offset: 0x71BF6, size: 0x8, addend: 0x0, symName: __ZNSt3__126linear_congruential_engineIjLj48271ELj0ELj2147483647EEC1B7v160006Ej, symObjAddr: 0x1DB84, symBinAddr: 0x10001EAF8, symSize: 0x34 }
  - { offsetInCU: 0x71C2E, offset: 0x71C2E, size: 0x8, addend: 0x0, symName: __ZNSt3__126linear_congruential_engineIjLj48271ELj0ELj2147483647EEC2B7v160006Ej, symObjAddr: 0x1DBB8, symBinAddr: 0x10001EB2C, symSize: 0x34 }
  - { offsetInCU: 0x71C66, offset: 0x71C66, size: 0x8, addend: 0x0, symName: __ZNSt3__126linear_congruential_engineIjLj48271ELj0ELj2147483647EE4seedB7v160006Ej, symObjAddr: 0x1DBEC, symBinAddr: 0x10001EB60, symSize: 0x2C }
  - { offsetInCU: 0x71C9A, offset: 0x71C9A, size: 0x8, addend: 0x0, symName: __ZNSt3__126linear_congruential_engineIjLj48271ELj0ELj2147483647EE4seedB7v160006ENS_17integral_constantIbLb0EEENS2_IbLb1EEEj, symObjAddr: 0x1DC18, symBinAddr: 0x10001EB8C, symSize: 0x74 }
  - { offsetInCU: 0x71CE5, offset: 0x71CE5, size: 0x8, addend: 0x0, symName: __ZNSt3__16vectorIiNS_9allocatorIiEEE11__make_iterB7v160006EPi, symObjAddr: 0x1DC8C, symBinAddr: 0x10001EC00, symSize: 0x34 }
  - { offsetInCU: 0x71D1A, offset: 0x71D1A, size: 0x8, addend: 0x0, symName: __ZNSt3__111__wrap_iterIPiEC1B7v160006EPKvS1_, symObjAddr: 0x1DCC0, symBinAddr: 0x10001EC34, symSize: 0x3C }
  - { offsetInCU: 0x71D60, offset: 0x71D60, size: 0x8, addend: 0x0, symName: __ZNSt3__111__wrap_iterIPiEC2B7v160006EPKvS1_, symObjAddr: 0x1DCFC, symBinAddr: 0x10001EC70, symSize: 0x24 }
  - { offsetInCU: 0x71DA6, offset: 0x71DA6, size: 0x8, addend: 0x0, symName: __ZNSt3__18_IterOpsINS_17_ClassicAlgPolicyEE4nextB7v160006INS_11__wrap_iterIPiEEEET_S7_S7_, symObjAddr: 0x1DE5C, symBinAddr: 0x10001EDD0, symSize: 0x20 }
  - { offsetInCU: 0x71DDD, offset: 0x71DDD, size: 0x8, addend: 0x0, symName: __ZNSt3__124uniform_int_distributionIlEC1Ev, symObjAddr: 0x1DEC4, symBinAddr: 0x10001EE38, symSize: 0x3C }
  - { offsetInCU: 0x71E07, offset: 0x71E07, size: 0x8, addend: 0x0, symName: __ZNSt3__111__wrap_iterIPiEmmB7v160006Ev, symObjAddr: 0x1DF00, symBinAddr: 0x10001EE74, symSize: 0x20 }
  - { offsetInCU: 0x71E2D, offset: 0x71E2D, size: 0x8, addend: 0x0, symName: __ZNSt3__124uniform_int_distributionIlE10param_typeC1Ell, symObjAddr: 0x1E0DC, symBinAddr: 0x10001F050, symSize: 0x3C }
  - { offsetInCU: 0x71E79, offset: 0x71E79, size: 0x8, addend: 0x0, symName: __ZNSt3__18_IterOpsINS_17_ClassicAlgPolicyEE9iter_swapB7v160006IRNS_11__wrap_iterIPiEES6_EEvOT_OT0_, symObjAddr: 0x1E118, symBinAddr: 0x10001F08C, symSize: 0x44 }
  - { offsetInCU: 0x71EBC, offset: 0x71EBC, size: 0x8, addend: 0x0, symName: __ZNKSt3__111__wrap_iterIPiEplB7v160006El, symObjAddr: 0x1E15C, symBinAddr: 0x10001F0D0, symSize: 0x3C }
  - { offsetInCU: 0x71EFE, offset: 0x71EFE, size: 0x8, addend: 0x0, symName: __ZNSt3__124uniform_int_distributionIlEC1Ell, symObjAddr: 0x1E198, symBinAddr: 0x10001F10C, symSize: 0x3C }
  - { offsetInCU: 0x71F44, offset: 0x71F44, size: 0x8, addend: 0x0, symName: __ZNSt3__124uniform_int_distributionIlEC2Ell, symObjAddr: 0x1E1D4, symBinAddr: 0x10001F148, symSize: 0x3C }
  - { offsetInCU: 0x71F8A, offset: 0x71F8A, size: 0x8, addend: 0x0, symName: __ZNKSt3__124uniform_int_distributionIlE10param_type1bEv, symObjAddr: 0x1E210, symBinAddr: 0x10001F184, symSize: 0x18 }
  - { offsetInCU: 0x71FB0, offset: 0x71FB0, size: 0x8, addend: 0x0, symName: __ZNKSt3__124uniform_int_distributionIlE10param_type1aEv, symObjAddr: 0x1E228, symBinAddr: 0x10001F19C, symSize: 0x18 }
  - { offsetInCU: 0x71FD6, offset: 0x71FD6, size: 0x8, addend: 0x0, symName: __ZNSt3__125__independent_bits_engineINS_26linear_congruential_engineIjLj48271ELj0ELj2147483647EEEmEC1ERS2_m, symObjAddr: 0x1E240, symBinAddr: 0x10001F1B4, symSize: 0x3C }
  - { offsetInCU: 0x7201D, offset: 0x7201D, size: 0x8, addend: 0x0, symName: __ZNSt3__125__independent_bits_engineINS_26linear_congruential_engineIjLj48271ELj0ELj2147483647EEEmEclEv, symObjAddr: 0x1E27C, symBinAddr: 0x10001F1F0, symSize: 0x24 }
  - { offsetInCU: 0x72043, offset: 0x72043, size: 0x8, addend: 0x0, symName: __ZNSt3__114numeric_limitsImE3maxB7v160006Ev, symObjAddr: 0x1E2F4, symBinAddr: 0x10001F268, symSize: 0x14 }
  - { offsetInCU: 0x72057, offset: 0x72057, size: 0x8, addend: 0x0, symName: __ZNSt3__125__independent_bits_engineINS_26linear_congruential_engineIjLj48271ELj0ELj2147483647EEEmEC2ERS2_m, symObjAddr: 0x1E308, symBinAddr: 0x10001F27C, symSize: 0x264 }
  - { offsetInCU: 0x7209E, offset: 0x7209E, size: 0x8, addend: 0x0, symName: __ZNSt3__125__independent_bits_engineINS_26linear_congruential_engineIjLj48271ELj0ELj2147483647EEEmE6__evalENS_17integral_constantIbLb1EEE, symObjAddr: 0x1E56C, symBinAddr: 0x10001F4E0, symSize: 0x1F0 }
  - { offsetInCU: 0x7215C, offset: 0x7215C, size: 0x8, addend: 0x0, symName: __ZNSt3__126linear_congruential_engineIjLj48271ELj0ELj2147483647EEclB7v160006Ev, symObjAddr: 0x1E75C, symBinAddr: 0x10001F6D0, symSize: 0x34 }
  - { offsetInCU: 0x72182, offset: 0x72182, size: 0x8, addend: 0x0, symName: __ZNSt3__126linear_congruential_engineIjLj48271ELj0ELj2147483647EE3minB7v160006Ev, symObjAddr: 0x1E790, symBinAddr: 0x10001F704, symSize: 0x8 }
  - { offsetInCU: 0x721A1, offset: 0x721A1, size: 0x8, addend: 0x0, symName: __ZNSt3__18__lce_taILy48271ELy0ELy2147483647ELy4294967295ELb1EE4nextB7v160006Ej, symObjAddr: 0x1E798, symBinAddr: 0x10001F70C, symSize: 0x88 }
  - { offsetInCU: 0x72218, offset: 0x72218, size: 0x8, addend: 0x0, symName: __ZNSt3__123__libcpp_numeric_limitsImLb1EE3maxB7v160006Ev, symObjAddr: 0x1E820, symBinAddr: 0x10001F794, symSize: 0x8 }
  - { offsetInCU: 0x7222C, offset: 0x7222C, size: 0x8, addend: 0x0, symName: __ZNSt3__124uniform_int_distributionIlE10param_typeC2Ell, symObjAddr: 0x1E828, symBinAddr: 0x10001F79C, symSize: 0x2C }
  - { offsetInCU: 0x72272, offset: 0x72272, size: 0x8, addend: 0x0, symName: __ZNSt3__111__wrap_iterIPiEpLB7v160006El, symObjAddr: 0x1E8E0, symBinAddr: 0x10001F854, symSize: 0x28 }
  - { offsetInCU: 0x722A6, offset: 0x722A6, size: 0x8, addend: 0x0, symName: __ZNSt3__16vectorIfNS_9allocatorIfEEE9__end_capB7v160006Ev, symObjAddr: 0x1E908, symBinAddr: 0x10001F87C, symSize: 0x28 }
  - { offsetInCU: 0x722D2, offset: 0x722D2, size: 0x8, addend: 0x0, symName: __ZNSt3__16vectorIfNS_9allocatorIfEEE22__construct_one_at_endB7v160006IJfEEEvDpOT_, symObjAddr: 0x1E930, symBinAddr: 0x10001F8A4, symSize: 0x90 }
  - { offsetInCU: 0x72321, offset: 0x72321, size: 0x8, addend: 0x0, symName: __ZNSt3__16vectorIfNS_9allocatorIfEEE21__push_back_slow_pathIfEEvOT_, symObjAddr: 0x1E9C0, symBinAddr: 0x10001F934, symSize: 0xD8 }
  - { offsetInCU: 0x7237F, offset: 0x7237F, size: 0x8, addend: 0x0, symName: __ZNSt3__117__compressed_pairIPfNS_9allocatorIfEEE5firstB7v160006Ev, symObjAddr: 0x1EA98, symBinAddr: 0x10001FA0C, symSize: 0x24 }
  - { offsetInCU: 0x723A5, offset: 0x723A5, size: 0x8, addend: 0x0, symName: __ZNSt3__122__compressed_pair_elemIPfLi0ELb0EE5__getB7v160006Ev, symObjAddr: 0x1EABC, symBinAddr: 0x10001FA30, symSize: 0x14 }
  - { offsetInCU: 0x723E8, offset: 0x723E8, size: 0x8, addend: 0x0, symName: __ZNSt3__16vectorIfNS_9allocatorIfEEE21_ConstructTransactionC1B7v160006ERS3_m, symObjAddr: 0x1EAD0, symBinAddr: 0x10001FA44, symSize: 0x3C }
  - { offsetInCU: 0x72430, offset: 0x72430, size: 0x8, addend: 0x0, symName: __ZNSt3__116allocator_traitsINS_9allocatorIfEEE9constructB7v160006IfJfEvEEvRS2_PT_DpOT0_, symObjAddr: 0x1EB0C, symBinAddr: 0x10001FA80, symSize: 0x34 }
  - { offsetInCU: 0x72487, offset: 0x72487, size: 0x8, addend: 0x0, symName: __ZNSt3__16vectorIfNS_9allocatorIfEEE21_ConstructTransactionD1B7v160006Ev, symObjAddr: 0x1EB40, symBinAddr: 0x10001FAB4, symSize: 0x2C }
  - { offsetInCU: 0x724B1, offset: 0x724B1, size: 0x8, addend: 0x0, symName: __ZNSt3__16vectorIfNS_9allocatorIfEEE21_ConstructTransactionC2B7v160006ERS3_m, symObjAddr: 0x1EB6C, symBinAddr: 0x10001FAE0, symSize: 0x44 }
  - { offsetInCU: 0x724F9, offset: 0x724F9, size: 0x8, addend: 0x0, symName: __ZNSt3__19allocatorIfE9constructB7v160006IfJfEEEvPT_DpOT0_, symObjAddr: 0x1EBB0, symBinAddr: 0x10001FB24, symSize: 0x28 }
  - { offsetInCU: 0x7254F, offset: 0x7254F, size: 0x8, addend: 0x0, symName: __ZNSt3__16vectorIfNS_9allocatorIfEEE21_ConstructTransactionD2B7v160006Ev, symObjAddr: 0x1EBD8, symBinAddr: 0x10001FB4C, symSize: 0x20 }
  - { offsetInCU: 0x72579, offset: 0x72579, size: 0x8, addend: 0x0, symName: __ZNKSt3__16vectorIfNS_9allocatorIfEEE11__recommendB7v160006Em, symObjAddr: 0x1EBF8, symBinAddr: 0x10001FB6C, symSize: 0xB4 }
  - { offsetInCU: 0x725CE, offset: 0x725CE, size: 0x8, addend: 0x0, symName: __ZNSt3__114__split_bufferIfRNS_9allocatorIfEEEC1EmmS3_, symObjAddr: 0x1ECAC, symBinAddr: 0x10001FC20, symSize: 0x44 }
  - { offsetInCU: 0x72624, offset: 0x72624, size: 0x8, addend: 0x0, symName: __ZNSt3__114__split_bufferIfRNS_9allocatorIfEEED1Ev, symObjAddr: 0x1EE08, symBinAddr: 0x10001FD7C, symSize: 0x2C }
  - { offsetInCU: 0x72650, offset: 0x72650, size: 0x8, addend: 0x0, symName: __ZNKSt3__16vectorIfNS_9allocatorIfEEE8max_sizeEv, symObjAddr: 0x1EE34, symBinAddr: 0x10001FDA8, symSize: 0x60 }
  - { offsetInCU: 0x72678, offset: 0x72678, size: 0x8, addend: 0x0, symName: __ZNKSt3__16vectorIfNS_9allocatorIfEEE20__throw_length_errorB7v160006Ev, symObjAddr: 0x1EE94, symBinAddr: 0x10001FE08, symSize: 0x1C }
  - { offsetInCU: 0x726AA, offset: 0x726AA, size: 0x8, addend: 0x0, symName: __ZNSt3__116allocator_traitsINS_9allocatorIfEEE8max_sizeB7v160006IS2_vEEmRKS2_, symObjAddr: 0x1EEB0, symBinAddr: 0x10001FE24, symSize: 0x24 }
  - { offsetInCU: 0x726D8, offset: 0x726D8, size: 0x8, addend: 0x0, symName: __ZNKSt3__16vectorIfNS_9allocatorIfEEE7__allocB7v160006Ev, symObjAddr: 0x1EED4, symBinAddr: 0x10001FE48, symSize: 0x28 }
  - { offsetInCU: 0x726FE, offset: 0x726FE, size: 0x8, addend: 0x0, symName: __ZNKSt3__19allocatorIfE8max_sizeB7v160006Ev, symObjAddr: 0x1EEFC, symBinAddr: 0x10001FE70, symSize: 0x14 }
  - { offsetInCU: 0x72724, offset: 0x72724, size: 0x8, addend: 0x0, symName: __ZNKSt3__117__compressed_pairIPfNS_9allocatorIfEEE6secondB7v160006Ev, symObjAddr: 0x1EF10, symBinAddr: 0x10001FE84, symSize: 0x24 }
  - { offsetInCU: 0x7274A, offset: 0x7274A, size: 0x8, addend: 0x0, symName: __ZNKSt3__122__compressed_pair_elemINS_9allocatorIfEELi1ELb1EE5__getB7v160006Ev, symObjAddr: 0x1EF34, symBinAddr: 0x10001FEA8, symSize: 0x14 }
  - { offsetInCU: 0x72770, offset: 0x72770, size: 0x8, addend: 0x0, symName: __ZNSt3__114__split_bufferIfRNS_9allocatorIfEEEC2EmmS3_, symObjAddr: 0x1EF48, symBinAddr: 0x10001FEBC, symSize: 0xD4 }
  - { offsetInCU: 0x727E3, offset: 0x727E3, size: 0x8, addend: 0x0, symName: __ZNSt3__117__compressed_pairIPfRNS_9allocatorIfEEEC1B7v160006IDnS4_EEOT_OT0_, symObjAddr: 0x1F01C, symBinAddr: 0x10001FF90, symSize: 0x3C }
  - { offsetInCU: 0x7283B, offset: 0x7283B, size: 0x8, addend: 0x0, symName: __ZNSt3__114__split_bufferIfRNS_9allocatorIfEEE7__allocB7v160006Ev, symObjAddr: 0x1F098, symBinAddr: 0x10002000C, symSize: 0x28 }
  - { offsetInCU: 0x72861, offset: 0x72861, size: 0x8, addend: 0x0, symName: __ZNSt3__114__split_bufferIfRNS_9allocatorIfEEE9__end_capB7v160006Ev, symObjAddr: 0x1F0C0, symBinAddr: 0x100020034, symSize: 0x28 }
  - { offsetInCU: 0x72887, offset: 0x72887, size: 0x8, addend: 0x0, symName: __ZNSt3__117__compressed_pairIPfRNS_9allocatorIfEEEC2B7v160006IDnS4_EEOT_OT0_, symObjAddr: 0x1F0E8, symBinAddr: 0x10002005C, symSize: 0x48 }
  - { offsetInCU: 0x728DF, offset: 0x728DF, size: 0x8, addend: 0x0, symName: __ZNSt3__122__compressed_pair_elemIRNS_9allocatorIfEELi1ELb0EEC2B7v160006IS3_vEEOT_, symObjAddr: 0x1F130, symBinAddr: 0x1000200A4, symSize: 0x20 }
  - { offsetInCU: 0x72921, offset: 0x72921, size: 0x8, addend: 0x0, symName: __ZNSt3__19allocatorIfE8allocateB7v160006Em, symObjAddr: 0x1F150, symBinAddr: 0x1000200C4, symSize: 0x58 }
  - { offsetInCU: 0x72955, offset: 0x72955, size: 0x8, addend: 0x0, symName: __ZNSt3__117__compressed_pairIPfRNS_9allocatorIfEEE6secondB7v160006Ev, symObjAddr: 0x1F1A8, symBinAddr: 0x10002011C, symSize: 0x28 }
  - { offsetInCU: 0x7297B, offset: 0x7297B, size: 0x8, addend: 0x0, symName: __ZNSt3__122__compressed_pair_elemIRNS_9allocatorIfEELi1ELb0EE5__getB7v160006Ev, symObjAddr: 0x1F1D0, symBinAddr: 0x100020144, symSize: 0x18 }
  - { offsetInCU: 0x729A1, offset: 0x729A1, size: 0x8, addend: 0x0, symName: __ZNSt3__117__compressed_pairIPfRNS_9allocatorIfEEE5firstB7v160006Ev, symObjAddr: 0x1F1E8, symBinAddr: 0x10002015C, symSize: 0x24 }
  - { offsetInCU: 0x729C7, offset: 0x729C7, size: 0x8, addend: 0x0, symName: __ZNSt3__116reverse_iteratorIPfEC1B7v160006ES1_, symObjAddr: 0x1F284, symBinAddr: 0x1000201F8, symSize: 0x34 }
  - { offsetInCU: 0x729FF, offset: 0x729FF, size: 0x8, addend: 0x0, symName: __ZNKSt3__116reverse_iteratorIPfE4baseB7v160006Ev, symObjAddr: 0x1F2B8, symBinAddr: 0x10002022C, symSize: 0x18 }
  - { offsetInCU: 0x72A25, offset: 0x72A25, size: 0x8, addend: 0x0, symName: __ZNKSt3__16vectorIfNS_9allocatorIfEEE14__annotate_newB7v160006Em, symObjAddr: 0x1F30C, symBinAddr: 0x100020280, symSize: 0xAC }
  - { offsetInCU: 0x72A77, offset: 0x72A77, size: 0x8, addend: 0x0, symName: __ZNKSt3__111__move_loopINS_17_ClassicAlgPolicyEEclB7v160006INS_16reverse_iteratorIPfEES6_S6_EENS_4pairIT_T1_EES8_T0_S9_, symObjAddr: 0x1F6B8, symBinAddr: 0x10002062C, symSize: 0xA0 }
  - { offsetInCU: 0x72AE2, offset: 0x72AE2, size: 0x8, addend: 0x0, symName: __ZNSt3__18_IterOpsINS_17_ClassicAlgPolicyEE11__iter_moveB7v160006IRNS_16reverse_iteratorIPfEEEENS_9enable_ifIXsr12is_referenceIDTdeclsr3stdE7declvalIRT_EEEEE5valueEDTclsr3stdE4movedeclsr3stdE7declvalISA_EEEEE4typeEOS9_, symObjAddr: 0x1F8EC, symBinAddr: 0x100020860, symSize: 0x28 }
  - { offsetInCU: 0x72B0E, offset: 0x72B0E, size: 0x8, addend: 0x0, symName: __ZNKSt3__116reverse_iteratorIPfEdeB7v160006Ev, symObjAddr: 0x1F914, symBinAddr: 0x100020888, symSize: 0x28 }
  - { offsetInCU: 0x72B42, offset: 0x72B42, size: 0x8, addend: 0x0, symName: __ZNSt3__116reverse_iteratorIPfEppB7v160006Ev, symObjAddr: 0x1F93C, symBinAddr: 0x1000208B0, symSize: 0x20 }
  - { offsetInCU: 0x72B68, offset: 0x72B68, size: 0x8, addend: 0x0, symName: __ZNSt3__18_IterOpsINS_17_ClassicAlgPolicyEE25__validate_iter_referenceB7v160006IRNS_16reverse_iteratorIPfEEEEvv, symObjAddr: 0x1F95C, symBinAddr: 0x1000208D0, symSize: 0x4 }
  - { offsetInCU: 0x72B86, offset: 0x72B86, size: 0x8, addend: 0x0, symName: __ZNSt3__118__unwrap_iter_implINS_16reverse_iteratorIPfEELb0EE8__unwrapB7v160006ES3_, symObjAddr: 0x1F960, symBinAddr: 0x1000208D4, symSize: 0x24 }
  - { offsetInCU: 0x72BAF, offset: 0x72BAF, size: 0x8, addend: 0x0, symName: __ZNSt3__14pairINS_16reverse_iteratorIPfEES3_EC1B7v160006IS3_S3_LPv0EEEOT_OT0_, symObjAddr: 0x1F984, symBinAddr: 0x1000208F8, symSize: 0x3C }
  - { offsetInCU: 0x72C0D, offset: 0x72C0D, size: 0x8, addend: 0x0, symName: __ZNSt3__14pairINS_16reverse_iteratorIPfEES3_EC2B7v160006IS3_S3_LPv0EEEOT_OT0_, symObjAddr: 0x1F9C0, symBinAddr: 0x100020934, symSize: 0x34 }
  - { offsetInCU: 0x72C6B, offset: 0x72C6B, size: 0x8, addend: 0x0, symName: __ZNSt3__118__unwrap_iter_implINS_16reverse_iteratorIPfEELb0EE8__rewrapB7v160006ES3_S3_, symObjAddr: 0x1F9F4, symBinAddr: 0x100020968, symSize: 0x2C }
  - { offsetInCU: 0x72C99, offset: 0x72C99, size: 0x8, addend: 0x0, symName: __ZNSt3__116reverse_iteratorIPfEC2B7v160006ES1_, symObjAddr: 0x1FA20, symBinAddr: 0x100020994, symSize: 0x28 }
  - { offsetInCU: 0x72CD1, offset: 0x72CD1, size: 0x8, addend: 0x0, symName: __ZNSt3__114__split_bufferIfRNS_9allocatorIfEEED2Ev, symObjAddr: 0x1FA48, symBinAddr: 0x1000209BC, symSize: 0x8C }
  - { offsetInCU: 0x72CFD, offset: 0x72CFD, size: 0x8, addend: 0x0, symName: __ZNSt3__114__split_bufferIfRNS_9allocatorIfEEE5clearB7v160006Ev, symObjAddr: 0x1FAD4, symBinAddr: 0x100020A48, symSize: 0x28 }
  - { offsetInCU: 0x72D23, offset: 0x72D23, size: 0x8, addend: 0x0, symName: __ZNKSt3__114__split_bufferIfRNS_9allocatorIfEEE8capacityB7v160006Ev, symObjAddr: 0x1FAFC, symBinAddr: 0x100020A70, symSize: 0x40 }
  - { offsetInCU: 0x72D49, offset: 0x72D49, size: 0x8, addend: 0x0, symName: __ZNSt3__114__split_bufferIfRNS_9allocatorIfEEE17__destruct_at_endB7v160006EPf, symObjAddr: 0x1FB3C, symBinAddr: 0x100020AB0, symSize: 0x2C }
  - { offsetInCU: 0x72D7D, offset: 0x72D7D, size: 0x8, addend: 0x0, symName: __ZNSt3__114__split_bufferIfRNS_9allocatorIfEEE17__destruct_at_endB7v160006EPfNS_17integral_constantIbLb0EEE, symObjAddr: 0x1FB68, symBinAddr: 0x100020ADC, symSize: 0x80 }
  - { offsetInCU: 0x72DBE, offset: 0x72DBE, size: 0x8, addend: 0x0, symName: __ZNKSt3__114__split_bufferIfRNS_9allocatorIfEEE9__end_capB7v160006Ev, symObjAddr: 0x1FBE8, symBinAddr: 0x100020B5C, symSize: 0x28 }
  - { offsetInCU: 0x72DE4, offset: 0x72DE4, size: 0x8, addend: 0x0, symName: __ZNKSt3__117__compressed_pairIPfRNS_9allocatorIfEEE5firstB7v160006Ev, symObjAddr: 0x1FC10, symBinAddr: 0x100020B84, symSize: 0x24 }
  - { offsetInCU: 0x72E0A, offset: 0x72E0A, size: 0x8, addend: 0x0, symName: __ZNSt3__16vectorIdNS_9allocatorIdEEE22__construct_one_at_endB7v160006IJdEEEvDpOT_, symObjAddr: 0x1FC34, symBinAddr: 0x100020BA8, symSize: 0x90 }
  - { offsetInCU: 0x72E59, offset: 0x72E59, size: 0x8, addend: 0x0, symName: __ZNSt3__16vectorIdNS_9allocatorIdEEE21__push_back_slow_pathIdEEvOT_, symObjAddr: 0x1FCC4, symBinAddr: 0x100020C38, symSize: 0xD8 }
  - { offsetInCU: 0x72EB7, offset: 0x72EB7, size: 0x8, addend: 0x0, symName: __ZNSt3__116allocator_traitsINS_9allocatorIdEEE9constructB7v160006IdJdEvEEvRS2_PT_DpOT0_, symObjAddr: 0x1FD9C, symBinAddr: 0x100020D10, symSize: 0x34 }
  - { offsetInCU: 0x72F0E, offset: 0x72F0E, size: 0x8, addend: 0x0, symName: __ZNSt3__19allocatorIdE9constructB7v160006IdJdEEEvPT_DpOT0_, symObjAddr: 0x1FDD0, symBinAddr: 0x100020D44, symSize: 0x28 }
  - { offsetInCU: 0x72F64, offset: 0x72F64, size: 0x8, addend: 0x0, symName: __ZNSt3__19basic_iosIcNS_11char_traitsIcEEEC2B7v160006Ev, symObjAddr: 0x1FDF8, symBinAddr: 0x100020D6C, symSize: 0x44 }
  - { offsetInCU: 0x72F8E, offset: 0x72F8E, size: 0x8, addend: 0x0, symName: __ZNSt3__113basic_ostreamIcNS_11char_traitsIcEEEC2B7v160006EPNS_15basic_streambufIcS2_EE, symObjAddr: 0x1FE3C, symBinAddr: 0x100020DB0, symSize: 0x60 }
  - { offsetInCU: 0x72FD3, offset: 0x72FD3, size: 0x8, addend: 0x0, symName: __ZNSt3__18ios_baseC2B7v160006Ev, symObjAddr: 0x1FE9C, symBinAddr: 0x100020E10, symSize: 0x24 }
  - { offsetInCU: 0x72FFD, offset: 0x72FFD, size: 0x8, addend: 0x0, symName: __ZNSt3__19basic_iosIcNS_11char_traitsIcEEE4initB7v160006EPNS_15basic_streambufIcS2_EE, symObjAddr: 0x1FEC0, symBinAddr: 0x100020E34, symSize: 0x44 }
  - { offsetInCU: 0x73034, offset: 0x73034, size: 0x8, addend: 0x0, symName: __ZNSt3__16vectorIfNS_9allocatorIfEEE22__construct_one_at_endB7v160006IJRKfEEEvDpOT_, symObjAddr: 0x1FF04, symBinAddr: 0x100020E78, symSize: 0x90 }
  - { offsetInCU: 0x73083, offset: 0x73083, size: 0x8, addend: 0x0, symName: __ZNSt3__16vectorIfNS_9allocatorIfEEE21__push_back_slow_pathIRKfEEvOT_, symObjAddr: 0x1FF94, symBinAddr: 0x100020F08, symSize: 0xD8 }
  - { offsetInCU: 0x730E1, offset: 0x730E1, size: 0x8, addend: 0x0, symName: __ZNSt3__116allocator_traitsINS_9allocatorIfEEE9constructB7v160006IfJRKfEvEEvRS2_PT_DpOT0_, symObjAddr: 0x2006C, symBinAddr: 0x100020FE0, symSize: 0x34 }
  - { offsetInCU: 0x73138, offset: 0x73138, size: 0x8, addend: 0x0, symName: __ZNSt3__19allocatorIfE9constructB7v160006IfJRKfEEEvPT_DpOT0_, symObjAddr: 0x200A0, symBinAddr: 0x100021014, symSize: 0x28 }
  - { offsetInCU: 0x7318E, offset: 0x7318E, size: 0x8, addend: 0x0, symName: __ZNSt3__16vectorIfNS_9allocatorIfEEE11__make_iterB7v160006EPf, symObjAddr: 0x200C8, symBinAddr: 0x10002103C, symSize: 0x34 }
  - { offsetInCU: 0x731C3, offset: 0x731C3, size: 0x8, addend: 0x0, symName: __ZNSt3__111__wrap_iterIPfEC1B7v160006EPKvS1_, symObjAddr: 0x200FC, symBinAddr: 0x100021070, symSize: 0x3C }
  - { offsetInCU: 0x73209, offset: 0x73209, size: 0x8, addend: 0x0, symName: __ZNSt3__111__wrap_iterIPfEC2B7v160006EPKvS1_, symObjAddr: 0x20138, symBinAddr: 0x1000210AC, symSize: 0x24 }
  - { offsetInCU: 0x7324F, offset: 0x7324F, size: 0x8, addend: 0x0, symName: __ZNKSt3__16vectorIfNS_9allocatorIfEEE6cbeginB7v160006Ev, symObjAddr: 0x201A4, symBinAddr: 0x100021118, symSize: 0x2C }
  - { offsetInCU: 0x73275, offset: 0x73275, size: 0x8, addend: 0x0, symName: __ZNSt3__16vectorIfNS_9allocatorIfEEE17__destruct_at_endB7v160006EPf, symObjAddr: 0x201D0, symBinAddr: 0x100021144, symSize: 0x60 }
  - { offsetInCU: 0x732B9, offset: 0x732B9, size: 0x8, addend: 0x0, symName: __ZNSt3__16vectorIfNS_9allocatorIfEEE27__invalidate_iterators_pastB7v160006EPf, symObjAddr: 0x20270, symBinAddr: 0x1000211E4, symSize: 0x14 }
  - { offsetInCU: 0x732F0, offset: 0x732F0, size: 0x8, addend: 0x0, symName: __ZNKSt3__111__wrap_iterIPKfE4baseB7v160006Ev, symObjAddr: 0x20284, symBinAddr: 0x1000211F8, symSize: 0x18 }
  - { offsetInCU: 0x73316, offset: 0x73316, size: 0x8, addend: 0x0, symName: __ZNKSt3__16vectorIfNS_9allocatorIfEEE5beginB7v160006Ev, symObjAddr: 0x2029C, symBinAddr: 0x100021210, symSize: 0x30 }
  - { offsetInCU: 0x7333E, offset: 0x7333E, size: 0x8, addend: 0x0, symName: __ZNKSt3__16vectorIfNS_9allocatorIfEEE11__make_iterB7v160006EPKf, symObjAddr: 0x202CC, symBinAddr: 0x100021240, symSize: 0x34 }
  - { offsetInCU: 0x73373, offset: 0x73373, size: 0x8, addend: 0x0, symName: __ZNSt3__111__wrap_iterIPKfEC1B7v160006EPKvS2_, symObjAddr: 0x20300, symBinAddr: 0x100021274, symSize: 0x3C }
  - { offsetInCU: 0x733B9, offset: 0x733B9, size: 0x8, addend: 0x0, symName: __ZNSt3__111__wrap_iterIPKfEC2B7v160006EPKvS2_, symObjAddr: 0x2033C, symBinAddr: 0x1000212B0, symSize: 0x24 }
  - { offsetInCU: 0x733FF, offset: 0x733FF, size: 0x8, addend: 0x0, symName: __ZNKSt3__16vectorIfNS_9allocatorIfEEE17__annotate_shrinkB7v160006Em, symObjAddr: 0x20360, symBinAddr: 0x1000212D4, symSize: 0xB4 }
  - { offsetInCU: 0x7345C, offset: 0x7345C, size: 0x8, addend: 0x0, symName: __ZNKSt3__114__move_trivialclB7v160006IffLi0EEENS_4pairIPT_PT0_EES4_S4_S6_, symObjAddr: 0x205B0, symBinAddr: 0x100021524, symSize: 0x48 }
  - { offsetInCU: 0x734CB, offset: 0x734CB, size: 0x8, addend: 0x0, symName: __ZNSt3__14pairIPfS1_EC1B7v160006IRS1_S1_LPv0EEEOT_OT0_, symObjAddr: 0x20778, symBinAddr: 0x1000216EC, symSize: 0x3C }
  - { offsetInCU: 0x73529, offset: 0x73529, size: 0x8, addend: 0x0, symName: __ZNSt3__14pairIPfS1_EC2B7v160006IRS1_S1_LPv0EEEOT_OT0_, symObjAddr: 0x207B4, symBinAddr: 0x100021728, symSize: 0x34 }
  - { offsetInCU: 0x73587, offset: 0x73587, size: 0x8, addend: 0x0, symName: __ZNSt3__118__unwrap_iter_implIPfLb1EE8__unwrapB7v160006ES1_, symObjAddr: 0x207E8, symBinAddr: 0x10002175C, symSize: 0x24 }
  - { offsetInCU: 0x735AA, offset: 0x735AA, size: 0x8, addend: 0x0, symName: __ZNSt3__14pairIPfS1_EC1B7v160006IS1_S1_LPv0EEEOT_OT0_, symObjAddr: 0x2080C, symBinAddr: 0x100021780, symSize: 0x3C }
  - { offsetInCU: 0x73608, offset: 0x73608, size: 0x8, addend: 0x0, symName: __ZNSt3__14pairIPfS1_EC2B7v160006IS1_S1_LPv0EEEOT_OT0_, symObjAddr: 0x20848, symBinAddr: 0x1000217BC, symSize: 0x34 }
  - { offsetInCU: 0x73666, offset: 0x73666, size: 0x8, addend: 0x0, symName: __ZNSt3__118__unwrap_iter_implIPfLb1EE8__rewrapB7v160006ES1_S1_, symObjAddr: 0x2087C, symBinAddr: 0x1000217F0, symSize: 0x50 }
  - { offsetInCU: 0x73697, offset: 0x73697, size: 0x8, addend: 0x0, symName: __ZNSt3__114basic_iostreamIcNS_11char_traitsIcEEEC2B7v160006EPNS_15basic_streambufIcS2_EE, symObjAddr: 0x208CC, symBinAddr: 0x100021840, symSize: 0xAC }
  - { offsetInCU: 0x736DD, offset: 0x736DD, size: 0x8, addend: 0x0, symName: __ZNSt3__115basic_stringbufIcNS_11char_traitsIcEENS_9allocatorIcEEEC1B7v160006Ej, symObjAddr: 0x20978, symBinAddr: 0x1000218EC, symSize: 0x34 }
  - { offsetInCU: 0x73715, offset: 0x73715, size: 0x8, addend: 0x0, symName: __ZNSt3__113basic_istreamIcNS_11char_traitsIcEEEC2B7v160006EPNS_15basic_streambufIcS2_EE, symObjAddr: 0x209AC, symBinAddr: 0x100021920, symSize: 0x64 }
  - { offsetInCU: 0x7375A, offset: 0x7375A, size: 0x8, addend: 0x0, symName: __ZNSt3__113basic_ostreamIcNS_11char_traitsIcEEEC2B7v160006Ev, symObjAddr: 0x20A10, symBinAddr: 0x100021984, symSize: 0x34 }
  - { offsetInCU: 0x73791, offset: 0x73791, size: 0x8, addend: 0x0, symName: __ZNSt3__115basic_stringbufIcNS_11char_traitsIcEENS_9allocatorIcEEEC2B7v160006Ej, symObjAddr: 0x20A44, symBinAddr: 0x1000219B8, symSize: 0x60 }
  - { offsetInCU: 0x737C9, offset: 0x737C9, size: 0x8, addend: 0x0, symName: __ZNSt3__112basic_stringIcNS_11char_traitsIcEENS_9allocatorIcEEEC1B7v160006Ev, symObjAddr: 0x20AA4, symBinAddr: 0x100021A18, symSize: 0x2C }
  - { offsetInCU: 0x737F3, offset: 0x737F3, size: 0x8, addend: 0x0, symName: __ZNSt3__112basic_stringIcNS_11char_traitsIcEENS_9allocatorIcEEEC2B7v160006Ev, symObjAddr: 0x20AD0, symBinAddr: 0x100021A44, symSize: 0x4C }
  - { offsetInCU: 0x7381D, offset: 0x7381D, size: 0x8, addend: 0x0, symName: __ZNSt3__112basic_stringIcNS_11char_traitsIcEENS_9allocatorIcEEE6insertB7v160006EmRKS5_, symObjAddr: 0x20B1C, symBinAddr: 0x100021A90, symSize: 0x5C }
  - { offsetInCU: 0x73861, offset: 0x73861, size: 0x8, addend: 0x0, symName: __ZNKSt3__112basic_stringIcNS_11char_traitsIcEENS_9allocatorIcEEE4sizeB7v160006Ev, symObjAddr: 0x20B78, symBinAddr: 0x100021AEC, symSize: 0x54 }
  - { offsetInCU: 0x73887, offset: 0x73887, size: 0x8, addend: 0x0, symName: __ZNKSt3__112basic_stringIcNS_11char_traitsIcEENS_9allocatorIcEEE15__get_long_sizeB7v160006Ev, symObjAddr: 0x20BCC, symBinAddr: 0x100021B40, symSize: 0x28 }
  - { offsetInCU: 0x738AD, offset: 0x738AD, size: 0x8, addend: 0x0, symName: __ZNKSt3__112basic_stringIcNS_11char_traitsIcEENS_9allocatorIcEEE16__get_short_sizeB7v160006Ev, symObjAddr: 0x20BF4, symBinAddr: 0x100021B68, symSize: 0x34 }
  - { offsetInCU: 0x49, offset: 0x76874, size: 0x8, addend: 0x0, symName: __ZN4ROOT8InternalL13gVersionCheckE, symObjAddr: 0x5E253, symBinAddr: 0x100030268, symSize: 0x0 }
  - { offsetInCU: 0x8A, offset: 0x768B5, size: 0x8, addend: 0x0, symName: __ZNSt3__1L19piecewise_constructE, symObjAddr: 0xB8EC, symBinAddr: 0x10002A0F6, symSize: 0x0 }
  - { offsetInCU: 0x227D, offset: 0x78AA8, size: 0x8, addend: 0x0, symName: '__ZNSt3__110__function10__not_nullB7v160006IZN3SNN15Neuron_firetimeEidE3$_0EEbRKT_', symObjAddr: 0x8160, symBinAddr: 0x1000265AC, symSize: 0x18 }
  - { offsetInCU: 0x3CC5, offset: 0x7A4F0, size: 0x8, addend: 0x0, symName: __ZNSt3__125__throw_bad_function_callB7v160006Ev, symObjAddr: 0x4B50, symBinAddr: 0x100026294, symSize: 0x38 }
  - { offsetInCU: 0x3E84, offset: 0x7A6AF, size: 0x8, addend: 0x0, symName: '__ZNSt3__116forward_as_tupleB7v160006IJZN3SNN15Neuron_firetimeEidE3$_0EEENS_5tupleIJDpOT_EEES6_', symObjAddr: 0x86F0, symBinAddr: 0x100026B3C, symSize: 0x2C }
  - { offsetInCU: 0x3EBD, offset: 0x7A6E8, size: 0x8, addend: 0x0, symName: '__ZNSt3__116forward_as_tupleB7v160006IJNS_9allocatorIZN3SNN15Neuron_firetimeEidE3$_0EEEEENS_5tupleIJDpOT_EEES8_', symObjAddr: 0x871C, symBinAddr: 0x100026B68, symSize: 0x2C }
  - { offsetInCU: 0x3F3C, offset: 0x7A767, size: 0x8, addend: 0x0, symName: '__ZNSt3__13getB7v160006ILm0EJOZN3SNN15Neuron_firetimeEidE3$_0EEERNS_13tuple_elementIXT_ENS_5tupleIJDpT0_EEEE4typeERS8_', symObjAddr: 0x8A34, symBinAddr: 0x100026E80, symSize: 0x24 }
  - { offsetInCU: 0x3F7E, offset: 0x7A7A9, size: 0x8, addend: 0x0, symName: '__ZNSt3__13getB7v160006ILm0EJONS_9allocatorIZN3SNN15Neuron_firetimeEidE3$_0EEEEERNS_13tuple_elementIXT_ENS_5tupleIJDpT0_EEEE4typeERSA_', symObjAddr: 0x8A70, symBinAddr: 0x100026EBC, symSize: 0x24 }
  - { offsetInCU: 0x44C9, offset: 0x7ACF4, size: 0x8, addend: 0x0, symName: '__ZNSt3__116forward_as_tupleB7v160006IJRKZN3SNN15Neuron_firetimeEidE3$_0EEENS_5tupleIJDpOT_EEES8_', symObjAddr: 0x9004, symBinAddr: 0x100027450, symSize: 0x2C }
  - { offsetInCU: 0x4517, offset: 0x7AD42, size: 0x8, addend: 0x0, symName: '__ZNSt3__13getB7v160006ILm0EJRKZN3SNN15Neuron_firetimeEidE3$_0EEERNS_13tuple_elementIXT_ENS_5tupleIJDpT0_EEEE4typeERS9_', symObjAddr: 0x91F4, symBinAddr: 0x100027640, symSize: 0x24 }
  - { offsetInCU: 0x4559, offset: 0x7AD84, size: 0x8, addend: 0x0, symName: '__ZNSt3__116forward_as_tupleB7v160006IJRKNS_9allocatorIZN3SNN15Neuron_firetimeEidE3$_0EEEEENS_5tupleIJDpOT_EEESA_', symObjAddr: 0x9550, symBinAddr: 0x10002799C, symSize: 0x2C }
  - { offsetInCU: 0x45A7, offset: 0x7ADD2, size: 0x8, addend: 0x0, symName: '__ZNSt3__13getB7v160006ILm0EJRKNS_9allocatorIZN3SNN15Neuron_firetimeEidE3$_0EEEEERNS_13tuple_elementIXT_ENS_5tupleIJDpT0_EEEE4typeERSB_', symObjAddr: 0x9734, symBinAddr: 0x100027B80, symSize: 0x24 }
  - { offsetInCU: 0x4643, offset: 0x7AE6E, size: 0x8, addend: 0x0, symName: '__ZNSt3__18__invokeB7v160006IRZN3SNN15Neuron_firetimeEidE3$_0JidbEEEDTclclsr3stdE7declvalIT_EEspclsr3stdE7declvalIT0_EEEEOS4_DpOS5_', symObjAddr: 0x9820, symBinAddr: 0x100027C6C, symSize: 0x4C }
  - { offsetInCU: 0x46BC, offset: 0x7AEE7, size: 0x8, addend: 0x0, symName: __ZNSt3__1miB7v160006IPKdPdEEDTmicldtfp_4baseEcldtfp0_4baseEERKNS_11__wrap_iterIT_EERKNS5_IT0_EE, symObjAddr: 0x9AD0, symBinAddr: 0x100027F1C, symSize: 0x48 }
  - { offsetInCU: 0x4708, offset: 0x7AF33, size: 0x8, addend: 0x0, symName: __ZNSt3__1neB7v160006IPKdEEbRKNS_11__wrap_iterIT_EES7_, symObjAddr: 0x9B18, symBinAddr: 0x100027F64, symSize: 0x34 }
  - { offsetInCU: 0x474B, offset: 0x7AF76, size: 0x8, addend: 0x0, symName: __ZNSt3__14moveB7v160006IPdS1_EET0_T_S3_S2_, symObjAddr: 0x9BAC, symBinAddr: 0x100027FF8, symSize: 0x40 }
  - { offsetInCU: 0x47A5, offset: 0x7AFD0, size: 0x8, addend: 0x0, symName: __ZNSt3__1miB7v160006IPKdS2_EEDTmicldtfp_4baseEcldtfp0_4baseEERKNS_11__wrap_iterIT_EERKNS4_IT0_EE, symObjAddr: 0x9BEC, symBinAddr: 0x100028038, symSize: 0x48 }
  - { offsetInCU: 0x47F1, offset: 0x7B01C, size: 0x8, addend: 0x0, symName: __ZNSt3__1eqB7v160006IPKdEEbRKNS_11__wrap_iterIT_EES7_, symObjAddr: 0x9C60, symBinAddr: 0x1000280AC, symSize: 0x48 }
  - { offsetInCU: 0x4834, offset: 0x7B05F, size: 0x8, addend: 0x0, symName: __ZNSt3__16__moveB7v160006INS_17_ClassicAlgPolicyEPdS2_S2_EENS_4pairIT0_T2_EES4_T1_S5_, symObjAddr: 0x9CA8, symBinAddr: 0x1000280F4, symSize: 0x44 }
  - { offsetInCU: 0x48A0, offset: 0x7B0CB, size: 0x8, addend: 0x0, symName: __ZNSt3__123__dispatch_copy_or_moveB7v160006INS_17_ClassicAlgPolicyENS_11__move_loopIS1_EENS_14__move_trivialEPdS5_S5_EENS_4pairIT2_T4_EES7_T3_S8_, symObjAddr: 0x9CEC, symBinAddr: 0x100028138, symSize: 0x44 }
  - { offsetInCU: 0x491E, offset: 0x7B149, size: 0x8, addend: 0x0, symName: __ZNSt3__121__unwrap_and_dispatchB7v160006INS_10__overloadINS_11__move_loopINS_17_ClassicAlgPolicyEEENS_14__move_trivialEEEPdS7_S7_Li0EEENS_4pairIT0_T2_EES9_T1_SA_, symObjAddr: 0x9D30, symBinAddr: 0x10002817C, symSize: 0xB4 }
  - { offsetInCU: 0x49AD, offset: 0x7B1D8, size: 0x8, addend: 0x0, symName: __ZNSt3__114__unwrap_rangeB7v160006IPdS1_EENS_4pairIT0_S3_EET_S5_, symObjAddr: 0x9DE4, symBinAddr: 0x100028230, symSize: 0x60 }
  - { offsetInCU: 0x4B80, offset: 0x7B3AB, size: 0x8, addend: 0x0, symName: __ZNSt3__113__unwrap_iterB7v160006IPdNS_18__unwrap_iter_implIS1_Lb1EEELi0EEEDTclsrT0_8__unwrapclsr3stdE7declvalIT_EEEES5_, symObjAddr: 0x9E8C, symBinAddr: 0x1000282D8, symSize: 0x24 }
  - { offsetInCU: 0x4BC4, offset: 0x7B3EF, size: 0x8, addend: 0x0, symName: __ZNSt3__19make_pairB7v160006IPdS1_EENS_4pairINS_18__unwrap_ref_decayIT_E4typeENS3_IT0_E4typeEEEOS4_OS7_, symObjAddr: 0x9EB0, symBinAddr: 0x1000282FC, symSize: 0x38 }
  - { offsetInCU: 0x4C14, offset: 0x7B43F, size: 0x8, addend: 0x0, symName: __ZNSt3__114__rewrap_rangeB7v160006IPdS1_EET_S2_T0_, symObjAddr: 0x9EE8, symBinAddr: 0x100028334, symSize: 0x2C }
  - { offsetInCU: 0x4C60, offset: 0x7B48B, size: 0x8, addend: 0x0, symName: __ZNSt3__113__rewrap_iterB7v160006IPdS1_NS_18__unwrap_iter_implIS1_Lb1EEEEET_S4_T0_, symObjAddr: 0x9F14, symBinAddr: 0x100028360, symSize: 0x3C }
  - { offsetInCU: 0x4CB5, offset: 0x7B4E0, size: 0x8, addend: 0x0, symName: __ZNSt3__119__copy_trivial_implB7v160006IddEENS_4pairIPT_PT0_EES3_S3_S5_, symObjAddr: 0x9F50, symBinAddr: 0x10002839C, symSize: 0x84 }
  - { offsetInCU: 0x4D1C, offset: 0x7B547, size: 0x8, addend: 0x0, symName: __ZNSt3__19make_pairB7v160006IRPdS1_EENS_4pairINS_18__unwrap_ref_decayIT_E4typeENS4_IT0_E4typeEEEOS5_OS8_, symObjAddr: 0x9FD4, symBinAddr: 0x100028420, symSize: 0x38 }
  - { offsetInCU: 0x4DBF, offset: 0x7B5EA, size: 0x8, addend: 0x0, symName: __ZNSt3__1miB7v160006IPKiPiEEDTmicldtfp_4baseEcldtfp0_4baseEERKNS_11__wrap_iterIT_EERKNS5_IT0_EE, symObjAddr: 0xA1F4, symBinAddr: 0x1000285AC, symSize: 0x48 }
  - { offsetInCU: 0x4E0B, offset: 0x7B636, size: 0x8, addend: 0x0, symName: __ZNSt3__1neB7v160006IPKiEEbRKNS_11__wrap_iterIT_EES7_, symObjAddr: 0xA23C, symBinAddr: 0x1000285F4, symSize: 0x34 }
  - { offsetInCU: 0x4E4E, offset: 0x7B679, size: 0x8, addend: 0x0, symName: __ZNSt3__14moveB7v160006IPiS1_EET0_T_S3_S2_, symObjAddr: 0xA2D0, symBinAddr: 0x100028688, symSize: 0x40 }
  - { offsetInCU: 0x4EA8, offset: 0x7B6D3, size: 0x8, addend: 0x0, symName: __ZNSt3__1miB7v160006IPKiS2_EEDTmicldtfp_4baseEcldtfp0_4baseEERKNS_11__wrap_iterIT_EERKNS4_IT0_EE, symObjAddr: 0xA310, symBinAddr: 0x1000286C8, symSize: 0x48 }
  - { offsetInCU: 0x4EF4, offset: 0x7B71F, size: 0x8, addend: 0x0, symName: __ZNSt3__1eqB7v160006IPKiEEbRKNS_11__wrap_iterIT_EES7_, symObjAddr: 0xA384, symBinAddr: 0x10002873C, symSize: 0x48 }
  - { offsetInCU: 0x4F37, offset: 0x7B762, size: 0x8, addend: 0x0, symName: __ZNSt3__16__moveB7v160006INS_17_ClassicAlgPolicyEPiS2_S2_EENS_4pairIT0_T2_EES4_T1_S5_, symObjAddr: 0xA3CC, symBinAddr: 0x100028784, symSize: 0x44 }
  - { offsetInCU: 0x4FA3, offset: 0x7B7CE, size: 0x8, addend: 0x0, symName: __ZNSt3__123__dispatch_copy_or_moveB7v160006INS_17_ClassicAlgPolicyENS_11__move_loopIS1_EENS_14__move_trivialEPiS5_S5_EENS_4pairIT2_T4_EES7_T3_S8_, symObjAddr: 0xA410, symBinAddr: 0x1000287C8, symSize: 0x44 }
  - { offsetInCU: 0x5021, offset: 0x7B84C, size: 0x8, addend: 0x0, symName: __ZNSt3__121__unwrap_and_dispatchB7v160006INS_10__overloadINS_11__move_loopINS_17_ClassicAlgPolicyEEENS_14__move_trivialEEEPiS7_S7_Li0EEENS_4pairIT0_T2_EES9_T1_SA_, symObjAddr: 0xA454, symBinAddr: 0x10002880C, symSize: 0xB4 }
  - { offsetInCU: 0x50B0, offset: 0x7B8DB, size: 0x8, addend: 0x0, symName: __ZNSt3__114__unwrap_rangeB7v160006IPiS1_EENS_4pairIT0_S3_EET_S5_, symObjAddr: 0xA508, symBinAddr: 0x1000288C0, symSize: 0x60 }
  - { offsetInCU: 0x51FF, offset: 0x7BA2A, size: 0x8, addend: 0x0, symName: __ZNSt3__113__unwrap_iterB7v160006IPiNS_18__unwrap_iter_implIS1_Lb1EEELi0EEEDTclsrT0_8__unwrapclsr3stdE7declvalIT_EEEES5_, symObjAddr: 0xA5B0, symBinAddr: 0x100028968, symSize: 0x24 }
  - { offsetInCU: 0x5243, offset: 0x7BA6E, size: 0x8, addend: 0x0, symName: __ZNSt3__19make_pairB7v160006IPiS1_EENS_4pairINS_18__unwrap_ref_decayIT_E4typeENS3_IT0_E4typeEEEOS4_OS7_, symObjAddr: 0xA5D4, symBinAddr: 0x10002898C, symSize: 0x38 }
  - { offsetInCU: 0x5293, offset: 0x7BABE, size: 0x8, addend: 0x0, symName: __ZNSt3__114__rewrap_rangeB7v160006IPiS1_EET_S2_T0_, symObjAddr: 0xA60C, symBinAddr: 0x1000289C4, symSize: 0x2C }
  - { offsetInCU: 0x52DF, offset: 0x7BB0A, size: 0x8, addend: 0x0, symName: __ZNSt3__113__rewrap_iterB7v160006IPiS1_NS_18__unwrap_iter_implIS1_Lb1EEEEET_S4_T0_, symObjAddr: 0xA638, symBinAddr: 0x1000289F0, symSize: 0x3C }
  - { offsetInCU: 0x5334, offset: 0x7BB5F, size: 0x8, addend: 0x0, symName: __ZNSt3__119__copy_trivial_implB7v160006IiiEENS_4pairIPT_PT0_EES3_S3_S5_, symObjAddr: 0xA674, symBinAddr: 0x100028A2C, symSize: 0x84 }
  - { offsetInCU: 0x539B, offset: 0x7BBC6, size: 0x8, addend: 0x0, symName: __ZNSt3__19make_pairB7v160006IRPiS1_EENS_4pairINS_18__unwrap_ref_decayIT_E4typeENS4_IT0_E4typeEEEOS5_OS8_, symObjAddr: 0xA6F8, symBinAddr: 0x100028AB0, symSize: 0x38 }
  - { offsetInCU: 0x5E42, offset: 0x7C66D, size: 0x8, addend: 0x0, symName: __ZN3SNN15Neuron_firetimeEid, symObjAddr: 0x1EB4, symBinAddr: 0x100023AEC, symSize: 0x49C }
  - { offsetInCU: 0x7E9A, offset: 0x7E6C5, size: 0x8, addend: 0x0, symName: __ZN3SNNC2Eiifffffffffdddddddddifff, symObjAddr: 0x0, symBinAddr: 0x100021E34, symSize: 0x850 }
  - { offsetInCU: 0x8043, offset: 0x7E86E, size: 0x8, addend: 0x0, symName: __ZN3SNN12Init_neuronsEv, symObjAddr: 0x8CC, symBinAddr: 0x100022684, symSize: 0x170 }
  - { offsetInCU: 0x8087, offset: 0x7E8B2, size: 0x8, addend: 0x0, symName: __ZN3SNN19Init_connection_mapEv, symObjAddr: 0xA3C, symBinAddr: 0x1000227F4, symSize: 0x2FC }
  - { offsetInCU: 0x815E, offset: 0x7E989, size: 0x8, addend: 0x0, symName: __ZN3SNN12Init_weightsEv, symObjAddr: 0xD38, symBinAddr: 0x100022AF0, symSize: 0x2FC }
  - { offsetInCU: 0x81F6, offset: 0x7EA21, size: 0x8, addend: 0x0, symName: __ZN3SNN11Init_delaysEv, symObjAddr: 0x1034, symBinAddr: 0x100022DEC, symSize: 0xA4 }
  - { offsetInCU: 0x8256, offset: 0x7EA81, size: 0x8, addend: 0x0, symName: __ZN3SNNC1Eiifffffffffdddddddddifff, symObjAddr: 0x10D8, symBinAddr: 0x100022E90, symSize: 0x16C }
  - { offsetInCU: 0x83E0, offset: 0x7EC0B, size: 0x8, addend: 0x0, symName: __ZN3SNND2Ev, symObjAddr: 0x1244, symBinAddr: 0x100022FFC, symSize: 0x14 }
  - { offsetInCU: 0x840C, offset: 0x7EC37, size: 0x8, addend: 0x0, symName: __ZN3SNND1Ev, symObjAddr: 0x1258, symBinAddr: 0x100023010, symSize: 0x2C }
  - { offsetInCU: 0x8438, offset: 0x7EC63, size: 0x8, addend: 0x0, symName: __ZN3SNN13Reset_weightsEv, symObjAddr: 0x1284, symBinAddr: 0x10002303C, symSize: 0xB4 }
  - { offsetInCU: 0x8497, offset: 0x7ECC2, size: 0x8, addend: 0x0, symName: __ZN3SNN15bisectionMethodEddidNSt3__18functionIFfidbEEE, symObjAddr: 0x1338, symBinAddr: 0x1000230F0, symSize: 0x1C0 }
  - { offsetInCU: 0x8576, offset: 0x7EDA1, size: 0x8, addend: 0x0, symName: __ZNKSt3__18functionIFfidbEEclEidb, symObjAddr: 0x14F8, symBinAddr: 0x1000232B0, symSize: 0x48 }
  - { offsetInCU: 0x85CB, offset: 0x7EDF6, size: 0x8, addend: 0x0, symName: __Z3absB7v160006f, symObjAddr: 0x1540, symBinAddr: 0x1000232F8, symSize: 0x18 }
  - { offsetInCU: 0x85F7, offset: 0x7EE22, size: 0x8, addend: 0x0, symName: __ZN3SNN11Set_weightsEv, symObjAddr: 0x16D8, symBinAddr: 0x100023310, symSize: 0x268 }
  - { offsetInCU: 0x868F, offset: 0x7EEBA, size: 0x8, addend: 0x0, symName: __Z4sqrtB7v160006IiENSt3__19enable_ifIXsr3std11is_integralIT_EE5valueEdE4typeES2_, symObjAddr: 0x1940, symBinAddr: 0x100023578, symSize: 0x24 }
  - { offsetInCU: 0x86C7, offset: 0x7EEF2, size: 0x8, addend: 0x0, symName: __ZN3SNN20Init_weights_uniformEv, symObjAddr: 0x1964, symBinAddr: 0x10002359C, symSize: 0x28C }
  - { offsetInCU: 0x8761, offset: 0x7EF8C, size: 0x8, addend: 0x0, symName: __ZN3SNN13EPS_potentialEd, symObjAddr: 0x1BF0, symBinAddr: 0x100023828, symSize: 0xC4 }
  - { offsetInCU: 0x87A8, offset: 0x7EFD3, size: 0x8, addend: 0x0, symName: __ZN3SNN15Spike_potentialEdi, symObjAddr: 0x1CB4, symBinAddr: 0x1000238EC, symSize: 0x118 }
  - { offsetInCU: 0x87FE, offset: 0x7F029, size: 0x8, addend: 0x0, symName: __ZN3SNN20Inhibitory_potentialEdi, symObjAddr: 0x1DCC, symBinAddr: 0x100023A04, symSize: 0xE8 }
  - { offsetInCU: 0x8863, offset: 0x7F08E, size: 0x8, addend: 0x0, symName: __ZN3SNN16Neuron_PotentialEidb, symObjAddr: 0x23C0, symBinAddr: 0x100023F88, symSize: 0xC38 }
  - { offsetInCU: 0x8970, offset: 0x7F19B, size: 0x8, addend: 0x0, symName: '__ZNSt3__18functionIFfidbEEC1IZN3SNN15Neuron_firetimeEidE3$_0vEET_', symObjAddr: 0x2FF8, symBinAddr: 0x100024BC0, symSize: 0x34 }
  - { offsetInCU: 0x89B5, offset: 0x7F1E0, size: 0x8, addend: 0x0, symName: __ZNSt3__18functionIFfidbEED1Ev, symObjAddr: 0x302C, symBinAddr: 0x100024BF4, symSize: 0x2C }
  - { offsetInCU: 0x89E1, offset: 0x7F20C, size: 0x8, addend: 0x0, symName: __ZNSt3__16vectorIdNS_9allocatorIdEEE5eraseENS_11__wrap_iterIPKdEES7_, symObjAddr: 0x3080, symBinAddr: 0x100024C20, symSize: 0xE0 }
  - { offsetInCU: 0x8A36, offset: 0x7F261, size: 0x8, addend: 0x0, symName: __ZNSt3__16vectorIdNS_9allocatorIdEEE5beginB7v160006Ev, symObjAddr: 0x3160, symBinAddr: 0x100024D00, symSize: 0x30 }
  - { offsetInCU: 0x8A5E, offset: 0x7F289, size: 0x8, addend: 0x0, symName: __ZNKSt3__111__wrap_iterIPdEplB7v160006El, symObjAddr: 0x3190, symBinAddr: 0x100024D30, symSize: 0x3C }
  - { offsetInCU: 0x8AAB, offset: 0x7F2D6, size: 0x8, addend: 0x0, symName: __ZNSt3__111__wrap_iterIPKdEC1B7v160006IPdEERKNS0_IT_EEPNS_9enable_ifIXsr14is_convertibleIS6_S2_EE5valueEvE4typeE, symObjAddr: 0x31CC, symBinAddr: 0x100024D6C, symSize: 0x3C }
  - { offsetInCU: 0x8AF7, offset: 0x7F322, size: 0x8, addend: 0x0, symName: __ZNSt3__16vectorIiNS_9allocatorIiEEE5eraseENS_11__wrap_iterIPKiEES7_, symObjAddr: 0x3208, symBinAddr: 0x100024DA8, symSize: 0xE0 }
  - { offsetInCU: 0x8B52, offset: 0x7F37D, size: 0x8, addend: 0x0, symName: __ZNSt3__111__wrap_iterIPKiEC1B7v160006IPiEERKNS0_IT_EEPNS_9enable_ifIXsr14is_convertibleIS6_S2_EE5valueEvE4typeE, symObjAddr: 0x3354, symBinAddr: 0x100024E88, symSize: 0x3C }
  - { offsetInCU: 0x8B9E, offset: 0x7F3C9, size: 0x8, addend: 0x0, symName: __ZN3SNN12IE_potentialEdii, symObjAddr: 0x3390, symBinAddr: 0x100024EC4, symSize: 0x154 }
  - { offsetInCU: 0x8C03, offset: 0x7F42E, size: 0x8, addend: 0x0, symName: __ZN3SNN3LTPEidbRS_, symObjAddr: 0x34E4, symBinAddr: 0x100025018, symSize: 0x508 }
  - { offsetInCU: 0x8CDD, offset: 0x7F508, size: 0x8, addend: 0x0, symName: __Z5isnanB7v160006Ua9enable_ifIXLb1EEEd, symObjAddr: 0x39EC, symBinAddr: 0x100025520, symSize: 0x20 }
  - { offsetInCU: 0x8D0C, offset: 0x7F537, size: 0x8, addend: 0x0, symName: __Z5isnanB7v160006f, symObjAddr: 0x3AD8, symBinAddr: 0x100025540, symSize: 0x20 }
  - { offsetInCU: 0x8D3B, offset: 0x7F566, size: 0x8, addend: 0x0, symName: __ZN3SNN6RenormEiRS_, symObjAddr: 0x3AF8, symBinAddr: 0x100025560, symSize: 0x188 }
  - { offsetInCU: 0x8DCB, offset: 0x7F5F6, size: 0x8, addend: 0x0, symName: __ZN3SNN3LTDEiidbRS_, symObjAddr: 0x3C80, symBinAddr: 0x1000256E8, symSize: 0x284 }
  - { offsetInCU: 0x8E6B, offset: 0x7F696, size: 0x8, addend: 0x0, symName: __ZNSt3__16vectorIdNS_9allocatorIdEEE4backB7v160006Ev, symObjAddr: 0x3F04, symBinAddr: 0x10002596C, symSize: 0x1C }
  - { offsetInCU: 0x8E91, offset: 0x7F6BC, size: 0x8, addend: 0x0, symName: __ZN3SNN10Renorm_OptEifRS_, symObjAddr: 0x3F20, symBinAddr: 0x100025988, symSize: 0x1B8 }
  - { offsetInCU: 0x8F13, offset: 0x7F73E, size: 0x8, addend: 0x0, symName: __ZN3SNN12PrintWeightsEv, symObjAddr: 0x40D8, symBinAddr: 0x100025B40, symSize: 0x134 }
  - { offsetInCU: 0x8F76, offset: 0x7F7A1, size: 0x8, addend: 0x0, symName: __ZN3SNN8PrintSNNEv, symObjAddr: 0x420C, symBinAddr: 0x100025C74, symSize: 0x464 }
  - { offsetInCU: 0x8F9F, offset: 0x7F7CA, size: 0x8, addend: 0x0, symName: __ZNSt3__111__wrap_iterIPdEpLB7v160006El, symObjAddr: 0x4670, symBinAddr: 0x1000260D8, symSize: 0x28 }
  - { offsetInCU: 0x8FD3, offset: 0x7F7FE, size: 0x8, addend: 0x0, symName: __ZNSt3__111__wrap_iterIPKdEC2B7v160006IPdEERKNS0_IT_EEPNS_9enable_ifIXsr14is_convertibleIS6_S2_EE5valueEvE4typeE, symObjAddr: 0x4698, symBinAddr: 0x100026100, symSize: 0x40 }
  - { offsetInCU: 0x901F, offset: 0x7F84A, size: 0x8, addend: 0x0, symName: __ZNKSt3__111__wrap_iterIPdE4baseB7v160006Ev, symObjAddr: 0x46D8, symBinAddr: 0x100026140, symSize: 0x18 }
  - { offsetInCU: 0x9045, offset: 0x7F870, size: 0x8, addend: 0x0, symName: __ZNSt3__111__wrap_iterIPKiEC2B7v160006IPiEERKNS0_IT_EEPNS_9enable_ifIXsr14is_convertibleIS6_S2_EE5valueEvE4typeE, symObjAddr: 0x4718, symBinAddr: 0x100026158, symSize: 0x40 }
  - { offsetInCU: 0x9091, offset: 0x7F8BC, size: 0x8, addend: 0x0, symName: __ZNSt3__16vectorIdNS_9allocatorIdEEE11__make_iterB7v160006EPd, symObjAddr: 0x48E8, symBinAddr: 0x100026198, symSize: 0x34 }
  - { offsetInCU: 0x90C6, offset: 0x7F8F1, size: 0x8, addend: 0x0, symName: __ZNSt3__111__wrap_iterIPdEC1B7v160006EPKvS1_, symObjAddr: 0x491C, symBinAddr: 0x1000261CC, symSize: 0x3C }
  - { offsetInCU: 0x910C, offset: 0x7F937, size: 0x8, addend: 0x0, symName: __ZNSt3__111__wrap_iterIPdEC2B7v160006EPKvS1_, symObjAddr: 0x4958, symBinAddr: 0x100026208, symSize: 0x24 }
  - { offsetInCU: 0x9152, offset: 0x7F97D, size: 0x8, addend: 0x0, symName: __ZNKSt3__110__function12__value_funcIFfidbEEclB7v160006EOiOdOb, symObjAddr: 0x4AE8, symBinAddr: 0x10002622C, symSize: 0x68 }
  - { offsetInCU: 0x91AA, offset: 0x7F9D5, size: 0x8, addend: 0x0, symName: __ZNSt3__117bad_function_callC1Ev, symObjAddr: 0x4B88, symBinAddr: 0x1000262CC, symSize: 0x2C }
  - { offsetInCU: 0x91D6, offset: 0x7FA01, size: 0x8, addend: 0x0, symName: __ZNSt3__117bad_function_callD1Ev, symObjAddr: 0x4BB4, symBinAddr: 0x1000262F8, symSize: 0x2C }
  - { offsetInCU: 0x9200, offset: 0x7FA2B, size: 0x8, addend: 0x0, symName: __ZNSt3__117bad_function_callC2Ev, symObjAddr: 0x4BE0, symBinAddr: 0x100026324, symSize: 0x44 }
  - { offsetInCU: 0x922C, offset: 0x7FA57, size: 0x8, addend: 0x0, symName: __ZNSt9exceptionC2B7v160006Ev, symObjAddr: 0x4C24, symBinAddr: 0x100026368, symSize: 0x24 }
  - { offsetInCU: 0x9256, offset: 0x7FA81, size: 0x8, addend: 0x0, symName: __ZNSt3__117bad_function_callD0Ev, symObjAddr: 0x4C48, symBinAddr: 0x10002638C, symSize: 0x30 }
  - { offsetInCU: 0x9280, offset: 0x7FAAB, size: 0x8, addend: 0x0, symName: __ZNSt3__117bad_function_callD2Ev, symObjAddr: 0x4C78, symBinAddr: 0x1000263BC, symSize: 0x2C }
  - { offsetInCU: 0x92E4, offset: 0x7FB0F, size: 0x8, addend: 0x0, symName: '__ZNSt3__18functionIFfidbEEC2IZN3SNN15Neuron_firetimeEidE3$_0vEET_', symObjAddr: 0x7F9C, symBinAddr: 0x1000263E8, symSize: 0x38 }
  - { offsetInCU: 0x9329, offset: 0x7FB54, size: 0x8, addend: 0x0, symName: '__ZNSt3__110__function12__value_funcIFfidbEEC1B7v160006IZN3SNN15Neuron_firetimeEidE3$_0vEEOT_', symObjAddr: 0x7FD4, symBinAddr: 0x100026420, symSize: 0x50 }
  - { offsetInCU: 0x936C, offset: 0x7FB97, size: 0x8, addend: 0x0, symName: '__ZNSt3__19allocatorIZN3SNN15Neuron_firetimeEidE3$_0EC1B7v160006Ev', symObjAddr: 0x8024, symBinAddr: 0x100026470, symSize: 0x2C }
  - { offsetInCU: 0x9396, offset: 0x7FBC1, size: 0x8, addend: 0x0, symName: '__ZNSt3__110__function12__value_funcIFfidbEEC1B7v160006IZN3SNN15Neuron_firetimeEidE3$_0NS_9allocatorIS6_EEEEOT_RKT0_', symObjAddr: 0x8050, symBinAddr: 0x10002649C, symSize: 0x3C }
  - { offsetInCU: 0x93F0, offset: 0x7FC1B, size: 0x8, addend: 0x0, symName: '__ZNSt3__19allocatorIZN3SNN15Neuron_firetimeEidE3$_0EC2B7v160006Ev', symObjAddr: 0x808C, symBinAddr: 0x1000264D8, symSize: 0x2C }
  - { offsetInCU: 0x941A, offset: 0x7FC45, size: 0x8, addend: 0x0, symName: '__ZNSt3__116__non_trivial_ifILb1ENS_9allocatorIZN3SNN15Neuron_firetimeEidE3$_0EEEC2B7v160006Ev', symObjAddr: 0x80B8, symBinAddr: 0x100026504, symSize: 0x14 }
  - { offsetInCU: 0x9444, offset: 0x7FC6F, size: 0x8, addend: 0x0, symName: '__ZNSt3__110__function12__value_funcIFfidbEEC2B7v160006IZN3SNN15Neuron_firetimeEidE3$_0NS_9allocatorIS6_EEEEOT_RKT0_', symObjAddr: 0x80CC, symBinAddr: 0x100026518, symSize: 0x94 }
  - { offsetInCU: 0x94ED, offset: 0x7FD18, size: 0x8, addend: 0x0, symName: '__ZNSt3__19allocatorINS_10__function6__funcIZN3SNN15Neuron_firetimeEidE3$_0NS0_IS4_EEFfidbEEEEC1B7v160006IS4_EERKNS0_IT_EE', symObjAddr: 0x8178, symBinAddr: 0x1000265C4, symSize: 0x34 }
  - { offsetInCU: 0x9531, offset: 0x7FD5C, size: 0x8, addend: 0x0, symName: '__ZNSt3__19allocatorIZN3SNN15Neuron_firetimeEidE3$_0EC1B7v160006INS_10__function6__funcIS2_S3_FfidbEEEEERKNS0_IT_EE', symObjAddr: 0x81AC, symBinAddr: 0x1000265F8, symSize: 0x34 }
  - { offsetInCU: 0x956F, offset: 0x7FD9A, size: 0x8, addend: 0x0, symName: '__ZNSt3__110__function6__funcIZN3SNN15Neuron_firetimeEidE3$_0NS_9allocatorIS3_EEFfidbEEC1B7v160006EOS3_OS5_', symObjAddr: 0x81E0, symBinAddr: 0x10002662C, symSize: 0x3C }
  - { offsetInCU: 0x95B7, offset: 0x7FDE2, size: 0x8, addend: 0x0, symName: '__ZNSt3__19allocatorINS_10__function6__funcIZN3SNN15Neuron_firetimeEidE3$_0NS0_IS4_EEFfidbEEEEC2B7v160006IS4_EERKNS0_IT_EE', symObjAddr: 0x821C, symBinAddr: 0x100026668, symSize: 0x30 }
  - { offsetInCU: 0x95F5, offset: 0x7FE20, size: 0x8, addend: 0x0, symName: '__ZNSt3__116__non_trivial_ifILb1ENS_9allocatorINS_10__function6__funcIZN3SNN15Neuron_firetimeEidE3$_0NS1_IS5_EEFfidbEEEEEEC2B7v160006Ev', symObjAddr: 0x824C, symBinAddr: 0x100026698, symSize: 0x14 }
  - { offsetInCU: 0x961F, offset: 0x7FE4A, size: 0x8, addend: 0x0, symName: '__ZNSt3__19allocatorIZN3SNN15Neuron_firetimeEidE3$_0EC2B7v160006INS_10__function6__funcIS2_S3_FfidbEEEEERKNS0_IT_EE', symObjAddr: 0x8260, symBinAddr: 0x1000266AC, symSize: 0x30 }
  - { offsetInCU: 0x965D, offset: 0x7FE88, size: 0x8, addend: 0x0, symName: '__ZNSt3__110__function6__funcIZN3SNN15Neuron_firetimeEidE3$_0NS_9allocatorIS3_EEFfidbEEC2B7v160006EOS3_OS5_', symObjAddr: 0x8290, symBinAddr: 0x1000266DC, symSize: 0x88 }
  - { offsetInCU: 0x96A5, offset: 0x7FED0, size: 0x8, addend: 0x0, symName: __ZNSt3__110__function6__baseIFfidbEEC2B7v160006Ev, symObjAddr: 0x8318, symBinAddr: 0x100026764, symSize: 0x24 }
  - { offsetInCU: 0x96CF, offset: 0x7FEFA, size: 0x8, addend: 0x0, symName: '__ZNSt3__110__function12__alloc_funcIZN3SNN15Neuron_firetimeEidE3$_0NS_9allocatorIS3_EEFfidbEEC1B7v160006EOS3_OS5_', symObjAddr: 0x833C, symBinAddr: 0x100026788, symSize: 0x3C }
  - { offsetInCU: 0x9715, offset: 0x7FF40, size: 0x8, addend: 0x0, symName: __ZNSt3__110__function6__baseIFfidbEED2Ev, symObjAddr: 0x8378, symBinAddr: 0x1000267C4, symSize: 0x14 }
  - { offsetInCU: 0x973F, offset: 0x7FF6A, size: 0x8, addend: 0x0, symName: '__ZNSt3__110__function6__funcIZN3SNN15Neuron_firetimeEidE3$_0NS_9allocatorIS3_EEFfidbEED1Ev', symObjAddr: 0x838C, symBinAddr: 0x1000267D8, symSize: 0x2C }
  - { offsetInCU: 0x976C, offset: 0x7FF97, size: 0x8, addend: 0x0, symName: '__ZNSt3__110__function6__funcIZN3SNN15Neuron_firetimeEidE3$_0NS_9allocatorIS3_EEFfidbEED0Ev', symObjAddr: 0x83B8, symBinAddr: 0x100026804, symSize: 0x30 }
  - { offsetInCU: 0x9799, offset: 0x7FFC4, size: 0x8, addend: 0x0, symName: '__ZNKSt3__110__function6__funcIZN3SNN15Neuron_firetimeEidE3$_0NS_9allocatorIS3_EEFfidbEE7__cloneEv', symObjAddr: 0x83E8, symBinAddr: 0x100026834, symSize: 0xFC }
  - { offsetInCU: 0x97EB, offset: 0x80016, size: 0x8, addend: 0x0, symName: '__ZNKSt3__110__function6__funcIZN3SNN15Neuron_firetimeEidE3$_0NS_9allocatorIS3_EEFfidbEE7__cloneEPNS0_6__baseIS6_EE', symObjAddr: 0x84E4, symBinAddr: 0x100026930, symSize: 0x58 }
  - { offsetInCU: 0x9822, offset: 0x8004D, size: 0x8, addend: 0x0, symName: '__ZNSt3__110__function6__funcIZN3SNN15Neuron_firetimeEidE3$_0NS_9allocatorIS3_EEFfidbEE7destroyEv', symObjAddr: 0x853C, symBinAddr: 0x100026988, symSize: 0x28 }
  - { offsetInCU: 0x984A, offset: 0x80075, size: 0x8, addend: 0x0, symName: '__ZNSt3__110__function6__funcIZN3SNN15Neuron_firetimeEidE3$_0NS_9allocatorIS3_EEFfidbEE18destroy_deallocateEv', symObjAddr: 0x8564, symBinAddr: 0x1000269B0, symSize: 0x58 }
  - { offsetInCU: 0x988D, offset: 0x800B8, size: 0x8, addend: 0x0, symName: '__ZNSt3__110__function6__funcIZN3SNN15Neuron_firetimeEidE3$_0NS_9allocatorIS3_EEFfidbEEclEOiOdOb', symObjAddr: 0x85BC, symBinAddr: 0x100026A08, symSize: 0x40 }
  - { offsetInCU: 0x98E2, offset: 0x8010D, size: 0x8, addend: 0x0, symName: '__ZNKSt3__110__function6__funcIZN3SNN15Neuron_firetimeEidE3$_0NS_9allocatorIS3_EEFfidbEE6targetERKSt9type_info', symObjAddr: 0x85FC, symBinAddr: 0x100026A48, symSize: 0x60 }
  - { offsetInCU: 0x9919, offset: 0x80144, size: 0x8, addend: 0x0, symName: '__ZNKSt3__110__function6__funcIZN3SNN15Neuron_firetimeEidE3$_0NS_9allocatorIS3_EEFfidbEE11target_typeEv', symObjAddr: 0x865C, symBinAddr: 0x100026AA8, symSize: 0x18 }
  - { offsetInCU: 0x9941, offset: 0x8016C, size: 0x8, addend: 0x0, symName: __ZNSt3__110__function6__baseIFfidbEED1Ev, symObjAddr: 0x8674, symBinAddr: 0x100026AC0, symSize: 0x14 }
  - { offsetInCU: 0x996B, offset: 0x80196, size: 0x8, addend: 0x0, symName: __ZNSt3__110__function6__baseIFfidbEED0Ev, symObjAddr: 0x8688, symBinAddr: 0x100026AD4, symSize: 0xC }
  - { offsetInCU: 0x9995, offset: 0x801C0, size: 0x8, addend: 0x0, symName: '__ZNSt3__110__function12__alloc_funcIZN3SNN15Neuron_firetimeEidE3$_0NS_9allocatorIS3_EEFfidbEEC2B7v160006EOS3_OS5_', symObjAddr: 0x8694, symBinAddr: 0x100026AE0, symSize: 0x5C }
  - { offsetInCU: 0x99DB, offset: 0x80206, size: 0x8, addend: 0x0, symName: '__ZNSt3__117__compressed_pairIZN3SNN15Neuron_firetimeEidE3$_0NS_9allocatorIS2_EEEC1B7v160006IJOS2_EJOS4_EEENS_21piecewise_construct_tENS_5tupleIJDpT_EEENSA_IJDpT0_EEE', symObjAddr: 0x8748, symBinAddr: 0x100026B94, symSize: 0x3C }
  - { offsetInCU: 0x9A45, offset: 0x80270, size: 0x8, addend: 0x0, symName: '__ZNSt3__15tupleIJOZN3SNN15Neuron_firetimeEidE3$_0EEC1B7v160006IJS2_ELi0EEEDpOT_', symObjAddr: 0x8784, symBinAddr: 0x100026BD0, symSize: 0x34 }
  - { offsetInCU: 0x9A90, offset: 0x802BB, size: 0x8, addend: 0x0, symName: '__ZNSt3__15tupleIJOZN3SNN15Neuron_firetimeEidE3$_0EEC2B7v160006IJS2_ELi0EEEDpOT_', symObjAddr: 0x87B8, symBinAddr: 0x100026C04, symSize: 0x34 }
  - { offsetInCU: 0x9ADB, offset: 0x80306, size: 0x8, addend: 0x0, symName: '__ZNSt3__112__tuple_implINS_15__tuple_indicesIJLm0EEEEJOZN3SNN15Neuron_firetimeEidE3$_0EEC1B7v160006IJLm0EEJS5_EJEJEJS4_EEENS1_IJXspT_EEEENS_13__tuple_typesIJDpT0_EEENS1_IJXspT1_EEEENS9_IJDpT2_EEEDpOT3_', symObjAddr: 0x87EC, symBinAddr: 0x100026C38, symSize: 0x34 }
  - { offsetInCU: 0x9B6E, offset: 0x80399, size: 0x8, addend: 0x0, symName: '__ZNSt3__112__tuple_implINS_15__tuple_indicesIJLm0EEEEJOZN3SNN15Neuron_firetimeEidE3$_0EEC2B7v160006IJLm0EEJS5_EJEJEJS4_EEENS1_IJXspT_EEEENS_13__tuple_typesIJDpT0_EEENS1_IJXspT1_EEEENS9_IJDpT2_EEEDpOT3_', symObjAddr: 0x8820, symBinAddr: 0x100026C6C, symSize: 0x34 }
  - { offsetInCU: 0x9C01, offset: 0x8042C, size: 0x8, addend: 0x0, symName: '__ZNSt3__112__tuple_leafILm0EOZN3SNN15Neuron_firetimeEidE3$_0Lb0EEC2B7v160006IS2_vEEOT_', symObjAddr: 0x8854, symBinAddr: 0x100026CA0, symSize: 0x20 }
  - { offsetInCU: 0x9C44, offset: 0x8046F, size: 0x8, addend: 0x0, symName: '__ZNSt3__15tupleIJONS_9allocatorIZN3SNN15Neuron_firetimeEidE3$_0EEEEC1B7v160006IJS4_ELi0EEEDpOT_', symObjAddr: 0x8874, symBinAddr: 0x100026CC0, symSize: 0x34 }
  - { offsetInCU: 0x9C8F, offset: 0x804BA, size: 0x8, addend: 0x0, symName: '__ZNSt3__15tupleIJONS_9allocatorIZN3SNN15Neuron_firetimeEidE3$_0EEEEC2B7v160006IJS4_ELi0EEEDpOT_', symObjAddr: 0x88A8, symBinAddr: 0x100026CF4, symSize: 0x34 }
  - { offsetInCU: 0x9CDA, offset: 0x80505, size: 0x8, addend: 0x0, symName: '__ZNSt3__112__tuple_implINS_15__tuple_indicesIJLm0EEEEJONS_9allocatorIZN3SNN15Neuron_firetimeEidE3$_0EEEEC1B7v160006IJLm0EEJS7_EJEJEJS6_EEENS1_IJXspT_EEEENS_13__tuple_typesIJDpT0_EEENS1_IJXspT1_EEEENSB_IJDpT2_EEEDpOT3_', symObjAddr: 0x88DC, symBinAddr: 0x100026D28, symSize: 0x34 }
  - { offsetInCU: 0x9D6D, offset: 0x80598, size: 0x8, addend: 0x0, symName: '__ZNSt3__112__tuple_implINS_15__tuple_indicesIJLm0EEEEJONS_9allocatorIZN3SNN15Neuron_firetimeEidE3$_0EEEEC2B7v160006IJLm0EEJS7_EJEJEJS6_EEENS1_IJXspT_EEEENS_13__tuple_typesIJDpT0_EEENS1_IJXspT1_EEEENSB_IJDpT2_EEEDpOT3_', symObjAddr: 0x8910, symBinAddr: 0x100026D5C, symSize: 0x34 }
  - { offsetInCU: 0x9E00, offset: 0x8062B, size: 0x8, addend: 0x0, symName: '__ZNSt3__112__tuple_leafILm0EONS_9allocatorIZN3SNN15Neuron_firetimeEidE3$_0EELb0EEC2B7v160006IS4_vEEOT_', symObjAddr: 0x8944, symBinAddr: 0x100026D90, symSize: 0x20 }
  - { offsetInCU: 0x9E43, offset: 0x8066E, size: 0x8, addend: 0x0, symName: '__ZNSt3__117__compressed_pairIZN3SNN15Neuron_firetimeEidE3$_0NS_9allocatorIS2_EEEC2B7v160006IJOS2_EJOS4_EEENS_21piecewise_construct_tENS_5tupleIJDpT_EEENSA_IJDpT0_EEE', symObjAddr: 0x8964, symBinAddr: 0x100026DB0, symSize: 0x54 }
  - { offsetInCU: 0x9EAD, offset: 0x806D8, size: 0x8, addend: 0x0, symName: '__ZNSt3__122__compressed_pair_elemIZN3SNN15Neuron_firetimeEidE3$_0Li0ELb0EEC2B7v160006IJOS2_EJLm0EEEENS_21piecewise_construct_tENS_5tupleIJDpT_EEENS_15__tuple_indicesIJXspT0_EEEE', symObjAddr: 0x89B8, symBinAddr: 0x100026E04, symSize: 0x44 }
  - { offsetInCU: 0x9F12, offset: 0x8073D, size: 0x8, addend: 0x0, symName: '__ZNSt3__122__compressed_pair_elemINS_9allocatorIZN3SNN15Neuron_firetimeEidE3$_0EELi1ELb1EEC2B7v160006IJOS4_EJLm0EEEENS_21piecewise_construct_tENS_5tupleIJDpT_EEENS_15__tuple_indicesIJXspT0_EEEE', symObjAddr: 0x89FC, symBinAddr: 0x100026E48, symSize: 0x38 }
  - { offsetInCU: 0x9F77, offset: 0x807A2, size: 0x8, addend: 0x0, symName: '__ZNSt3__112__tuple_leafILm0EOZN3SNN15Neuron_firetimeEidE3$_0Lb0EE3getB7v160006Ev', symObjAddr: 0x8A58, symBinAddr: 0x100026EA4, symSize: 0x18 }
  - { offsetInCU: 0x9F9D, offset: 0x807C8, size: 0x8, addend: 0x0, symName: '__ZNSt3__112__tuple_leafILm0EONS_9allocatorIZN3SNN15Neuron_firetimeEidE3$_0EELb0EE3getB7v160006Ev', symObjAddr: 0x8A94, symBinAddr: 0x100026EE0, symSize: 0x18 }
  - { offsetInCU: 0x9FC3, offset: 0x807EE, size: 0x8, addend: 0x0, symName: '__ZNSt3__110__function6__funcIZN3SNN15Neuron_firetimeEidE3$_0NS_9allocatorIS3_EEFfidbEED2Ev', symObjAddr: 0x8AAC, symBinAddr: 0x100026EF8, symSize: 0x2C }
  - { offsetInCU: 0x9FF0, offset: 0x8081B, size: 0x8, addend: 0x0, symName: '__ZNKSt3__110__function12__alloc_funcIZN3SNN15Neuron_firetimeEidE3$_0NS_9allocatorIS3_EEFfidbEE15__get_allocatorB7v160006Ev', symObjAddr: 0x8AD8, symBinAddr: 0x100026F24, symSize: 0x24 }
  - { offsetInCU: 0xA016, offset: 0x80841, size: 0x8, addend: 0x0, symName: '__ZNSt3__19allocatorINS_10__function6__funcIZN3SNN15Neuron_firetimeEidE3$_0NS0_IS4_EEFfidbEEEE8allocateB7v160006Em', symObjAddr: 0x8AFC, symBinAddr: 0x100026F48, symSize: 0x58 }
  - { offsetInCU: 0xA05B, offset: 0x80886, size: 0x8, addend: 0x0, symName: '__ZNSt3__122__allocator_destructorINS_9allocatorINS_10__function6__funcIZN3SNN15Neuron_firetimeEidE3$_0NS1_IS5_EEFfidbEEEEEEC1B7v160006ERS9_m', symObjAddr: 0x8B54, symBinAddr: 0x100026FA0, symSize: 0x3C }
  - { offsetInCU: 0xA13E, offset: 0x80969, size: 0x8, addend: 0x0, symName: '__ZNSt3__110unique_ptrINS_10__function6__funcIZN3SNN15Neuron_firetimeEidE3$_0NS_9allocatorIS4_EEFfidbEEENS_22__allocator_destructorINS5_IS8_EEEEEC1B7v160006ILb1EvEEPS8_NS_16__dependent_typeINS_27__unique_ptr_deleter_sfinaeISB_EEXT_EE20__good_rval_ref_typeE', symObjAddr: 0x8B90, symBinAddr: 0x100026FDC, symSize: 0x3C }
  - { offsetInCU: 0xA18F, offset: 0x809BA, size: 0x8, addend: 0x0, symName: '__ZNKSt3__110unique_ptrINS_10__function6__funcIZN3SNN15Neuron_firetimeEidE3$_0NS_9allocatorIS4_EEFfidbEEENS_22__allocator_destructorINS5_IS8_EEEEE3getB7v160006Ev', symObjAddr: 0x8BCC, symBinAddr: 0x100027018, symSize: 0x28 }
  - { offsetInCU: 0xA1B5, offset: 0x809E0, size: 0x8, addend: 0x0, symName: '__ZNKSt3__110__function12__alloc_funcIZN3SNN15Neuron_firetimeEidE3$_0NS_9allocatorIS3_EEFfidbEE8__targetB7v160006Ev', symObjAddr: 0x8BF4, symBinAddr: 0x100027040, symSize: 0x24 }
  - { offsetInCU: 0xA1DB, offset: 0x80A06, size: 0x8, addend: 0x0, symName: '__ZNSt3__110__function6__funcIZN3SNN15Neuron_firetimeEidE3$_0NS_9allocatorIS3_EEFfidbEEC1B7v160006ERKS3_OS5_', symObjAddr: 0x8C18, symBinAddr: 0x100027064, symSize: 0x3C }
  - { offsetInCU: 0xA223, offset: 0x80A4E, size: 0x8, addend: 0x0, symName: '__ZNSt3__110unique_ptrINS_10__function6__funcIZN3SNN15Neuron_firetimeEidE3$_0NS_9allocatorIS4_EEFfidbEEENS_22__allocator_destructorINS5_IS8_EEEEE7releaseB7v160006Ev', symObjAddr: 0x8C54, symBinAddr: 0x1000270A0, symSize: 0x44 }
  - { offsetInCU: 0xA258, offset: 0x80A83, size: 0x8, addend: 0x0, symName: '__ZNSt3__110unique_ptrINS_10__function6__funcIZN3SNN15Neuron_firetimeEidE3$_0NS_9allocatorIS4_EEFfidbEEENS_22__allocator_destructorINS5_IS8_EEEEED1B7v160006Ev', symObjAddr: 0x8C98, symBinAddr: 0x1000270E4, symSize: 0x2C }
  - { offsetInCU: 0xA282, offset: 0x80AAD, size: 0x8, addend: 0x0, symName: '__ZNKSt3__117__compressed_pairIZN3SNN15Neuron_firetimeEidE3$_0NS_9allocatorIS2_EEE6secondB7v160006Ev', symObjAddr: 0x8CC4, symBinAddr: 0x100027110, symSize: 0x24 }
  - { offsetInCU: 0xA2A8, offset: 0x80AD3, size: 0x8, addend: 0x0, symName: '__ZNKSt3__122__compressed_pair_elemINS_9allocatorIZN3SNN15Neuron_firetimeEidE3$_0EELi1ELb1EE5__getB7v160006Ev', symObjAddr: 0x8CE8, symBinAddr: 0x100027134, symSize: 0x14 }
  - { offsetInCU: 0xA2DA, offset: 0x80B05, size: 0x8, addend: 0x0, symName: '__ZNSt3__116allocator_traitsINS_9allocatorINS_10__function6__funcIZN3SNN15Neuron_firetimeEidE3$_0NS1_IS5_EEFfidbEEEEEE8max_sizeB7v160006IS9_vEEmRKS9_', symObjAddr: 0x8CFC, symBinAddr: 0x100027148, symSize: 0x24 }
  - { offsetInCU: 0xA308, offset: 0x80B33, size: 0x8, addend: 0x0, symName: '__ZNKSt3__19allocatorINS_10__function6__funcIZN3SNN15Neuron_firetimeEidE3$_0NS0_IS4_EEFfidbEEEE8max_sizeB7v160006Ev', symObjAddr: 0x8D20, symBinAddr: 0x10002716C, symSize: 0x14 }
  - { offsetInCU: 0xA32E, offset: 0x80B59, size: 0x8, addend: 0x0, symName: '__ZNSt3__122__allocator_destructorINS_9allocatorINS_10__function6__funcIZN3SNN15Neuron_firetimeEidE3$_0NS1_IS5_EEFfidbEEEEEEC2B7v160006ERS9_m', symObjAddr: 0x8D34, symBinAddr: 0x100027180, symSize: 0x2C }
  - { offsetInCU: 0xA374, offset: 0x80B9F, size: 0x8, addend: 0x0, symName: '__ZNSt3__110unique_ptrINS_10__function6__funcIZN3SNN15Neuron_firetimeEidE3$_0NS_9allocatorIS4_EEFfidbEEENS_22__allocator_destructorINS5_IS8_EEEEEC2B7v160006ILb1EvEEPS8_NS_16__dependent_typeINS_27__unique_ptr_deleter_sfinaeISB_EEXT_EE20__good_rval_ref_typeE', symObjAddr: 0x8D60, symBinAddr: 0x1000271AC, symSize: 0x48 }
  - { offsetInCU: 0xA3C5, offset: 0x80BF0, size: 0x8, addend: 0x0, symName: '__ZNSt3__117__compressed_pairIPNS_10__function6__funcIZN3SNN15Neuron_firetimeEidE3$_0NS_9allocatorIS4_EEFfidbEEENS_22__allocator_destructorINS5_IS8_EEEEEC1B7v160006IRS9_SC_EEOT_OT0_', symObjAddr: 0x8DA8, symBinAddr: 0x1000271F4, symSize: 0x3C }
  - { offsetInCU: 0xA41D, offset: 0x80C48, size: 0x8, addend: 0x0, symName: '__ZNSt3__117__compressed_pairIPNS_10__function6__funcIZN3SNN15Neuron_firetimeEidE3$_0NS_9allocatorIS4_EEFfidbEEENS_22__allocator_destructorINS5_IS8_EEEEEC2B7v160006IRS9_SC_EEOT_OT0_', symObjAddr: 0x8DE4, symBinAddr: 0x100027230, symSize: 0x48 }
  - { offsetInCU: 0xA475, offset: 0x80CA0, size: 0x8, addend: 0x0, symName: '__ZNSt3__122__compressed_pair_elemIPNS_10__function6__funcIZN3SNN15Neuron_firetimeEidE3$_0NS_9allocatorIS4_EEFfidbEEELi0ELb0EEC2B7v160006IRS9_vEEOT_', symObjAddr: 0x8E2C, symBinAddr: 0x100027278, symSize: 0x24 }
  - { offsetInCU: 0xA4B7, offset: 0x80CE2, size: 0x8, addend: 0x0, symName: '__ZNSt3__122__compressed_pair_elemINS_22__allocator_destructorINS_9allocatorINS_10__function6__funcIZN3SNN15Neuron_firetimeEidE3$_0NS2_IS6_EEFfidbEEEEEEELi1ELb0EEC2B7v160006ISB_vEEOT_', symObjAddr: 0x8E50, symBinAddr: 0x10002729C, symSize: 0x24 }
  - { offsetInCU: 0xA4F9, offset: 0x80D24, size: 0x8, addend: 0x0, symName: '__ZNKSt3__117__compressed_pairIPNS_10__function6__funcIZN3SNN15Neuron_firetimeEidE3$_0NS_9allocatorIS4_EEFfidbEEENS_22__allocator_destructorINS5_IS8_EEEEE5firstB7v160006Ev', symObjAddr: 0x8E74, symBinAddr: 0x1000272C0, symSize: 0x24 }
  - { offsetInCU: 0xA51F, offset: 0x80D4A, size: 0x8, addend: 0x0, symName: '__ZNKSt3__122__compressed_pair_elemIPNS_10__function6__funcIZN3SNN15Neuron_firetimeEidE3$_0NS_9allocatorIS4_EEFfidbEEELi0ELb0EE5__getB7v160006Ev', symObjAddr: 0x8E98, symBinAddr: 0x1000272E4, symSize: 0x14 }
  - { offsetInCU: 0xA545, offset: 0x80D70, size: 0x8, addend: 0x0, symName: '__ZNKSt3__117__compressed_pairIZN3SNN15Neuron_firetimeEidE3$_0NS_9allocatorIS2_EEE5firstB7v160006Ev', symObjAddr: 0x8EAC, symBinAddr: 0x1000272F8, symSize: 0x24 }
  - { offsetInCU: 0xA56B, offset: 0x80D96, size: 0x8, addend: 0x0, symName: '__ZNKSt3__122__compressed_pair_elemIZN3SNN15Neuron_firetimeEidE3$_0Li0ELb0EE5__getB7v160006Ev', symObjAddr: 0x8ED0, symBinAddr: 0x10002731C, symSize: 0x14 }
  - { offsetInCU: 0xA591, offset: 0x80DBC, size: 0x8, addend: 0x0, symName: '__ZNSt3__110__function6__funcIZN3SNN15Neuron_firetimeEidE3$_0NS_9allocatorIS3_EEFfidbEEC2B7v160006ERKS3_OS5_', symObjAddr: 0x8EE4, symBinAddr: 0x100027330, symSize: 0x88 }
  - { offsetInCU: 0xA5D9, offset: 0x80E04, size: 0x8, addend: 0x0, symName: '__ZNSt3__110__function12__alloc_funcIZN3SNN15Neuron_firetimeEidE3$_0NS_9allocatorIS3_EEFfidbEEC1B7v160006ERKS3_OS5_', symObjAddr: 0x8F6C, symBinAddr: 0x1000273B8, symSize: 0x3C }
  - { offsetInCU: 0xA61F, offset: 0x80E4A, size: 0x8, addend: 0x0, symName: '__ZNSt3__110__function12__alloc_funcIZN3SNN15Neuron_firetimeEidE3$_0NS_9allocatorIS3_EEFfidbEEC2B7v160006ERKS3_OS5_', symObjAddr: 0x8FA8, symBinAddr: 0x1000273F4, symSize: 0x5C }
  - { offsetInCU: 0xA665, offset: 0x80E90, size: 0x8, addend: 0x0, symName: '__ZNSt3__117__compressed_pairIZN3SNN15Neuron_firetimeEidE3$_0NS_9allocatorIS2_EEEC1B7v160006IJRKS2_EJOS4_EEENS_21piecewise_construct_tENS_5tupleIJDpT_EEENSB_IJDpT0_EEE', symObjAddr: 0x9030, symBinAddr: 0x10002747C, symSize: 0x3C }
  - { offsetInCU: 0xA6CF, offset: 0x80EFA, size: 0x8, addend: 0x0, symName: '__ZNSt3__15tupleIJRKZN3SNN15Neuron_firetimeEidE3$_0EEC1B7v160006INS_4_AndELi0EEES4_', symObjAddr: 0x906C, symBinAddr: 0x1000274B8, symSize: 0x34 }
  - { offsetInCU: 0xA719, offset: 0x80F44, size: 0x8, addend: 0x0, symName: '__ZNSt3__15tupleIJRKZN3SNN15Neuron_firetimeEidE3$_0EEC2B7v160006INS_4_AndELi0EEES4_', symObjAddr: 0x90A0, symBinAddr: 0x1000274EC, symSize: 0x34 }
  - { offsetInCU: 0xA763, offset: 0x80F8E, size: 0x8, addend: 0x0, symName: '__ZNSt3__112__tuple_implINS_15__tuple_indicesIJLm0EEEEJRKZN3SNN15Neuron_firetimeEidE3$_0EEC1B7v160006IJLm0EEJS6_EJEJEJS6_EEENS1_IJXspT_EEEENS_13__tuple_typesIJDpT0_EEENS1_IJXspT1_EEEENSA_IJDpT2_EEEDpOT3_', symObjAddr: 0x90D4, symBinAddr: 0x100027520, symSize: 0x34 }
  - { offsetInCU: 0xA7F6, offset: 0x81021, size: 0x8, addend: 0x0, symName: '__ZNSt3__112__tuple_implINS_15__tuple_indicesIJLm0EEEEJRKZN3SNN15Neuron_firetimeEidE3$_0EEC2B7v160006IJLm0EEJS6_EJEJEJS6_EEENS1_IJXspT_EEEENS_13__tuple_typesIJDpT0_EEENS1_IJXspT1_EEEENSA_IJDpT2_EEEDpOT3_', symObjAddr: 0x9108, symBinAddr: 0x100027554, symSize: 0x34 }
  - { offsetInCU: 0xA889, offset: 0x810B4, size: 0x8, addend: 0x0, symName: '__ZNSt3__112__tuple_leafILm0ERKZN3SNN15Neuron_firetimeEidE3$_0Lb0EEC2B7v160006IS4_vEEOT_', symObjAddr: 0x913C, symBinAddr: 0x100027588, symSize: 0x20 }
  - { offsetInCU: 0xA8CC, offset: 0x810F7, size: 0x8, addend: 0x0, symName: '__ZNSt3__117__compressed_pairIZN3SNN15Neuron_firetimeEidE3$_0NS_9allocatorIS2_EEEC2B7v160006IJRKS2_EJOS4_EEENS_21piecewise_construct_tENS_5tupleIJDpT_EEENSB_IJDpT0_EEE', symObjAddr: 0x915C, symBinAddr: 0x1000275A8, symSize: 0x54 }
  - { offsetInCU: 0xA936, offset: 0x81161, size: 0x8, addend: 0x0, symName: '__ZNSt3__122__compressed_pair_elemIZN3SNN15Neuron_firetimeEidE3$_0Li0ELb0EEC2B7v160006IJRKS2_EJLm0EEEENS_21piecewise_construct_tENS_5tupleIJDpT_EEENS_15__tuple_indicesIJXspT0_EEEE', symObjAddr: 0x91B0, symBinAddr: 0x1000275FC, symSize: 0x44 }
  - { offsetInCU: 0xA99B, offset: 0x811C6, size: 0x8, addend: 0x0, symName: '__ZNSt3__112__tuple_leafILm0ERKZN3SNN15Neuron_firetimeEidE3$_0Lb0EE3getB7v160006Ev', symObjAddr: 0x9218, symBinAddr: 0x100027664, symSize: 0x18 }
  - { offsetInCU: 0xA9C1, offset: 0x811EC, size: 0x8, addend: 0x0, symName: '__ZNSt3__117__compressed_pairIPNS_10__function6__funcIZN3SNN15Neuron_firetimeEidE3$_0NS_9allocatorIS4_EEFfidbEEENS_22__allocator_destructorINS5_IS8_EEEEE5firstB7v160006Ev', symObjAddr: 0x9230, symBinAddr: 0x10002767C, symSize: 0x24 }
  - { offsetInCU: 0xA9E7, offset: 0x81212, size: 0x8, addend: 0x0, symName: '__ZNSt3__122__compressed_pair_elemIPNS_10__function6__funcIZN3SNN15Neuron_firetimeEidE3$_0NS_9allocatorIS4_EEFfidbEEELi0ELb0EE5__getB7v160006Ev', symObjAddr: 0x9254, symBinAddr: 0x1000276A0, symSize: 0x14 }
  - { offsetInCU: 0xAA0D, offset: 0x81238, size: 0x8, addend: 0x0, symName: '__ZNSt3__110unique_ptrINS_10__function6__funcIZN3SNN15Neuron_firetimeEidE3$_0NS_9allocatorIS4_EEFfidbEEENS_22__allocator_destructorINS5_IS8_EEEEED2B7v160006Ev', symObjAddr: 0x9268, symBinAddr: 0x1000276B4, symSize: 0x30 }
  - { offsetInCU: 0xAA37, offset: 0x81262, size: 0x8, addend: 0x0, symName: '__ZNSt3__110unique_ptrINS_10__function6__funcIZN3SNN15Neuron_firetimeEidE3$_0NS_9allocatorIS4_EEFfidbEEENS_22__allocator_destructorINS5_IS8_EEEEE5resetB7v160006EPS8_', symObjAddr: 0x9298, symBinAddr: 0x1000276E4, symSize: 0x78 }
  - { offsetInCU: 0xAA7B, offset: 0x812A6, size: 0x8, addend: 0x0, symName: '__ZNSt3__117__compressed_pairIPNS_10__function6__funcIZN3SNN15Neuron_firetimeEidE3$_0NS_9allocatorIS4_EEFfidbEEENS_22__allocator_destructorINS5_IS8_EEEEE6secondB7v160006Ev', symObjAddr: 0x9310, symBinAddr: 0x10002775C, symSize: 0x28 }
  - { offsetInCU: 0xAAA1, offset: 0x812CC, size: 0x8, addend: 0x0, symName: '__ZNSt3__122__allocator_destructorINS_9allocatorINS_10__function6__funcIZN3SNN15Neuron_firetimeEidE3$_0NS1_IS5_EEFfidbEEEEEEclB7v160006EPS8_', symObjAddr: 0x9338, symBinAddr: 0x100027784, symSize: 0x34 }
  - { offsetInCU: 0xAAD5, offset: 0x81300, size: 0x8, addend: 0x0, symName: '__ZNSt3__122__compressed_pair_elemINS_22__allocator_destructorINS_9allocatorINS_10__function6__funcIZN3SNN15Neuron_firetimeEidE3$_0NS2_IS6_EEFfidbEEEEEEELi1ELb0EE5__getB7v160006Ev', symObjAddr: 0x936C, symBinAddr: 0x1000277B8, symSize: 0x14 }
  - { offsetInCU: 0xAAFB, offset: 0x81326, size: 0x8, addend: 0x0, symName: '__ZNSt3__116allocator_traitsINS_9allocatorINS_10__function6__funcIZN3SNN15Neuron_firetimeEidE3$_0NS1_IS5_EEFfidbEEEEEE10deallocateB7v160006ERS9_PS8_m', symObjAddr: 0x9380, symBinAddr: 0x1000277CC, symSize: 0x34 }
  - { offsetInCU: 0xAB3D, offset: 0x81368, size: 0x8, addend: 0x0, symName: '__ZNSt3__19allocatorINS_10__function6__funcIZN3SNN15Neuron_firetimeEidE3$_0NS0_IS4_EEFfidbEEEE10deallocateB7v160006EPS7_m', symObjAddr: 0x93B4, symBinAddr: 0x100027800, symSize: 0x40 }
  - { offsetInCU: 0xAB7F, offset: 0x813AA, size: 0x8, addend: 0x0, symName: '__ZNSt3__110__function6__funcIZN3SNN15Neuron_firetimeEidE3$_0NS_9allocatorIS3_EEFfidbEEC1B7v160006ERKS3_RKS5_', symObjAddr: 0x93F4, symBinAddr: 0x100027840, symSize: 0x3C }
  - { offsetInCU: 0xABC7, offset: 0x813F2, size: 0x8, addend: 0x0, symName: '__ZNSt3__110__function6__funcIZN3SNN15Neuron_firetimeEidE3$_0NS_9allocatorIS3_EEFfidbEEC2B7v160006ERKS3_RKS5_', symObjAddr: 0x9430, symBinAddr: 0x10002787C, symSize: 0x88 }
  - { offsetInCU: 0xAC0F, offset: 0x8143A, size: 0x8, addend: 0x0, symName: '__ZNSt3__110__function12__alloc_funcIZN3SNN15Neuron_firetimeEidE3$_0NS_9allocatorIS3_EEFfidbEEC1B7v160006ERKS3_RKS5_', symObjAddr: 0x94B8, symBinAddr: 0x100027904, symSize: 0x3C }
  - { offsetInCU: 0xAC55, offset: 0x81480, size: 0x8, addend: 0x0, symName: '__ZNSt3__110__function12__alloc_funcIZN3SNN15Neuron_firetimeEidE3$_0NS_9allocatorIS3_EEFfidbEEC2B7v160006ERKS3_RKS5_', symObjAddr: 0x94F4, symBinAddr: 0x100027940, symSize: 0x5C }
  - { offsetInCU: 0xAC9B, offset: 0x814C6, size: 0x8, addend: 0x0, symName: '__ZNSt3__117__compressed_pairIZN3SNN15Neuron_firetimeEidE3$_0NS_9allocatorIS2_EEEC1B7v160006IJRKS2_EJRKS4_EEENS_21piecewise_construct_tENS_5tupleIJDpT_EEENSC_IJDpT0_EEE', symObjAddr: 0x957C, symBinAddr: 0x1000279C8, symSize: 0x3C }
  - { offsetInCU: 0xAD05, offset: 0x81530, size: 0x8, addend: 0x0, symName: '__ZNSt3__15tupleIJRKNS_9allocatorIZN3SNN15Neuron_firetimeEidE3$_0EEEEC1B7v160006INS_4_AndELi0EEES6_', symObjAddr: 0x95B8, symBinAddr: 0x100027A04, symSize: 0x34 }
  - { offsetInCU: 0xAD4F, offset: 0x8157A, size: 0x8, addend: 0x0, symName: '__ZNSt3__15tupleIJRKNS_9allocatorIZN3SNN15Neuron_firetimeEidE3$_0EEEEC2B7v160006INS_4_AndELi0EEES6_', symObjAddr: 0x95EC, symBinAddr: 0x100027A38, symSize: 0x34 }
  - { offsetInCU: 0xAD99, offset: 0x815C4, size: 0x8, addend: 0x0, symName: '__ZNSt3__112__tuple_implINS_15__tuple_indicesIJLm0EEEEJRKNS_9allocatorIZN3SNN15Neuron_firetimeEidE3$_0EEEEC1B7v160006IJLm0EEJS8_EJEJEJS8_EEENS1_IJXspT_EEEENS_13__tuple_typesIJDpT0_EEENS1_IJXspT1_EEEENSC_IJDpT2_EEEDpOT3_', symObjAddr: 0x9620, symBinAddr: 0x100027A6C, symSize: 0x34 }
  - { offsetInCU: 0xAE2C, offset: 0x81657, size: 0x8, addend: 0x0, symName: '__ZNSt3__112__tuple_implINS_15__tuple_indicesIJLm0EEEEJRKNS_9allocatorIZN3SNN15Neuron_firetimeEidE3$_0EEEEC2B7v160006IJLm0EEJS8_EJEJEJS8_EEENS1_IJXspT_EEEENS_13__tuple_typesIJDpT0_EEENS1_IJXspT1_EEEENSC_IJDpT2_EEEDpOT3_', symObjAddr: 0x9654, symBinAddr: 0x100027AA0, symSize: 0x34 }
  - { offsetInCU: 0xAEBF, offset: 0x816EA, size: 0x8, addend: 0x0, symName: '__ZNSt3__112__tuple_leafILm0ERKNS_9allocatorIZN3SNN15Neuron_firetimeEidE3$_0EELb0EEC2B7v160006IS6_vEEOT_', symObjAddr: 0x9688, symBinAddr: 0x100027AD4, symSize: 0x20 }
  - { offsetInCU: 0xAF02, offset: 0x8172D, size: 0x8, addend: 0x0, symName: '__ZNSt3__117__compressed_pairIZN3SNN15Neuron_firetimeEidE3$_0NS_9allocatorIS2_EEEC2B7v160006IJRKS2_EJRKS4_EEENS_21piecewise_construct_tENS_5tupleIJDpT_EEENSC_IJDpT0_EEE', symObjAddr: 0x96A8, symBinAddr: 0x100027AF4, symSize: 0x54 }
  - { offsetInCU: 0xAF6C, offset: 0x81797, size: 0x8, addend: 0x0, symName: '__ZNSt3__122__compressed_pair_elemINS_9allocatorIZN3SNN15Neuron_firetimeEidE3$_0EELi1ELb1EEC2B7v160006IJRKS4_EJLm0EEEENS_21piecewise_construct_tENS_5tupleIJDpT_EEENS_15__tuple_indicesIJXspT0_EEEE', symObjAddr: 0x96FC, symBinAddr: 0x100027B48, symSize: 0x38 }
  - { offsetInCU: 0xAFD1, offset: 0x817FC, size: 0x8, addend: 0x0, symName: '__ZNSt3__112__tuple_leafILm0ERKNS_9allocatorIZN3SNN15Neuron_firetimeEidE3$_0EELb0EE3getB7v160006Ev', symObjAddr: 0x9758, symBinAddr: 0x100027BA4, symSize: 0x18 }
  - { offsetInCU: 0xAFF7, offset: 0x81822, size: 0x8, addend: 0x0, symName: '__ZNSt3__110__function12__alloc_funcIZN3SNN15Neuron_firetimeEidE3$_0NS_9allocatorIS3_EEFfidbEE7destroyB7v160006Ev', symObjAddr: 0x9770, symBinAddr: 0x100027BBC, symSize: 0x10 }
  - { offsetInCU: 0xB01D, offset: 0x81848, size: 0x8, addend: 0x0, symName: '__ZNSt3__110__function12__alloc_funcIZN3SNN15Neuron_firetimeEidE3$_0NS_9allocatorIS3_EEFfidbEEclB7v160006EOiOdOb', symObjAddr: 0x9780, symBinAddr: 0x100027BCC, symSize: 0x40 }
  - { offsetInCU: 0xB06D, offset: 0x81898, size: 0x8, addend: 0x0, symName: '__ZNSt3__128__invoke_void_return_wrapperIfLb0EE6__callIJRZN3SNN15Neuron_firetimeEidE3$_0idbEEEfDpOT_', symObjAddr: 0x97C0, symBinAddr: 0x100027C0C, symSize: 0x3C }
  - { offsetInCU: 0xB0D8, offset: 0x81903, size: 0x8, addend: 0x0, symName: '__ZNSt3__117__compressed_pairIZN3SNN15Neuron_firetimeEidE3$_0NS_9allocatorIS2_EEE5firstB7v160006Ev', symObjAddr: 0x97FC, symBinAddr: 0x100027C48, symSize: 0x24 }
  - { offsetInCU: 0xB103, offset: 0x8192E, size: 0x8, addend: 0x0, symName: '__ZZN3SNN15Neuron_firetimeEidENK3$_0clEidb', symObjAddr: 0x986C, symBinAddr: 0x100027CB8, symSize: 0x6C }
  - { offsetInCU: 0xB15A, offset: 0x81985, size: 0x8, addend: 0x0, symName: '__ZNSt3__122__compressed_pair_elemIZN3SNN15Neuron_firetimeEidE3$_0Li0ELb0EE5__getB7v160006Ev', symObjAddr: 0x98D8, symBinAddr: 0x100027D24, symSize: 0x14 }
  - { offsetInCU: 0xB1B6, offset: 0x819E1, size: 0x8, addend: 0x0, symName: __ZNKSt9type_infoeqB7v160006ERKS_, symObjAddr: 0x98EC, symBinAddr: 0x100027D38, symSize: 0xDC }
  - { offsetInCU: 0xB254, offset: 0x81A7F, size: 0x8, addend: 0x0, symName: __ZNSt27__type_info_implementations30__non_unique_arm_rtti_bit_impl21__is_type_name_uniqueB7v160006Em, symObjAddr: 0x99C8, symBinAddr: 0x100027E14, symSize: 0x20 }
  - { offsetInCU: 0xB278, offset: 0x81AA3, size: 0x8, addend: 0x0, symName: __ZNSt3__18functionIFfidbEED2Ev, symObjAddr: 0x99E8, symBinAddr: 0x100027E34, symSize: 0x2C }
  - { offsetInCU: 0xB2A4, offset: 0x81ACF, size: 0x8, addend: 0x0, symName: __ZNSt3__110__function12__value_funcIFfidbEED1B7v160006Ev, symObjAddr: 0x9A14, symBinAddr: 0x100027E60, symSize: 0x2C }
  - { offsetInCU: 0xB2CE, offset: 0x81AF9, size: 0x8, addend: 0x0, symName: __ZNSt3__110__function12__value_funcIFfidbEED2B7v160006Ev, symObjAddr: 0x9A40, symBinAddr: 0x100027E8C, symSize: 0x90 }
  - { offsetInCU: 0xB2F8, offset: 0x81B23, size: 0x8, addend: 0x0, symName: __ZNSt3__16vectorIdNS_9allocatorIdEEE17__destruct_at_endB7v160006EPd, symObjAddr: 0x9B4C, symBinAddr: 0x100027F98, symSize: 0x60 }
  - { offsetInCU: 0xB33C, offset: 0x81B67, size: 0x8, addend: 0x0, symName: __ZNSt3__16vectorIdNS_9allocatorIdEEE27__invalidate_iterators_pastB7v160006EPd, symObjAddr: 0x9C34, symBinAddr: 0x100028080, symSize: 0x14 }
  - { offsetInCU: 0xB373, offset: 0x81B9E, size: 0x8, addend: 0x0, symName: __ZNKSt3__111__wrap_iterIPKdE4baseB7v160006Ev, symObjAddr: 0x9C48, symBinAddr: 0x100028094, symSize: 0x18 }
  - { offsetInCU: 0xB3C1, offset: 0x81BEC, size: 0x8, addend: 0x0, symName: __ZNKSt3__114__move_trivialclB7v160006IddLi0EEENS_4pairIPT_PT0_EES4_S4_S6_, symObjAddr: 0x9E44, symBinAddr: 0x100028290, symSize: 0x48 }
  - { offsetInCU: 0xB430, offset: 0x81C5B, size: 0x8, addend: 0x0, symName: __ZNSt3__14pairIPdS1_EC1B7v160006IRS1_S1_LPv0EEEOT_OT0_, symObjAddr: 0xA00C, symBinAddr: 0x100028458, symSize: 0x3C }
  - { offsetInCU: 0xB48E, offset: 0x81CB9, size: 0x8, addend: 0x0, symName: __ZNSt3__14pairIPdS1_EC2B7v160006IRS1_S1_LPv0EEEOT_OT0_, symObjAddr: 0xA048, symBinAddr: 0x100028494, symSize: 0x34 }
  - { offsetInCU: 0xB4EC, offset: 0x81D17, size: 0x8, addend: 0x0, symName: __ZNSt3__118__unwrap_iter_implIPdLb1EE8__unwrapB7v160006ES1_, symObjAddr: 0xA07C, symBinAddr: 0x1000284C8, symSize: 0x24 }
  - { offsetInCU: 0xB50F, offset: 0x81D3A, size: 0x8, addend: 0x0, symName: __ZNSt3__14pairIPdS1_EC1B7v160006IS1_S1_LPv0EEEOT_OT0_, symObjAddr: 0xA0A0, symBinAddr: 0x1000284EC, symSize: 0x3C }
  - { offsetInCU: 0xB56D, offset: 0x81D98, size: 0x8, addend: 0x0, symName: __ZNSt3__14pairIPdS1_EC2B7v160006IS1_S1_LPv0EEEOT_OT0_, symObjAddr: 0xA0DC, symBinAddr: 0x100028528, symSize: 0x34 }
  - { offsetInCU: 0xB5CB, offset: 0x81DF6, size: 0x8, addend: 0x0, symName: __ZNSt3__118__unwrap_iter_implIPdLb1EE8__rewrapB7v160006ES1_S1_, symObjAddr: 0xA110, symBinAddr: 0x10002855C, symSize: 0x50 }
  - { offsetInCU: 0xB5FC, offset: 0x81E27, size: 0x8, addend: 0x0, symName: __ZNSt3__16vectorIiNS_9allocatorIiEEE17__destruct_at_endB7v160006EPi, symObjAddr: 0xA270, symBinAddr: 0x100028628, symSize: 0x60 }
  - { offsetInCU: 0xB640, offset: 0x81E6B, size: 0x8, addend: 0x0, symName: __ZNSt3__16vectorIiNS_9allocatorIiEEE27__invalidate_iterators_pastB7v160006EPi, symObjAddr: 0xA358, symBinAddr: 0x100028710, symSize: 0x14 }
  - { offsetInCU: 0xB677, offset: 0x81EA2, size: 0x8, addend: 0x0, symName: __ZNKSt3__111__wrap_iterIPKiE4baseB7v160006Ev, symObjAddr: 0xA36C, symBinAddr: 0x100028724, symSize: 0x18 }
  - { offsetInCU: 0xB6BA, offset: 0x81EE5, size: 0x8, addend: 0x0, symName: __ZNKSt3__114__move_trivialclB7v160006IiiLi0EEENS_4pairIPT_PT0_EES4_S4_S6_, symObjAddr: 0xA568, symBinAddr: 0x100028920, symSize: 0x48 }
  - { offsetInCU: 0xB729, offset: 0x81F54, size: 0x8, addend: 0x0, symName: __ZNSt3__14pairIPiS1_EC1B7v160006IRS1_S1_LPv0EEEOT_OT0_, symObjAddr: 0xA730, symBinAddr: 0x100028AE8, symSize: 0x3C }
  - { offsetInCU: 0xB787, offset: 0x81FB2, size: 0x8, addend: 0x0, symName: __ZNSt3__14pairIPiS1_EC2B7v160006IRS1_S1_LPv0EEEOT_OT0_, symObjAddr: 0xA76C, symBinAddr: 0x100028B24, symSize: 0x34 }
  - { offsetInCU: 0xB7E5, offset: 0x82010, size: 0x8, addend: 0x0, symName: __ZNSt3__118__unwrap_iter_implIPiLb1EE8__unwrapB7v160006ES1_, symObjAddr: 0xA7A0, symBinAddr: 0x100028B58, symSize: 0x24 }
  - { offsetInCU: 0xB808, offset: 0x82033, size: 0x8, addend: 0x0, symName: __ZNSt3__14pairIPiS1_EC1B7v160006IS1_S1_LPv0EEEOT_OT0_, symObjAddr: 0xA7C4, symBinAddr: 0x100028B7C, symSize: 0x3C }
  - { offsetInCU: 0xB866, offset: 0x82091, size: 0x8, addend: 0x0, symName: __ZNSt3__14pairIPiS1_EC2B7v160006IS1_S1_LPv0EEEOT_OT0_, symObjAddr: 0xA800, symBinAddr: 0x100028BB8, symSize: 0x34 }
  - { offsetInCU: 0xB8C4, offset: 0x820EF, size: 0x8, addend: 0x0, symName: __ZNSt3__118__unwrap_iter_implIPiLb1EE8__rewrapB7v160006ES1_S1_, symObjAddr: 0xA834, symBinAddr: 0x100028BEC, symSize: 0x50 }
...
