---
triple:          'arm64-apple-darwin'
binary-path:     '/Users/Fabio/Desktop/CMS-SpikingNeuralNetwork/try.out'
relocations:
  - { offsetInCU: 0x49, offset: 0x49, size: 0x8, addend: 0x0, symName: __ZN4ROOT8InternalL13gVersionCheckE, symObjAddr: 0x1712F0, symBinAddr: 0x100028140, symSize: 0x0 }
  - { offsetInCU: 0x31A, offset: 0x31A, size: 0x8, addend: 0x0, symName: __ZN4ROOT8Internal14GetClassHelperIfEEP6TClassbbNSt3__117integral_constantIbLb0EEE, symObjAddr: 0x15C74, symBinAddr: 0x10001798C, symSize: 0x40 }
  - { offsetInCU: 0xD29, offset: 0xD29, size: 0x8, addend: 0x0, symName: __ZL7hit_pos, symObjAddr: 0x1712F8, symBinAddr: 0x100028148, symSize: 0x0 }
  - { offsetInCU: 0x2CC74, offset: 0x2CC74, size: 0x8, addend: 0x0, symName: '__ZNSt3__111__introsortINS_17_ClassicAlgPolicyERZ6EncodefE3$_0P3HitEEvT1_S6_T0_NS_15iterator_traitsIS6_E15difference_typeE', symObjAddr: 0x12D14, symBinAddr: 0x100014A2C, symSize: 0x6B8 }
  - { offsetInCU: 0x2CDCF, offset: 0x2CDCF, size: 0x8, addend: 0x0, symName: '__ZNSt3__118__insertion_sort_3B7v160006INS_17_ClassicAlgPolicyERZ6EncodefE3$_0P3HitEEvT1_S6_T0_', symObjAddr: 0x13534, symBinAddr: 0x10001524C, symSize: 0x158 }
  - { offsetInCU: 0x2CEA2, offset: 0x2CEA2, size: 0x8, addend: 0x0, symName: '__ZNSt3__111__sift_downB7v160006INS_17_ClassicAlgPolicyERZ6EncodefE3$_0P3HitEEvT1_OT0_NS_15iterator_traitsIS6_E15difference_typeES6_', symObjAddr: 0x13F74, symBinAddr: 0x100015C8C, symSize: 0x220 }
  - { offsetInCU: 0x2CF4F, offset: 0x2CF4F, size: 0x8, addend: 0x0, symName: '__ZNSt3__117__floyd_sift_downB7v160006INS_17_ClassicAlgPolicyERZ6EncodefE3$_0P3HitEET1_S6_OT0_NS_15iterator_traitsIS6_E15difference_typeE', symObjAddr: 0x14338, symBinAddr: 0x100016050, symSize: 0x108 }
  - { offsetInCU: 0x2CFE7, offset: 0x2CFE7, size: 0x8, addend: 0x0, symName: '__ZNSt3__127__insertion_sort_incompleteIRZ6EncodefE3$_0P3HitEEbT0_S5_T_', symObjAddr: 0x138B8, symBinAddr: 0x1000155D0, symSize: 0x324 }
  - { offsetInCU: 0x2D816, offset: 0x2D816, size: 0x8, addend: 0x0, symName: __ZNSt3__124__put_character_sequenceB7v160006IcNS_11char_traitsIcEEEERNS_13basic_ostreamIT_T0_EES7_PKS4_m, symObjAddr: 0x17150, symBinAddr: 0x100018E68, symSize: 0x1EC }
  - { offsetInCU: 0x2D9AA, offset: 0x2D9AA, size: 0x8, addend: 0x0, symName: __ZNSt3__19__shuffleB7v160006INS_17_ClassicAlgPolicyENS_11__wrap_iterIPiEES4_RNS_26linear_congruential_engineIjLj48271ELj0ELj2147483647EEEEET0_S8_T1_OT2_, symObjAddr: 0x17DD4, symBinAddr: 0x100019AEC, symSize: 0x13C }
  - { offsetInCU: 0x2EFE9, offset: 0x2EFE9, size: 0x8, addend: 0x0, symName: '__ZNSt3__14sortB7v160006INS_11__wrap_iterIP3HitEEZ6EncodefE3$_0EEvT_S6_T0_', symObjAddr: 0x63C, symBinAddr: 0x100002354, symSize: 0x40 }
  - { offsetInCU: 0x2F043, offset: 0x2F043, size: 0x8, addend: 0x0, symName: __ZNSt3__1neB7v160006IP3HitEEbRKNS_11__wrap_iterIT_EES7_, symObjAddr: 0x6DC, symBinAddr: 0x1000023F4, symSize: 0x34 }
  - { offsetInCU: 0x304D8, offset: 0x304D8, size: 0x8, addend: 0x0, symName: __ZNSt3__1lsB7v160006INS_11char_traitsIcEEEERNS_13basic_ostreamIcT_EES6_PKc, symObjAddr: 0xDDC4, symBinAddr: 0x10000FADC, symSize: 0x48 }
  - { offsetInCU: 0x3051E, offset: 0x3051E, size: 0x8, addend: 0x0, symName: __ZNSt3__14endlB7v160006IcNS_11char_traitsIcEEEERNS_13basic_ostreamIT_T0_EES7_, symObjAddr: 0xDE38, symBinAddr: 0x10000FB50, symSize: 0x58 }
  - { offsetInCU: 0x3055E, offset: 0x3055E, size: 0x8, addend: 0x0, symName: __ZNSt3__1lsB7v160006INS_11char_traitsIcEEEERNS_13basic_ostreamIcT_EES6_c, symObjAddr: 0xDE90, symBinAddr: 0x10000FBA8, symSize: 0x34 }
  - { offsetInCU: 0x30E0D, offset: 0x30E0D, size: 0x8, addend: 0x0, symName: __ZNSt3__17shuffleB7v160006INS_11__wrap_iterIPiEERNS_26linear_congruential_engineIjLj48271ELj0ELj2147483647EEEEEvT_S7_OT0_, symObjAddr: 0xE0C8, symBinAddr: 0x10000FDE0, symSize: 0x48 }
  - { offsetInCU: 0x30E63, offset: 0x30E63, size: 0x8, addend: 0x0, symName: __ZNSt3__1neB7v160006IPiEEbRKNS_11__wrap_iterIT_EES6_, symObjAddr: 0xE170, symBinAddr: 0x10000FE88, symSize: 0x34 }
  - { offsetInCU: 0x312B2, offset: 0x312B2, size: 0x8, addend: 0x0, symName: __ZNSt3__1plB7v160006IcNS_11char_traitsIcEENS_9allocatorIcEEEENS_12basic_stringIT_T0_T1_EEOS9_PKS6_, symObjAddr: 0xE4E4, symBinAddr: 0x1000101FC, symSize: 0x40 }
  - { offsetInCU: 0x3130A, offset: 0x3130A, size: 0x8, addend: 0x0, symName: __ZNSt3__1plB7v160006IcNS_11char_traitsIcEENS_9allocatorIcEEEENS_12basic_stringIT_T0_T1_EERKS9_OS9_, symObjAddr: 0xE524, symBinAddr: 0x10001023C, symSize: 0x44 }
  - { offsetInCU: 0x31378, offset: 0x31378, size: 0x8, addend: 0x0, symName: __ZNSt3__1eqB7v160006IP3HitEEbRKNS_11__wrap_iterIT_EES7_, symObjAddr: 0xF7F8, symBinAddr: 0x100011510, symSize: 0x48 }
  - { offsetInCU: 0x313BB, offset: 0x313BB, size: 0x8, addend: 0x0, symName: __ZNSt3__1eqB7v160006IPiEEbRKNS_11__wrap_iterIT_EES6_, symObjAddr: 0xF858, symBinAddr: 0x100011570, symSize: 0x48 }
  - { offsetInCU: 0x313FE, offset: 0x313FE, size: 0x8, addend: 0x0, symName: __ZNSt3__119__debug_db_insert_cB7v160006INS_12basic_stringIcNS_11char_traitsIcEENS_9allocatorIcEEEEEEvPT_, symObjAddr: 0xFB90, symBinAddr: 0x1000118A8, symSize: 0x10 }
  - { offsetInCU: 0x3142F, offset: 0x3142F, size: 0x8, addend: 0x0, symName: __ZNSt3__118__constexpr_strlenB7v160006EPKc, symObjAddr: 0xFC5C, symBinAddr: 0x100011974, symSize: 0x24 }
  - { offsetInCU: 0x3145B, offset: 0x3145B, size: 0x8, addend: 0x0, symName: __ZNSt3__125__debug_db_invalidate_allB7v160006INS_6vectorIiNS_9allocatorIiEEEEEEvPT_, symObjAddr: 0xFD90, symBinAddr: 0x100011AA8, symSize: 0x10 }
  - { offsetInCU: 0x3148C, offset: 0x3148C, size: 0x8, addend: 0x0, symName: __ZNSt3__112__to_addressB7v160006IiEEPT_S2_, symObjAddr: 0xFE80, symBinAddr: 0x100011B98, symSize: 0x14 }
  - { offsetInCU: 0x314C1, offset: 0x314C1, size: 0x8, addend: 0x0, symName: __ZNSt3__13maxB7v160006ImEERKT_S3_S3_, symObjAddr: 0x10570, symBinAddr: 0x100012288, symSize: 0x2C }
  - { offsetInCU: 0x31504, offset: 0x31504, size: 0x8, addend: 0x0, symName: __ZNSt3__13minB7v160006ImEERKT_S3_S3_, symObjAddr: 0x1059C, symBinAddr: 0x1000122B4, symSize: 0x2C }
  - { offsetInCU: 0x31731, offset: 0x31731, size: 0x8, addend: 0x0, symName: __ZNSt3__13minB7v160006ImNS_6__lessImmEEEERKT_S5_S5_T0_, symObjAddr: 0x10628, symBinAddr: 0x100012340, symSize: 0x54 }
  - { offsetInCU: 0x317C6, offset: 0x317C6, size: 0x8, addend: 0x0, symName: __ZNSt3__120__throw_length_errorB7v160006EPKc, symObjAddr: 0x10704, symBinAddr: 0x10001241C, symSize: 0x64 }
  - { offsetInCU: 0x317EE, offset: 0x317EE, size: 0x8, addend: 0x0, symName: __ZNSt3__13maxB7v160006ImNS_6__lessImmEEEERKT_S5_S5_T0_, symObjAddr: 0x107E8, symBinAddr: 0x100012500, symSize: 0x54 }
  - { offsetInCU: 0x31848, offset: 0x31848, size: 0x8, addend: 0x0, symName: __ZNSt3__119__allocate_at_leastB7v160006INS_9allocatorIiEEEENS_19__allocation_resultINS_16allocator_traitsIT_E7pointerEEERS5_m, symObjAddr: 0x1094C, symBinAddr: 0x100012664, symSize: 0x40 }
  - { offsetInCU: 0x3188B, offset: 0x3188B, size: 0x8, addend: 0x0, symName: __ZNSt3__117__libcpp_allocateB7v160006Emm, symObjAddr: 0x10AEC, symBinAddr: 0x100012804, symSize: 0x60 }
  - { offsetInCU: 0x318E6, offset: 0x318E6, size: 0x8, addend: 0x0, symName: __ZNSt3__124__is_overaligned_for_newB7v160006Em, symObjAddr: 0x10B4C, symBinAddr: 0x100012864, symSize: 0x20 }
  - { offsetInCU: 0x31914, offset: 0x31914, size: 0x8, addend: 0x0, symName: __ZNSt3__121__libcpp_operator_newB7v160006IJmSt11align_val_tEEEPvDpT_, symObjAddr: 0x10B6C, symBinAddr: 0x100012884, symSize: 0x2C }
  - { offsetInCU: 0x31961, offset: 0x31961, size: 0x8, addend: 0x0, symName: __ZNSt3__121__libcpp_operator_newB7v160006IJmEEEPvDpT_, symObjAddr: 0x10B98, symBinAddr: 0x1000128B0, symSize: 0x24 }
  - { offsetInCU: 0x3199A, offset: 0x3199A, size: 0x8, addend: 0x0, symName: __ZNSt3__142__uninitialized_allocator_move_if_noexceptB7v160006INS_9allocatorIiEENS_16reverse_iteratorIPiEES5_ivEET1_RT_T0_S9_S6_, symObjAddr: 0x10CD8, symBinAddr: 0x1000129F0, symSize: 0x78 }
  - { offsetInCU: 0x31A17, offset: 0x31A17, size: 0x8, addend: 0x0, symName: __ZNSt3__14swapB7v160006IPiEENS_9enable_ifIXaasr21is_move_constructibleIT_EE5valuesr18is_move_assignableIS3_EE5valueEvE4typeERS3_S6_, symObjAddr: 0x10D9C, symBinAddr: 0x100012AB4, symSize: 0x3C }
  - { offsetInCU: 0x31A68, offset: 0x31A68, size: 0x8, addend: 0x0, symName: __ZNSt3__14moveB7v160006INS_16reverse_iteratorIPiEES3_EET0_T_S5_S4_, symObjAddr: 0x10E84, symBinAddr: 0x100012B9C, symSize: 0x78 }
  - { offsetInCU: 0x31AC2, offset: 0x31AC2, size: 0x8, addend: 0x0, symName: __ZNSt3__16__moveB7v160006INS_17_ClassicAlgPolicyENS_16reverse_iteratorIPiEES4_S4_EENS_4pairIT0_T2_EES6_T1_S7_, symObjAddr: 0x10EFC, symBinAddr: 0x100012C14, symSize: 0x64 }
  - { offsetInCU: 0x31B2E, offset: 0x31B2E, size: 0x8, addend: 0x0, symName: __ZNSt3__123__dispatch_copy_or_moveB7v160006INS_17_ClassicAlgPolicyENS_11__move_loopIS1_EENS_14__move_trivialENS_16reverse_iteratorIPiEES7_S7_EENS_4pairIT2_T4_EES9_T3_SA_, symObjAddr: 0x10F60, symBinAddr: 0x100012C78, symSize: 0x64 }
  - { offsetInCU: 0x31BAC, offset: 0x31BAC, size: 0x8, addend: 0x0, symName: __ZNSt3__121__unwrap_and_dispatchB7v160006INS_10__overloadINS_11__move_loopINS_17_ClassicAlgPolicyEEENS_14__move_trivialEEENS_16reverse_iteratorIPiEES9_S9_Li0EEENS_4pairIT0_T2_EESB_T1_SC_, symObjAddr: 0x10FC4, symBinAddr: 0x100012CDC, symSize: 0x12C }
  - { offsetInCU: 0x31C3D, offset: 0x31C3D, size: 0x8, addend: 0x0, symName: __ZNSt3__114__unwrap_rangeB7v160006INS_16reverse_iteratorIPiEES3_EENS_4pairIT0_S5_EET_S7_, symObjAddr: 0x110F0, symBinAddr: 0x100012E08, symSize: 0x84 }
  - { offsetInCU: 0x31E36, offset: 0x31E36, size: 0x8, addend: 0x0, symName: __ZNSt3__113__unwrap_iterB7v160006INS_16reverse_iteratorIPiEENS_18__unwrap_iter_implIS3_Lb0EEELi0EEEDTclsrT0_8__unwrapclsr3stdE7declvalIT_EEEES7_, symObjAddr: 0x11214, symBinAddr: 0x100012F2C, symSize: 0x44 }
  - { offsetInCU: 0x31E7B, offset: 0x31E7B, size: 0x8, addend: 0x0, symName: __ZNSt3__19make_pairB7v160006INS_16reverse_iteratorIPiEES3_EENS_4pairINS_18__unwrap_ref_decayIT_E4typeENS5_IT0_E4typeEEEOS6_OS9_, symObjAddr: 0x11258, symBinAddr: 0x100012F70, symSize: 0x38 }
  - { offsetInCU: 0x31ECA, offset: 0x31ECA, size: 0x8, addend: 0x0, symName: __ZNSt3__114__rewrap_rangeB7v160006INS_16reverse_iteratorIPiEES3_EET_S4_T0_, symObjAddr: 0x11290, symBinAddr: 0x100012FA8, symSize: 0x5C }
  - { offsetInCU: 0x31F16, offset: 0x31F16, size: 0x8, addend: 0x0, symName: __ZNSt3__113__rewrap_iterB7v160006INS_16reverse_iteratorIPiEES3_NS_18__unwrap_iter_implIS3_Lb0EEEEET_S6_T0_, symObjAddr: 0x112EC, symBinAddr: 0x100013004, symSize: 0x74 }
  - { offsetInCU: 0x31F6B, offset: 0x31F6B, size: 0x8, addend: 0x0, symName: __ZNSt3__1neB7v160006IPiS1_EEbRKNS_16reverse_iteratorIT_EERKNS2_IT0_EE, symObjAddr: 0x11360, symBinAddr: 0x100013078, symSize: 0x48 }
  - { offsetInCU: 0x32199, offset: 0x32199, size: 0x8, addend: 0x0, symName: __ZNSt3__119__libcpp_deallocateB7v160006EPvmm, symObjAddr: 0x11718, symBinAddr: 0x100013430, symSize: 0x60 }
  - { offsetInCU: 0x321FF, offset: 0x321FF, size: 0x8, addend: 0x0, symName: __ZNSt3__127__do_deallocate_handle_sizeB7v160006IJSt11align_val_tEEEvPvmDpT_, symObjAddr: 0x11778, symBinAddr: 0x100013490, symSize: 0x30 }
  - { offsetInCU: 0x32253, offset: 0x32253, size: 0x8, addend: 0x0, symName: __ZNSt3__127__do_deallocate_handle_sizeB7v160006IJEEEvPvmDpT_, symObjAddr: 0x117A8, symBinAddr: 0x1000134C0, symSize: 0x28 }
  - { offsetInCU: 0x32293, offset: 0x32293, size: 0x8, addend: 0x0, symName: __ZNSt3__124__libcpp_operator_deleteB7v160006IJPvSt11align_val_tEEEvDpT_, symObjAddr: 0x117D0, symBinAddr: 0x1000134E8, symSize: 0x2C }
  - { offsetInCU: 0x322DD, offset: 0x322DD, size: 0x8, addend: 0x0, symName: __ZNSt3__124__libcpp_operator_deleteB7v160006IJPvEEEvDpT_, symObjAddr: 0x117FC, symBinAddr: 0x100013514, symSize: 0x24 }
  - { offsetInCU: 0x32312, offset: 0x32312, size: 0x8, addend: 0x0, symName: __ZNSt3__112__to_addressB7v160006IKcEEPT_S3_, symObjAddr: 0x11894, symBinAddr: 0x1000135AC, symSize: 0x14 }
  - { offsetInCU: 0x3237A, offset: 0x3237A, size: 0x8, addend: 0x0, symName: __ZNSt3__119__debug_db_insert_cB7v160006INS_6vectorI3HitNS_9allocatorIS2_EEEEEEvPT_, symObjAddr: 0x11A64, symBinAddr: 0x10001377C, symSize: 0x10 }
  - { offsetInCU: 0x323AB, offset: 0x323AB, size: 0x8, addend: 0x0, symName: __ZNSt3__118__debug_db_erase_cB7v160006INS_6vectorI3HitNS_9allocatorIS2_EEEEEEvPT_, symObjAddr: 0x11D28, symBinAddr: 0x100013A40, symSize: 0x10 }
  - { offsetInCU: 0x323DC, offset: 0x323DC, size: 0x8, addend: 0x0, symName: __ZNSt3__112__to_addressB7v160006I3HitEEPT_S3_, symObjAddr: 0x11E6C, symBinAddr: 0x100013B84, symSize: 0x14 }
  - { offsetInCU: 0x32411, offset: 0x32411, size: 0x8, addend: 0x0, symName: __ZNSt3__115__debug_db_swapB7v160006INS_12basic_stringIcNS_11char_traitsIcEENS_9allocatorIcEEEEEEvPT_S8_, symObjAddr: 0x1211C, symBinAddr: 0x100013E34, symSize: 0x14 }
  - { offsetInCU: 0x32450, offset: 0x32450, size: 0x8, addend: 0x0, symName: __ZNSt3__119__debug_db_insert_cB7v160006INS_6vectorIfNS_9allocatorIfEEEEEEvPT_, symObjAddr: 0x121FC, symBinAddr: 0x100013F14, symSize: 0x10 }
  - { offsetInCU: 0x32481, offset: 0x32481, size: 0x8, addend: 0x0, symName: __ZNSt3__118__debug_db_erase_cB7v160006INS_6vectorIfNS_9allocatorIfEEEEEEvPT_, symObjAddr: 0x124C0, symBinAddr: 0x1000141D8, symSize: 0x10 }
  - { offsetInCU: 0x324B2, offset: 0x324B2, size: 0x8, addend: 0x0, symName: __ZNSt3__112__to_addressB7v160006IfEEPT_S2_, symObjAddr: 0x125DC, symBinAddr: 0x1000142F4, symSize: 0x14 }
  - { offsetInCU: 0x324E7, offset: 0x324E7, size: 0x8, addend: 0x0, symName: __ZNSt3__119__debug_db_insert_cB7v160006INS_6vectorIiNS_9allocatorIiEEEEEEvPT_, symObjAddr: 0x12828, symBinAddr: 0x100014540, symSize: 0x10 }
  - { offsetInCU: 0x32518, offset: 0x32518, size: 0x8, addend: 0x0, symName: __ZNSt3__118__debug_db_erase_cB7v160006INS_6vectorIiNS_9allocatorIiEEEEEEvPT_, symObjAddr: 0x12A18, symBinAddr: 0x100014730, symSize: 0x10 }
  - { offsetInCU: 0x32549, offset: 0x32549, size: 0x8, addend: 0x0, symName: __ZNSt3__125__debug_db_invalidate_allB7v160006INS_6vectorI3HitNS_9allocatorIS2_EEEEEEvPT_, symObjAddr: 0x12ADC, symBinAddr: 0x1000147F4, symSize: 0x10 }
  - { offsetInCU: 0x3257A, offset: 0x3257A, size: 0x8, addend: 0x0, symName: '__ZNSt3__111__sort_implB7v160006INS_17_ClassicAlgPolicyENS_11__wrap_iterIP3HitEEZ6EncodefE3$_0EEvT0_S7_RT1_', symObjAddr: 0x12B80, symBinAddr: 0x100014898, symSize: 0x84 }
  - { offsetInCU: 0x32621, offset: 0x32621, size: 0x8, addend: 0x0, symName: __ZNSt3__123__debug_randomize_rangeB7v160006INS_17_ClassicAlgPolicyENS_11__wrap_iterIP3HitEES5_EEvT0_T1_, symObjAddr: 0x12C04, symBinAddr: 0x10001491C, symSize: 0x14 }
  - { offsetInCU: 0x32672, offset: 0x32672, size: 0x8, addend: 0x0, symName: '__ZNSt3__16__sortIRZ6EncodefE3$_0P3HitEEvT0_S5_T_', symObjAddr: 0x12C18, symBinAddr: 0x100014930, symSize: 0x68 }
  - { offsetInCU: 0x32702, offset: 0x32702, size: 0x8, addend: 0x0, symName: __ZNSt3__113__unwrap_iterB7v160006INS_11__wrap_iterIP3HitEENS_18__unwrap_iter_implIS4_Lb1EEELi0EEEDTclsrT0_8__unwrapclsr3stdE7declvalIT_EEEES8_, symObjAddr: 0x12C80, symBinAddr: 0x100014998, symSize: 0x2C }
  - { offsetInCU: 0x32747, offset: 0x32747, size: 0x8, addend: 0x0, symName: __ZNSt3__17__log2iB7v160006IlEET_S1_, symObjAddr: 0x12CAC, symBinAddr: 0x1000149C4, symSize: 0x54 }
  - { offsetInCU: 0x327B2, offset: 0x327B2, size: 0x8, addend: 0x0, symName: __ZNSt3__112__libcpp_clzB7v160006Em, symObjAddr: 0x133E4, symBinAddr: 0x1000150FC, symSize: 0x1C }
  - { offsetInCU: 0x327DE, offset: 0x327DE, size: 0x8, addend: 0x0, symName: '__ZNSt3__124__sort3_maybe_branchlessB7v160006INS_17_ClassicAlgPolicyERZ6EncodefE3$_0P3HitEENS_9enable_ifIXntsr21__use_branchless_sortIT0_T1_EE5valueEvE4typeES8_S8_S8_S7_', symObjAddr: 0x13468, symBinAddr: 0x100015180, symSize: 0x3C }
  - { offsetInCU: 0x3284F, offset: 0x3284F, size: 0x8, addend: 0x0, symName: '__ZNSt3__124__sort4_maybe_branchlessB7v160006INS_17_ClassicAlgPolicyERZ6EncodefE3$_0P3HitEENS_9enable_ifIXntsr21__use_branchless_sortIT0_T1_EE5valueEvE4typeES8_S8_S8_S8_S7_', symObjAddr: 0x134A4, symBinAddr: 0x1000151BC, symSize: 0x44 }
  - { offsetInCU: 0x328D4, offset: 0x328D4, size: 0x8, addend: 0x0, symName: '__ZNSt3__124__sort5_maybe_branchlessB7v160006INS_17_ClassicAlgPolicyERZ6EncodefE3$_0P3HitEENS_9enable_ifIXntsr21__use_branchless_sortIT0_T1_EE5valueEvE4typeES8_S8_S8_S8_S8_S7_', symObjAddr: 0x134E8, symBinAddr: 0x100015200, symSize: 0x4C }
  - { offsetInCU: 0x32968, offset: 0x32968, size: 0x8, addend: 0x0, symName: '__ZNSt3__114__partial_sortB7v160006INS_17_ClassicAlgPolicyERZ6EncodefE3$_0P3HitS5_EET1_S6_S6_T2_RT0_', symObjAddr: 0x1368C, symBinAddr: 0x1000153A4, symSize: 0x94 }
  - { offsetInCU: 0x329F0, offset: 0x329F0, size: 0x8, addend: 0x0, symName: '__ZNSt3__119__sort5_wrap_policyB7v160006INS_17_ClassicAlgPolicyERZ6EncodefE3$_0P3HitEEjT1_S6_S6_S6_S6_T0_', symObjAddr: 0x13720, symBinAddr: 0x100015438, symSize: 0x54 }
  - { offsetInCU: 0x32A96, offset: 0x32A96, size: 0x8, addend: 0x0, symName: '__ZNSt3__17__sort3B7v160006INS_17_ClassicAlgPolicyERZ6EncodefE3$_0P3HitEEjT1_S6_S6_T0_', symObjAddr: 0x13774, symBinAddr: 0x10001548C, symSize: 0x144 }
  - { offsetInCU: 0x32B15, offset: 0x32B15, size: 0x8, addend: 0x0, symName: __ZNSt3__19iter_swapB7v160006IP3HitS2_EEvT_T0_, symObjAddr: 0x13BF4, symBinAddr: 0x10001590C, symSize: 0x2C }
  - { offsetInCU: 0x32B5D, offset: 0x32B5D, size: 0x8, addend: 0x0, symName: __ZNSt3__14swapB7v160006I3HitEENS_9enable_ifIXaasr21is_move_constructibleIT_EE5valuesr18is_move_assignableIS3_EE5valueEvE4typeERS3_S6_, symObjAddr: 0x13C20, symBinAddr: 0x100015938, symSize: 0x50 }
  - { offsetInCU: 0x32BAE, offset: 0x32BAE, size: 0x8, addend: 0x0, symName: '__ZNSt3__17__sort4B7v160006INS_17_ClassicAlgPolicyERZ6EncodefE3$_0P3HitEEjT1_S6_S6_S6_T0_', symObjAddr: 0x13C70, symBinAddr: 0x100015988, symSize: 0xE4 }
  - { offsetInCU: 0x32C5F, offset: 0x32C5F, size: 0x8, addend: 0x0, symName: __ZNSt3__123__debug_randomize_rangeB7v160006INS_17_ClassicAlgPolicyEP3HitS3_EEvT0_T1_, symObjAddr: 0x13D98, symBinAddr: 0x100015AB0, symSize: 0x14 }
  - { offsetInCU: 0x32CB0, offset: 0x32CB0, size: 0x8, addend: 0x0, symName: '__ZNSt3__119__partial_sort_implB7v160006INS_17_ClassicAlgPolicyERZ6EncodefE3$_0P3HitS5_EET1_S6_S6_T2_OT0_', symObjAddr: 0x13DAC, symBinAddr: 0x100015AC4, symSize: 0x110 }
  - { offsetInCU: 0x32D46, offset: 0x32D46, size: 0x8, addend: 0x0, symName: '__ZNSt3__111__make_heapB7v160006INS_17_ClassicAlgPolicyERZ6EncodefE3$_0P3HitEEvT1_S6_OT0_', symObjAddr: 0x13EBC, symBinAddr: 0x100015BD4, symSize: 0xB8 }
  - { offsetInCU: 0x32DE8, offset: 0x32DE8, size: 0x8, addend: 0x0, symName: '__ZNSt3__111__sort_heapB7v160006INS_17_ClassicAlgPolicyERZ6EncodefE3$_0P3HitEEvT1_S6_OT0_', symObjAddr: 0x14194, symBinAddr: 0x100015EAC, symSize: 0x90 }
  - { offsetInCU: 0x32E7C, offset: 0x32E7C, size: 0x8, addend: 0x0, symName: '__ZNSt3__110__pop_heapB7v160006INS_17_ClassicAlgPolicyEZ6EncodefE3$_0P3HitEEvT1_S5_RT0_NS_15iterator_traitsIS5_E15difference_typeE', symObjAddr: 0x14224, symBinAddr: 0x100015F3C, symSize: 0x114 }
  - { offsetInCU: 0x32F2C, offset: 0x32F2C, size: 0x8, addend: 0x0, symName: '__ZNSt3__19__sift_upB7v160006INS_17_ClassicAlgPolicyERZ6EncodefE3$_0P3HitEEvT1_S6_OT0_NS_15iterator_traitsIS6_E15difference_typeE', symObjAddr: 0x14440, symBinAddr: 0x100016158, symSize: 0x130 }
  - { offsetInCU: 0x32FDC, offset: 0x32FDC, size: 0x8, addend: 0x0, symName: '__ZNSt3__17__sort5IRZ6EncodefE3$_0P3HitEEjT0_S5_S5_S5_S5_T_', symObjAddr: 0x14570, symBinAddr: 0x100016288, symSize: 0x12C }
  - { offsetInCU: 0x330DA, offset: 0x330DA, size: 0x8, addend: 0x0, symName: __ZNSt3__112__to_addressB7v160006INS_11__wrap_iterIP3HitEEvEENS_5decayIDTclsr19__to_address_helperIT_EE6__callclsr3stdE7declvalIRKS6_EEEEE4typeES8_, symObjAddr: 0x146C4, symBinAddr: 0x1000163DC, symSize: 0x24 }
  - { offsetInCU: 0x331BA, offset: 0x331BA, size: 0x8, addend: 0x0, symName: __ZNSt3__119__allocate_at_leastB7v160006INS_9allocatorIfEEEENS_19__allocation_resultINS_16allocator_traitsIT_E7pointerEEERS5_m, symObjAddr: 0x14E94, symBinAddr: 0x100016BAC, symSize: 0x40 }
  - { offsetInCU: 0x331FD, offset: 0x331FD, size: 0x8, addend: 0x0, symName: __ZNSt3__142__uninitialized_allocator_move_if_noexceptB7v160006INS_9allocatorIfEENS_16reverse_iteratorIPfEES5_fvEET1_RT_T0_S9_S6_, symObjAddr: 0x15048, symBinAddr: 0x100016D60, symSize: 0x78 }
  - { offsetInCU: 0x3327A, offset: 0x3327A, size: 0x8, addend: 0x0, symName: __ZNSt3__14swapB7v160006IPfEENS_9enable_ifIXaasr21is_move_constructibleIT_EE5valuesr18is_move_assignableIS3_EE5valueEvE4typeERS3_S6_, symObjAddr: 0x1510C, symBinAddr: 0x100016E24, symSize: 0x3C }
  - { offsetInCU: 0x332CB, offset: 0x332CB, size: 0x8, addend: 0x0, symName: __ZNSt3__125__debug_db_invalidate_allB7v160006INS_6vectorIfNS_9allocatorIfEEEEEEvPT_, symObjAddr: 0x151F4, symBinAddr: 0x100016F0C, symSize: 0x10 }
  - { offsetInCU: 0x332FC, offset: 0x332FC, size: 0x8, addend: 0x0, symName: __ZNSt3__14moveB7v160006INS_16reverse_iteratorIPfEES3_EET0_T_S5_S4_, symObjAddr: 0x15204, symBinAddr: 0x100016F1C, symSize: 0x78 }
  - { offsetInCU: 0x33356, offset: 0x33356, size: 0x8, addend: 0x0, symName: __ZNSt3__16__moveB7v160006INS_17_ClassicAlgPolicyENS_16reverse_iteratorIPfEES4_S4_EENS_4pairIT0_T2_EES6_T1_S7_, symObjAddr: 0x1527C, symBinAddr: 0x100016F94, symSize: 0x64 }
  - { offsetInCU: 0x333C2, offset: 0x333C2, size: 0x8, addend: 0x0, symName: __ZNSt3__123__dispatch_copy_or_moveB7v160006INS_17_ClassicAlgPolicyENS_11__move_loopIS1_EENS_14__move_trivialENS_16reverse_iteratorIPfEES7_S7_EENS_4pairIT2_T4_EES9_T3_SA_, symObjAddr: 0x152E0, symBinAddr: 0x100016FF8, symSize: 0x64 }
  - { offsetInCU: 0x33440, offset: 0x33440, size: 0x8, addend: 0x0, symName: __ZNSt3__121__unwrap_and_dispatchB7v160006INS_10__overloadINS_11__move_loopINS_17_ClassicAlgPolicyEEENS_14__move_trivialEEENS_16reverse_iteratorIPfEES9_S9_Li0EEENS_4pairIT0_T2_EESB_T1_SC_, symObjAddr: 0x15344, symBinAddr: 0x10001705C, symSize: 0x12C }
  - { offsetInCU: 0x334D1, offset: 0x334D1, size: 0x8, addend: 0x0, symName: __ZNSt3__114__unwrap_rangeB7v160006INS_16reverse_iteratorIPfEES3_EENS_4pairIT0_S5_EET_S7_, symObjAddr: 0x15470, symBinAddr: 0x100017188, symSize: 0x84 }
  - { offsetInCU: 0x335F1, offset: 0x335F1, size: 0x8, addend: 0x0, symName: __ZNSt3__113__unwrap_iterB7v160006INS_16reverse_iteratorIPfEENS_18__unwrap_iter_implIS3_Lb0EEELi0EEEDTclsrT0_8__unwrapclsr3stdE7declvalIT_EEEES7_, symObjAddr: 0x15594, symBinAddr: 0x1000172AC, symSize: 0x44 }
  - { offsetInCU: 0x33636, offset: 0x33636, size: 0x8, addend: 0x0, symName: __ZNSt3__19make_pairB7v160006INS_16reverse_iteratorIPfEES3_EENS_4pairINS_18__unwrap_ref_decayIT_E4typeENS5_IT0_E4typeEEEOS6_OS9_, symObjAddr: 0x155D8, symBinAddr: 0x1000172F0, symSize: 0x38 }
  - { offsetInCU: 0x33685, offset: 0x33685, size: 0x8, addend: 0x0, symName: __ZNSt3__114__rewrap_rangeB7v160006INS_16reverse_iteratorIPfEES3_EET_S4_T0_, symObjAddr: 0x15610, symBinAddr: 0x100017328, symSize: 0x5C }
  - { offsetInCU: 0x336D1, offset: 0x336D1, size: 0x8, addend: 0x0, symName: __ZNSt3__113__rewrap_iterB7v160006INS_16reverse_iteratorIPfEES3_NS_18__unwrap_iter_implIS3_Lb0EEEEET_S6_T0_, symObjAddr: 0x1566C, symBinAddr: 0x100017384, symSize: 0x74 }
  - { offsetInCU: 0x33726, offset: 0x33726, size: 0x8, addend: 0x0, symName: __ZNSt3__1neB7v160006IPfS1_EEbRKNS_16reverse_iteratorIT_EERKNS2_IT0_EE, symObjAddr: 0x156E0, symBinAddr: 0x1000173F8, symSize: 0x48 }
  - { offsetInCU: 0x337DE, offset: 0x337DE, size: 0x8, addend: 0x0, symName: __ZNSt3__119__allocate_at_leastB7v160006INS_9allocatorI3HitEEEENS_19__allocation_resultINS_16allocator_traitsIT_E7pointerEEERS6_m, symObjAddr: 0x1657C, symBinAddr: 0x100018294, symSize: 0x40 }
  - { offsetInCU: 0x33821, offset: 0x33821, size: 0x8, addend: 0x0, symName: __ZNSt3__142__uninitialized_allocator_move_if_noexceptB7v160006INS_9allocatorI3HitEENS_16reverse_iteratorIPS2_EES6_S2_vEET1_RT_T0_SA_S7_, symObjAddr: 0x16730, symBinAddr: 0x100018448, symSize: 0x78 }
  - { offsetInCU: 0x3389E, offset: 0x3389E, size: 0x8, addend: 0x0, symName: __ZNSt3__14swapB7v160006IP3HitEENS_9enable_ifIXaasr21is_move_constructibleIT_EE5valuesr18is_move_assignableIS4_EE5valueEvE4typeERS4_S7_, symObjAddr: 0x167F4, symBinAddr: 0x10001850C, symSize: 0x3C }
  - { offsetInCU: 0x338EF, offset: 0x338EF, size: 0x8, addend: 0x0, symName: __ZNSt3__14moveB7v160006INS_16reverse_iteratorIP3HitEES4_EET0_T_S6_S5_, symObjAddr: 0x168DC, symBinAddr: 0x1000185F4, symSize: 0x78 }
  - { offsetInCU: 0x33949, offset: 0x33949, size: 0x8, addend: 0x0, symName: __ZNSt3__16__moveB7v160006INS_17_ClassicAlgPolicyENS_16reverse_iteratorIP3HitEES5_S5_EENS_4pairIT0_T2_EES7_T1_S8_, symObjAddr: 0x16954, symBinAddr: 0x10001866C, symSize: 0x64 }
  - { offsetInCU: 0x339B5, offset: 0x339B5, size: 0x8, addend: 0x0, symName: __ZNSt3__123__dispatch_copy_or_moveB7v160006INS_17_ClassicAlgPolicyENS_11__move_loopIS1_EENS_14__move_trivialENS_16reverse_iteratorIP3HitEES8_S8_EENS_4pairIT2_T4_EESA_T3_SB_, symObjAddr: 0x169B8, symBinAddr: 0x1000186D0, symSize: 0x64 }
  - { offsetInCU: 0x33A33, offset: 0x33A33, size: 0x8, addend: 0x0, symName: __ZNSt3__121__unwrap_and_dispatchB7v160006INS_10__overloadINS_11__move_loopINS_17_ClassicAlgPolicyEEENS_14__move_trivialEEENS_16reverse_iteratorIP3HitEESA_SA_Li0EEENS_4pairIT0_T2_EESC_T1_SD_, symObjAddr: 0x16A1C, symBinAddr: 0x100018734, symSize: 0x12C }
  - { offsetInCU: 0x33AC4, offset: 0x33AC4, size: 0x8, addend: 0x0, symName: __ZNSt3__114__unwrap_rangeB7v160006INS_16reverse_iteratorIP3HitEES4_EENS_4pairIT0_S6_EET_S8_, symObjAddr: 0x16B48, symBinAddr: 0x100018860, symSize: 0x84 }
  - { offsetInCU: 0x33BE4, offset: 0x33BE4, size: 0x8, addend: 0x0, symName: __ZNSt3__113__unwrap_iterB7v160006INS_16reverse_iteratorIP3HitEENS_18__unwrap_iter_implIS4_Lb0EEELi0EEEDTclsrT0_8__unwrapclsr3stdE7declvalIT_EEEES8_, symObjAddr: 0x16C74, symBinAddr: 0x10001898C, symSize: 0x44 }
  - { offsetInCU: 0x33C29, offset: 0x33C29, size: 0x8, addend: 0x0, symName: __ZNSt3__19make_pairB7v160006INS_16reverse_iteratorIP3HitEES4_EENS_4pairINS_18__unwrap_ref_decayIT_E4typeENS6_IT0_E4typeEEEOS7_OSA_, symObjAddr: 0x16CB8, symBinAddr: 0x1000189D0, symSize: 0x38 }
  - { offsetInCU: 0x33C78, offset: 0x33C78, size: 0x8, addend: 0x0, symName: __ZNSt3__114__rewrap_rangeB7v160006INS_16reverse_iteratorIP3HitEES4_EET_S5_T0_, symObjAddr: 0x16CF0, symBinAddr: 0x100018A08, symSize: 0x5C }
  - { offsetInCU: 0x33CC4, offset: 0x33CC4, size: 0x8, addend: 0x0, symName: __ZNSt3__113__rewrap_iterB7v160006INS_16reverse_iteratorIP3HitEES4_NS_18__unwrap_iter_implIS4_Lb0EEEEET_S7_T0_, symObjAddr: 0x16D4C, symBinAddr: 0x100018A64, symSize: 0x74 }
  - { offsetInCU: 0x33D19, offset: 0x33D19, size: 0x8, addend: 0x0, symName: __ZNSt3__1neB7v160006IP3HitS2_EEbRKNS_16reverse_iteratorIT_EERKNS3_IT0_EE, symObjAddr: 0x16DC0, symBinAddr: 0x100018AD8, symSize: 0x48 }
  - { offsetInCU: 0x33DAD, offset: 0x33DAD, size: 0x8, addend: 0x0, symName: __ZNSt3__116__pad_and_outputB7v160006IcNS_11char_traitsIcEEEENS_19ostreambuf_iteratorIT_T0_EES6_PKS4_S8_S8_RNS_8ios_baseES4_, symObjAddr: 0x17358, symBinAddr: 0x100019070, symSize: 0x240 }
  - { offsetInCU: 0x33E7C, offset: 0x33E7C, size: 0x8, addend: 0x0, symName: __ZNSt3__112__to_addressB7v160006IcEEPT_S2_, symObjAddr: 0x177D0, symBinAddr: 0x1000194E8, symSize: 0x14 }
  - { offsetInCU: 0x33EE4, offset: 0x33EE4, size: 0x8, addend: 0x0, symName: __ZNSt3__19use_facetB7v160006INS_5ctypeIcEEEERKT_RKNS_6localeE, symObjAddr: 0x179E0, symBinAddr: 0x1000196F8, symSize: 0x2C }
  - { offsetInCU: 0x343B3, offset: 0x343B3, size: 0x8, addend: 0x0, symName: __ZNSt3__1miB7v160006IPiS1_EEDTmicldtfp_4baseEcldtfp0_4baseEERKNS_11__wrap_iterIT_EERKNS3_IT0_EE, symObjAddr: 0x17F30, symBinAddr: 0x100019C48, symSize: 0x48 }
  - { offsetInCU: 0x343FF, offset: 0x343FF, size: 0x8, addend: 0x0, symName: __ZNSt3__1ltB7v160006IPiEEbRKNS_11__wrap_iterIT_EES6_, symObjAddr: 0x17FD4, symBinAddr: 0x100019CEC, symSize: 0x48 }
  - { offsetInCU: 0x34442, offset: 0x34442, size: 0x8, addend: 0x0, symName: __ZNSt3__113__countl_zeroB7v160006ImEEiT_, symObjAddr: 0x18354, symBinAddr: 0x10001A06C, symSize: 0x54 }
  - { offsetInCU: 0x344DD, offset: 0x344DD, size: 0x8, addend: 0x0, symName: __ZNSt3__19iter_swapB7v160006INS_11__wrap_iterIPiEES3_EEvT_T0_, symObjAddr: 0x18908, symBinAddr: 0x10001A620, symSize: 0x50 }
  - { offsetInCU: 0x34525, offset: 0x34525, size: 0x8, addend: 0x0, symName: __ZNSt3__14swapB7v160006IiEENS_9enable_ifIXaasr21is_move_constructibleIT_EE5valuesr18is_move_assignableIS2_EE5valueEvE4typeERS2_S5_, symObjAddr: 0x18958, symBinAddr: 0x10001A670, symSize: 0x3C }
  - { offsetInCU: 0x34576, offset: 0x34576, size: 0x8, addend: 0x0, symName: __ZNSt3__1miB7v160006IPKfS2_EEDTmicldtfp_4baseEcldtfp0_4baseEERKNS_11__wrap_iterIT_EERKNS4_IT0_EE, symObjAddr: 0x18A50, symBinAddr: 0x10001A768, symSize: 0x48 }
  - { offsetInCU: 0x345C2, offset: 0x345C2, size: 0x8, addend: 0x0, symName: __ZNSt3__14moveB7v160006IPfS1_EET0_T_S3_S2_, symObjAddr: 0x18B24, symBinAddr: 0x10001A83C, symSize: 0x40 }
  - { offsetInCU: 0x3461C, offset: 0x3461C, size: 0x8, addend: 0x0, symName: __ZNSt3__16__moveB7v160006INS_17_ClassicAlgPolicyEPfS2_S2_EENS_4pairIT0_T2_EES4_T1_S5_, symObjAddr: 0x18C54, symBinAddr: 0x10001A96C, symSize: 0x44 }
  - { offsetInCU: 0x34688, offset: 0x34688, size: 0x8, addend: 0x0, symName: __ZNSt3__123__dispatch_copy_or_moveB7v160006INS_17_ClassicAlgPolicyENS_11__move_loopIS1_EENS_14__move_trivialEPfS5_S5_EENS_4pairIT2_T4_EES7_T3_S8_, symObjAddr: 0x18C98, symBinAddr: 0x10001A9B0, symSize: 0x44 }
  - { offsetInCU: 0x34706, offset: 0x34706, size: 0x8, addend: 0x0, symName: __ZNSt3__121__unwrap_and_dispatchB7v160006INS_10__overloadINS_11__move_loopINS_17_ClassicAlgPolicyEEENS_14__move_trivialEEEPfS7_S7_Li0EEENS_4pairIT0_T2_EES9_T1_SA_, symObjAddr: 0x18CDC, symBinAddr: 0x10001A9F4, symSize: 0xB4 }
  - { offsetInCU: 0x34795, offset: 0x34795, size: 0x8, addend: 0x0, symName: __ZNSt3__114__unwrap_rangeB7v160006IPfS1_EENS_4pairIT0_S3_EET_S5_, symObjAddr: 0x18D90, symBinAddr: 0x10001AAA8, symSize: 0x60 }
  - { offsetInCU: 0x3492B, offset: 0x3492B, size: 0x8, addend: 0x0, symName: __ZNSt3__113__unwrap_iterB7v160006IPfNS_18__unwrap_iter_implIS1_Lb1EEELi0EEEDTclsrT0_8__unwrapclsr3stdE7declvalIT_EEEES5_, symObjAddr: 0x18E38, symBinAddr: 0x10001AB50, symSize: 0x24 }
  - { offsetInCU: 0x34970, offset: 0x34970, size: 0x8, addend: 0x0, symName: __ZNSt3__19make_pairB7v160006IPfS1_EENS_4pairINS_18__unwrap_ref_decayIT_E4typeENS3_IT0_E4typeEEEOS4_OS7_, symObjAddr: 0x18E5C, symBinAddr: 0x10001AB74, symSize: 0x38 }
  - { offsetInCU: 0x349BF, offset: 0x349BF, size: 0x8, addend: 0x0, symName: __ZNSt3__114__rewrap_rangeB7v160006IPfS1_EET_S2_T0_, symObjAddr: 0x18E94, symBinAddr: 0x10001ABAC, symSize: 0x2C }
  - { offsetInCU: 0x34A0B, offset: 0x34A0B, size: 0x8, addend: 0x0, symName: __ZNSt3__113__rewrap_iterB7v160006IPfS1_NS_18__unwrap_iter_implIS1_Lb1EEEEET_S4_T0_, symObjAddr: 0x18EC0, symBinAddr: 0x10001ABD8, symSize: 0x3C }
  - { offsetInCU: 0x34A60, offset: 0x34A60, size: 0x8, addend: 0x0, symName: __ZNSt3__119__copy_trivial_implB7v160006IffEENS_4pairIPT_PT0_EES3_S3_S5_, symObjAddr: 0x18EFC, symBinAddr: 0x10001AC14, symSize: 0x84 }
  - { offsetInCU: 0x34AC8, offset: 0x34AC8, size: 0x8, addend: 0x0, symName: __ZNSt3__19make_pairB7v160006IRPfS1_EENS_4pairINS_18__unwrap_ref_decayIT_E4typeENS4_IT0_E4typeEEEOS5_OS8_, symObjAddr: 0x18F80, symBinAddr: 0x10001AC98, symSize: 0x38 }
  - { offsetInCU: 0x354CD, offset: 0x354CD, size: 0x8, addend: 0x0, symName: __ZSt28__throw_bad_array_new_lengthB7v160006v, symObjAddr: 0x10AB8, symBinAddr: 0x1000127D0, symSize: 0x34 }
  - { offsetInCU: 0x3576E, offset: 0x3576E, size: 0x8, addend: 0x0, symName: _SumofSquaresofWeight, symObjAddr: 0x173304, symBinAddr: 0x10002A158, symSize: 0x0 }
  - { offsetInCU: 0x3579A, offset: 0x3579A, size: 0x8, addend: 0x0, symName: _MeanofSquaresofWeight, symObjAddr: 0x173494, symBinAddr: 0x10002A2E8, symSize: 0x0 }
  - { offsetInCU: 0x357B0, offset: 0x357B0, size: 0x8, addend: 0x0, symName: _MaxWeight, symObjAddr: 0x173624, symBinAddr: 0x10002A478, symSize: 0x0 }
  - { offsetInCU: 0x357C6, offset: 0x357C6, size: 0x8, addend: 0x0, symName: _MinWeight, symObjAddr: 0x1737B4, symBinAddr: 0x10002A608, symSize: 0x0 }
  - { offsetInCU: 0x357DC, offset: 0x357DC, size: 0x8, addend: 0x0, symName: _RMSWeight, symObjAddr: 0x173944, symBinAddr: 0x10002A798, symSize: 0x0 }
  - { offsetInCU: 0x357F2, offset: 0x357F2, size: 0x8, addend: 0x0, symName: _Efficiency_track, symObjAddr: 0x173AD4, symBinAddr: 0x10002A928, symSize: 0x0 }
  - { offsetInCU: 0x35824, offset: 0x35824, size: 0x8, addend: 0x0, symName: _FK_track, symObjAddr: 0x187354, symBinAddr: 0x10003E1A8, symSize: 0x0 }
  - { offsetInCU: 0x35839, offset: 0x35839, size: 0x8, addend: 0x0, symName: __ZL13PreSpike_Time, symObjAddr: 0x171310, symBinAddr: 0x100028160, symSize: 0x0 }
  - { offsetInCU: 0x35A1A, offset: 0x35A1A, size: 0x8, addend: 0x0, symName: __ZL15PreSpike_Stream, symObjAddr: 0x171328, symBinAddr: 0x100028178, symSize: 0x0 }
  - { offsetInCU: 0x35BE5, offset: 0x35BE5, size: 0x8, addend: 0x0, symName: __ZL15PreSpike_Signal, symObjAddr: 0x171340, symBinAddr: 0x100028190, symSize: 0x0 }
  - { offsetInCU: 0x35BFE, offset: 0x35BFE, size: 0x8, addend: 0x0, symName: __ZL13neurons_index, symObjAddr: 0x171358, symBinAddr: 0x1000281A8, symSize: 0x0 }
  - { offsetInCU: 0x35C17, offset: 0x35C17, size: 0x8, addend: 0x0, symName: __ZL5myRNG, symObjAddr: 0x171370, symBinAddr: 0x1000281C0, symSize: 0x0 }
  - { offsetInCU: 0x4968A, offset: 0x4968A, size: 0x8, addend: 0x0, symName: __ZL5max_R, symObjAddr: 0x19F60, symBinAddr: 0x100028000, symSize: 0x0 }
  - { offsetInCU: 0x496A3, offset: 0x496A3, size: 0x8, addend: 0x0, symName: __ZL16N_TrackingLayers, symObjAddr: 0x19F64, symBinAddr: 0x100028004, symSize: 0x0 }
  - { offsetInCU: 0x496BC, offset: 0x496BC, size: 0x8, addend: 0x0, symName: __ZL11Left_Layers, symObjAddr: 0x19F68, symBinAddr: 0x100028008, symSize: 0x0 }
  - { offsetInCU: 0x496E3, offset: 0x496E3, size: 0x8, addend: 0x0, symName: __ZL12Right_Layers, symObjAddr: 0x19F90, symBinAddr: 0x100028030, symSize: 0x0 }
  - { offsetInCU: 0x496FC, offset: 0x496FC, size: 0x8, addend: 0x0, symName: __ZL7z_range, symObjAddr: 0x19FB8, symBinAddr: 0x100028058, symSize: 0x0 }
  - { offsetInCU: 0x49722, offset: 0x49722, size: 0x8, addend: 0x0, symName: __ZL12z_bin_length, symObjAddr: 0x171378, symBinAddr: 0x1000281C8, symSize: 0x0 }
  - { offsetInCU: 0x4973B, offset: 0x4973B, size: 0x8, addend: 0x0, symName: __ZL5omega, symObjAddr: 0x17137C, symBinAddr: 0x1000281CC, symSize: 0x0 }
  - { offsetInCU: 0x49754, offset: 0x49754, size: 0x8, addend: 0x0, symName: __ZL9frequency, symObjAddr: 0x1A098, symBinAddr: 0x100028138, symSize: 0x0 }
  - { offsetInCU: 0x4976D, offset: 0x4976D, size: 0x8, addend: 0x0, symName: __ZL5delta, symObjAddr: 0x19FBC, symBinAddr: 0x10002805C, symSize: 0x0 }
  - { offsetInCU: 0x49786, offset: 0x49786, size: 0x8, addend: 0x0, symName: __ZL10eff_target, symObjAddr: 0x19FC0, symBinAddr: 0x100028060, symSize: 0x0 }
  - { offsetInCU: 0x4979F, offset: 0x4979F, size: 0x8, addend: 0x0, symName: __ZL10acc_target, symObjAddr: 0x19FC4, symBinAddr: 0x100028064, symSize: 0x0 }
  - { offsetInCU: 0x497B8, offset: 0x497B8, size: 0x8, addend: 0x0, symName: __ZL6pclass, symObjAddr: 0x171380, symBinAddr: 0x1000281D0, symSize: 0x0 }
  - { offsetInCU: 0x497D1, offset: 0x497D1, size: 0x8, addend: 0x0, symName: __ZL6N_part, symObjAddr: 0x171384, symBinAddr: 0x1000281D4, symSize: 0x0 }
  - { offsetInCU: 0x497EA, offset: 0x497EA, size: 0x8, addend: 0x0, symName: __ZL9max_angle, symObjAddr: 0x171388, symBinAddr: 0x1000281D8, symSize: 0x0 }
  - { offsetInCU: 0x49803, offset: 0x49803, size: 0x8, addend: 0x0, symName: __ZL11First_angle, symObjAddr: 0x17138C, symBinAddr: 0x1000281DC, symSize: 0x0 }
  - { offsetInCU: 0x4981C, offset: 0x4981C, size: 0x8, addend: 0x0, symName: __ZL17last_row_event_IT, symObjAddr: 0x19FC8, symBinAddr: 0x100028068, symSize: 0x0 }
  - { offsetInCU: 0x49835, offset: 0x49835, size: 0x8, addend: 0x0, symName: __ZL6ievent, symObjAddr: 0x171390, symBinAddr: 0x1000281E0, symSize: 0x0 }
  - { offsetInCU: 0x4984E, offset: 0x4984E, size: 0x8, addend: 0x0, symName: __ZL5NROOT, symObjAddr: 0x19FD0, symBinAddr: 0x100028070, symSize: 0x0 }
  - { offsetInCU: 0x49867, offset: 0x49867, size: 0x8, addend: 0x0, symName: __ZL8N_events, symObjAddr: 0x19FD8, symBinAddr: 0x100028078, symSize: 0x0 }
  - { offsetInCU: 0x49880, offset: 0x49880, size: 0x8, addend: 0x0, symName: __ZL17last_row_event_OT, symObjAddr: 0x19FE0, symBinAddr: 0x100028080, symSize: 0x0 }
  - { offsetInCU: 0x49899, offset: 0x49899, size: 0x8, addend: 0x0, symName: __ZL5batch, symObjAddr: 0x171398, symBinAddr: 0x1000281E8, symSize: 0x0 }
  - { offsetInCU: 0x498B2, offset: 0x498B2, size: 0x8, addend: 0x0, symName: __ZL12TrainingCode, symObjAddr: 0x17139C, symBinAddr: 0x1000281EC, symSize: 0x0 }
  - { offsetInCU: 0x498CB, offset: 0x498CB, size: 0x8, addend: 0x0, symName: __ZL7update9, symObjAddr: 0x1713A0, symBinAddr: 0x1000281F0, symSize: 0x0 }
  - { offsetInCU: 0x498E4, offset: 0x498E4, size: 0x8, addend: 0x0, symName: __ZL12updateDelays, symObjAddr: 0x1713A1, symBinAddr: 0x1000281F1, symSize: 0x0 }
  - { offsetInCU: 0x498FD, offset: 0x498FD, size: 0x8, addend: 0x0, symName: __ZL17updateConnections, symObjAddr: 0x1713A2, symBinAddr: 0x1000281F2, symSize: 0x0 }
  - { offsetInCU: 0x49916, offset: 0x49916, size: 0x8, addend: 0x0, symName: __ZL8N_epochs, symObjAddr: 0x19FE8, symBinAddr: 0x100028088, symSize: 0x0 }
  - { offsetInCU: 0x4992F, offset: 0x4992F, size: 0x8, addend: 0x0, symName: __ZL11NevPerEpoch, symObjAddr: 0x1713A4, symBinAddr: 0x1000281F4, symSize: 0x0 }
  - { offsetInCU: 0x49948, offset: 0x49948, size: 0x8, addend: 0x0, symName: __ZL9N_classes, symObjAddr: 0x19FEC, symBinAddr: 0x10002808C, symSize: 0x0 }
  - { offsetInCU: 0x49961, offset: 0x49961, size: 0x8, addend: 0x0, symName: __ZL9MaxFactor, symObjAddr: 0x19FF0, symBinAddr: 0x100028090, symSize: 0x0 }
  - { offsetInCU: 0x4997A, offset: 0x4997A, size: 0x8, addend: 0x0, symName: __ZL12Empty_buffer, symObjAddr: 0x1713A8, symBinAddr: 0x1000281F8, symSize: 0x0 }
  - { offsetInCU: 0x49993, offset: 0x49993, size: 0x8, addend: 0x0, symName: __ZL4_NL0, symObjAddr: 0x19FF4, symBinAddr: 0x100028094, symSize: 0x0 }
  - { offsetInCU: 0x499AC, offset: 0x499AC, size: 0x8, addend: 0x0, symName: __ZL4_NL1, symObjAddr: 0x19FF8, symBinAddr: 0x100028098, symSize: 0x0 }
  - { offsetInCU: 0x499C5, offset: 0x499C5, size: 0x8, addend: 0x0, symName: __ZL6_alpha, symObjAddr: 0x19FFC, symBinAddr: 0x10002809C, symSize: 0x0 }
  - { offsetInCU: 0x499DE, offset: 0x499DE, size: 0x8, addend: 0x0, symName: __ZL5_CFI0, symObjAddr: 0x1A000, symBinAddr: 0x1000280A0, symSize: 0x0 }
  - { offsetInCU: 0x499F7, offset: 0x499F7, size: 0x8, addend: 0x0, symName: __ZL5_CFI1, symObjAddr: 0x1A004, symBinAddr: 0x1000280A4, symSize: 0x0 }
  - { offsetInCU: 0x49A10, offset: 0x49A10, size: 0x8, addend: 0x0, symName: __ZL5_CF01, symObjAddr: 0x1A008, symBinAddr: 0x1000280A8, symSize: 0x0 }
  - { offsetInCU: 0x49A29, offset: 0x49A29, size: 0x8, addend: 0x0, symName: __ZL16_L1inhibitfactor, symObjAddr: 0x1A00C, symBinAddr: 0x1000280AC, symSize: 0x0 }
  - { offsetInCU: 0x49A42, offset: 0x49A42, size: 0x8, addend: 0x0, symName: __ZL2_K, symObjAddr: 0x1A010, symBinAddr: 0x1000280B0, symSize: 0x0 }
  - { offsetInCU: 0x49A5B, offset: 0x49A5B, size: 0x8, addend: 0x0, symName: __ZL3_K1, symObjAddr: 0x1A014, symBinAddr: 0x1000280B4, symSize: 0x0 }
  - { offsetInCU: 0x49A74, offset: 0x49A74, size: 0x8, addend: 0x0, symName: __ZL3_K2, symObjAddr: 0x1A018, symBinAddr: 0x1000280B8, symSize: 0x0 }
  - { offsetInCU: 0x49A8D, offset: 0x49A8D, size: 0x8, addend: 0x0, symName: __ZL13_IE_Pot_const, symObjAddr: 0x1A01C, symBinAddr: 0x1000280BC, symSize: 0x0 }
  - { offsetInCU: 0x49AA6, offset: 0x49AA6, size: 0x8, addend: 0x0, symName: __ZL17_IPSP_dt_dilation, symObjAddr: 0x1A020, symBinAddr: 0x1000280C0, symSize: 0x0 }
  - { offsetInCU: 0x49ABF, offset: 0x49ABF, size: 0x8, addend: 0x0, symName: __ZL9_MaxDelay, symObjAddr: 0x1A024, symBinAddr: 0x1000280C4, symSize: 0x0 }
  - { offsetInCU: 0x49AD8, offset: 0x49AD8, size: 0x8, addend: 0x0, symName: __ZL6_tau_m, symObjAddr: 0x1A028, symBinAddr: 0x1000280C8, symSize: 0x0 }
  - { offsetInCU: 0x49AF1, offset: 0x49AF1, size: 0x8, addend: 0x0, symName: __ZL6_tau_s, symObjAddr: 0x1A02C, symBinAddr: 0x1000280CC, symSize: 0x0 }
  - { offsetInCU: 0x49B0A, offset: 0x49B0A, size: 0x8, addend: 0x0, symName: __ZL6_tau_r, symObjAddr: 0x1A030, symBinAddr: 0x1000280D0, symSize: 0x0 }
  - { offsetInCU: 0x49B23, offset: 0x49B23, size: 0x8, addend: 0x0, symName: __ZL9_tau_plus, symObjAddr: 0x1A034, symBinAddr: 0x1000280D4, symSize: 0x0 }
  - { offsetInCU: 0x49B3C, offset: 0x49B3C, size: 0x8, addend: 0x0, symName: __ZL10_tau_minus, symObjAddr: 0x1A038, symBinAddr: 0x1000280D8, symSize: 0x0 }
  - { offsetInCU: 0x49B55, offset: 0x49B55, size: 0x8, addend: 0x0, symName: __ZL7_a_plus, symObjAddr: 0x1A03C, symBinAddr: 0x1000280DC, symSize: 0x0 }
  - { offsetInCU: 0x49B6E, offset: 0x49B6E, size: 0x8, addend: 0x0, symName: __ZL8_a_minus, symObjAddr: 0x1A040, symBinAddr: 0x1000280E0, symSize: 0x0 }
  - { offsetInCU: 0x49B87, offset: 0x49B87, size: 0x8, addend: 0x0, symName: __ZL15_N_InputStreams, symObjAddr: 0x1A044, symBinAddr: 0x1000280E4, symSize: 0x0 }
  - { offsetInCU: 0x49BA0, offset: 0x49BA0, size: 0x8, addend: 0x0, symName: __ZL11_Threshold0, symObjAddr: 0x1A048, symBinAddr: 0x1000280E8, symSize: 0x0 }
  - { offsetInCU: 0x49BB9, offset: 0x49BB9, size: 0x8, addend: 0x0, symName: __ZL11_Threshold1, symObjAddr: 0x1A04C, symBinAddr: 0x1000280EC, symSize: 0x0 }
  - { offsetInCU: 0x49BD2, offset: 0x49BD2, size: 0x8, addend: 0x0, symName: __ZL6Q_best, symObjAddr: 0x1713AC, symBinAddr: 0x1000281FC, symSize: 0x0 }
  - { offsetInCU: 0x49BEB, offset: 0x49BEB, size: 0x8, addend: 0x0, symName: __ZL10SelL1_best, symObjAddr: 0x1713B0, symBinAddr: 0x100028200, symSize: 0x0 }
  - { offsetInCU: 0x49C04, offset: 0x49C04, size: 0x8, addend: 0x0, symName: __ZL8Eff_best, symObjAddr: 0x1713B4, symBinAddr: 0x100028204, symSize: 0x0 }
  - { offsetInCU: 0x49C1D, offset: 0x49C1D, size: 0x8, addend: 0x0, symName: __ZL8Acc_best, symObjAddr: 0x1713B8, symBinAddr: 0x100028208, symSize: 0x0 }
  - { offsetInCU: 0x49C36, offset: 0x49C36, size: 0x8, addend: 0x0, symName: __ZL8progress, symObjAddr: 0x1A050, symBinAddr: 0x1000280F0, symSize: 0x0 }
  - { offsetInCU: 0x49C5D, offset: 0x49C5D, size: 0x8, addend: 0x0, symName: __ZL9rootInput, symObjAddr: 0x1A088, symBinAddr: 0x100028128, symSize: 0x0 }
  - { offsetInCU: 0x49C76, offset: 0x49C76, size: 0x8, addend: 0x0, symName: __ZL3Eff, symObjAddr: 0x1713BC, symBinAddr: 0x10002820C, symSize: 0x0 }
  - { offsetInCU: 0x49C9E, offset: 0x49C9E, size: 0x8, addend: 0x0, symName: __ZL8ReadPars, symObjAddr: 0x1732FC, symBinAddr: 0x10002A14C, symSize: 0x0 }
  - { offsetInCU: 0x49CB7, offset: 0x49CB7, size: 0x8, addend: 0x0, symName: __ZL11learnDelays, symObjAddr: 0x1732FD, symBinAddr: 0x10002A14D, symSize: 0x0 }
  - { offsetInCU: 0x49CD0, offset: 0x49CD0, size: 0x8, addend: 0x0, symName: __ZL15ProbWSwitchDown, symObjAddr: 0x1A090, symBinAddr: 0x100028130, symSize: 0x0 }
  - { offsetInCU: 0x49CE9, offset: 0x49CE9, size: 0x8, addend: 0x0, symName: __ZL13ProbWSwitchUp, symObjAddr: 0x1A094, symBinAddr: 0x100028134, symSize: 0x0 }
  - { offsetInCU: 0x49D02, offset: 0x49D02, size: 0x8, addend: 0x0, symName: __ZL7indfile, symObjAddr: 0x173300, symBinAddr: 0x10002A150, symSize: 0x0 }
  - { offsetInCU: 0x59D67, offset: 0x59D67, size: 0x8, addend: 0x0, symName: __ZNSt3__16vectorIiNS_9allocatorIiEEE26__swap_out_circular_bufferERNS_14__split_bufferIiRS2_EE, symObjAddr: 0x103B0, symBinAddr: 0x1000120C8, symSize: 0x118 }
  - { offsetInCU: 0x59DCF, offset: 0x59DCF, size: 0x8, addend: 0x0, symName: __ZNSt3__16vectorIfNS_9allocatorIfEEE26__swap_out_circular_bufferERNS_14__split_bufferIfRS2_EE, symObjAddr: 0x14B2C, symBinAddr: 0x100016844, symSize: 0x118 }
  - { offsetInCU: 0x59E27, offset: 0x59E27, size: 0x8, addend: 0x0, symName: __Z3powB7v160006IfiENSt3__19enable_ifIXaasr3std13is_arithmeticIT_EE5valuesr3std13is_arithmeticIT0_EE5valueENS0_9__promoteIS2_S3_vEEE4type4typeES2_S3_, symObjAddr: 0x9E0, symBinAddr: 0x1000026F8, symSize: 0x3C }
  - { offsetInCU: 0x59EA4, offset: 0x59EA4, size: 0x8, addend: 0x0, symName: __Z3powB7v160006IfdENSt3__19enable_ifIXaasr3std13is_arithmeticIT_EE5valuesr3std13is_arithmeticIT0_EE5valueENS0_9__promoteIS2_S3_vEEE4type4typeES2_S3_, symObjAddr: 0xBAC, symBinAddr: 0x1000028C4, symSize: 0x30 }
  - { offsetInCU: 0x59F00, offset: 0x59F00, size: 0x8, addend: 0x0, symName: __ZNSt3__16vectorI3HitNS_9allocatorIS1_EEE26__swap_out_circular_bufferERNS_14__split_bufferIS1_RS3_EE, symObjAddr: 0x16214, symBinAddr: 0x100017F2C, symSize: 0x118 }
  - { offsetInCU: 0x59FB1, offset: 0x59FB1, size: 0x8, addend: 0x0, symName: __ZNSt3__124uniform_int_distributionIlEclINS_26linear_congruential_engineIjLj48271ELj0ELj2147483647EEEEElRT_RKNS1_10param_typeE, symObjAddr: 0x1801C, symBinAddr: 0x100019D34, symSize: 0x174 }
  - { offsetInCU: 0x5C019, offset: 0x5C019, size: 0x8, addend: 0x0, symName: __ZNSt3__16vectorI3HitNS_9allocatorIS1_EEEC1B7v160006Ev, symObjAddr: 0x0, symBinAddr: 0x100001D18, symSize: 0x2C }
  - { offsetInCU: 0x5C043, offset: 0x5C043, size: 0x8, addend: 0x0, symName: __ZNSt3__16vectorI3HitNS_9allocatorIS1_EEED1B7v160006Ev, symObjAddr: 0x2C, symBinAddr: 0x100001D44, symSize: 0x2C }
  - { offsetInCU: 0x5C06D, offset: 0x5C06D, size: 0x8, addend: 0x0, symName: __ZNSt3__16vectorIfNS_9allocatorIfEEEC1B7v160006Ev, symObjAddr: 0x58, symBinAddr: 0x100001D70, symSize: 0x2C }
  - { offsetInCU: 0x5C097, offset: 0x5C097, size: 0x8, addend: 0x0, symName: __ZNSt3__16vectorIfNS_9allocatorIfEEED1B7v160006Ev, symObjAddr: 0x84, symBinAddr: 0x100001D9C, symSize: 0x2C }
  - { offsetInCU: 0x5C0C1, offset: 0x5C0C1, size: 0x8, addend: 0x0, symName: __ZNSt3__16vectorIiNS_9allocatorIiEEEC1B7v160006Ev, symObjAddr: 0xB0, symBinAddr: 0x100001DC8, symSize: 0x2C }
  - { offsetInCU: 0x5C0EB, offset: 0x5C0EB, size: 0x8, addend: 0x0, symName: __ZNSt3__16vectorIiNS_9allocatorIiEEED1B7v160006Ev, symObjAddr: 0xDC, symBinAddr: 0x100001DF4, symSize: 0x2C }
  - { offsetInCU: 0x5C115, offset: 0x5C115, size: 0x8, addend: 0x0, symName: __ZN7TObjectnwEm, symObjAddr: 0x108, symBinAddr: 0x100001E20, symSize: 0x24 }
  - { offsetInCU: 0x5C138, offset: 0x5C138, size: 0x8, addend: 0x0, symName: __Z10Reset_hitsv, symObjAddr: 0x12C, symBinAddr: 0x100001E44, symSize: 0x1C }
  - { offsetInCU: 0x5C152, offset: 0x5C152, size: 0x8, addend: 0x0, symName: __ZNSt3__16vectorI3HitNS_9allocatorIS1_EEE5clearB7v160006Ev, symObjAddr: 0x148, symBinAddr: 0x100001E60, symSize: 0x54 }
  - { offsetInCU: 0x5C186, offset: 0x5C186, size: 0x8, addend: 0x0, symName: __Z7GetBinRf, symObjAddr: 0x19C, symBinAddr: 0x100001EB4, symSize: 0x150 }
  - { offsetInCU: 0x5C1D0, offset: 0x5C1D0, size: 0x8, addend: 0x0, symName: __Z7GetBinZf, symObjAddr: 0x2EC, symBinAddr: 0x100002004, symSize: 0xAC }
  - { offsetInCU: 0x5C20E, offset: 0x5C20E, size: 0x8, addend: 0x0, symName: __Z11GetStreamIDii, symObjAddr: 0x398, symBinAddr: 0x1000020B0, symSize: 0x28 }
  - { offsetInCU: 0x5C24C, offset: 0x5C24C, size: 0x8, addend: 0x0, symName: __Z6Encodef, symObjAddr: 0x3C0, symBinAddr: 0x1000020D8, symSize: 0x27C }
  - { offsetInCU: 0x5C3A1, offset: 0x5C3A1, size: 0x8, addend: 0x0, symName: __ZNSt3__16vectorI3HitNS_9allocatorIS1_EEE5beginB7v160006Ev, symObjAddr: 0x67C, symBinAddr: 0x100002394, symSize: 0x30 }
  - { offsetInCU: 0x5C3C9, offset: 0x5C3C9, size: 0x8, addend: 0x0, symName: __ZNSt3__16vectorI3HitNS_9allocatorIS1_EEE3endB7v160006Ev, symObjAddr: 0x6AC, symBinAddr: 0x1000023C4, symSize: 0x30 }
  - { offsetInCU: 0x5C3F1, offset: 0x5C3F1, size: 0x8, addend: 0x0, symName: __ZNKSt3__111__wrap_iterIP3HitEdeB7v160006Ev, symObjAddr: 0x710, symBinAddr: 0x100002428, symSize: 0x18 }
  - { offsetInCU: 0x5C417, offset: 0x5C417, size: 0x8, addend: 0x0, symName: __ZNSt3__16vectorIfNS_9allocatorIfEEE9push_backB7v160006ERKf, symObjAddr: 0x728, symBinAddr: 0x100002440, symSize: 0x6C }
  - { offsetInCU: 0x5C44E, offset: 0x5C44E, size: 0x8, addend: 0x0, symName: __ZNSt3__16vectorIiNS_9allocatorIiEEE9push_backB7v160006ERKi, symObjAddr: 0x794, symBinAddr: 0x1000024AC, symSize: 0x6C }
  - { offsetInCU: 0x5C485, offset: 0x5C485, size: 0x8, addend: 0x0, symName: __ZNSt3__16vectorIiNS_9allocatorIiEEE9push_backB7v160006EOi, symObjAddr: 0x800, symBinAddr: 0x100002518, symSize: 0x6C }
  - { offsetInCU: 0x5C4BC, offset: 0x5C4BC, size: 0x8, addend: 0x0, symName: __ZNSt3__111__wrap_iterIP3HitEppB7v160006Ev, symObjAddr: 0x86C, symBinAddr: 0x100002584, symSize: 0x20 }
  - { offsetInCU: 0x5C4E1, offset: 0x5C4E1, size: 0x8, addend: 0x0, symName: __Z12LR_Schedulerfii, symObjAddr: 0x88C, symBinAddr: 0x1000025A4, symSize: 0x130 }
  - { offsetInCU: 0x5C54B, offset: 0x5C54B, size: 0x8, addend: 0x0, symName: __Z3expB7v160006f, symObjAddr: 0x9BC, symBinAddr: 0x1000026D4, symSize: 0x24 }
  - { offsetInCU: 0x5C579, offset: 0x5C579, size: 0x8, addend: 0x0, symName: __Z3cosB7v160006f, symObjAddr: 0xA1C, symBinAddr: 0x100002734, symSize: 0x24 }
  - { offsetInCU: 0x5C5A8, offset: 0x5C5A8, size: 0x8, addend: 0x0, symName: __Z19Compute_Selectivityii, symObjAddr: 0xA40, symBinAddr: 0x100002758, symSize: 0x18 }
  - { offsetInCU: 0x5C5E5, offset: 0x5C5E5, size: 0x8, addend: 0x0, symName: __Z9Compute_Qfff, symObjAddr: 0xA58, symBinAddr: 0x100002770, symSize: 0x154 }
  - { offsetInCU: 0x5C650, offset: 0x5C650, size: 0x8, addend: 0x0, symName: __Z4sqrtB7v160006f, symObjAddr: 0xBDC, symBinAddr: 0x1000028F4, symSize: 0x18 }
  - { offsetInCU: 0x5C67F, offset: 0x5C67F, size: 0x8, addend: 0x0, symName: __Z17ReadFromProcessedP5TTreeS0_l, symObjAddr: 0xBF4, symBinAddr: 0x10000290C, symSize: 0x584 }
  - { offsetInCU: 0x5C75C, offset: 0x5C75C, size: 0x8, addend: 0x0, symName: __ZN5TTree16SetBranchAddressIfEEiPKcPT_PP7TBranch, symObjAddr: 0x1178, symBinAddr: 0x100002E90, symSize: 0xA4 }
  - { offsetInCU: 0x5C7DC, offset: 0x5C7DC, size: 0x8, addend: 0x0, symName: __ZNSt3__16vectorI3HitNS_9allocatorIS1_EEE12emplace_backIJRfS6_S6_iEEERS1_DpOT_, symObjAddr: 0x121C, symBinAddr: 0x100002F34, symSize: 0x98 }
  - { offsetInCU: 0x5C892, offset: 0x5C892, size: 0x8, addend: 0x0, symName: __Z12SNN_TrackingR3SNN, symObjAddr: 0x12B4, symBinAddr: 0x100002FCC, symSize: 0xCADC }
  - { offsetInCU: 0x67433, offset: 0x67433, size: 0x8, addend: 0x0, symName: __ZN5TROOT8SetBatchEb, symObjAddr: 0xDD90, symBinAddr: 0x10000FAA8, symSize: 0x34 }
  - { offsetInCU: 0x67468, offset: 0x67468, size: 0x8, addend: 0x0, symName: __ZNSt3__113basic_ostreamIcNS_11char_traitsIcEEElsB7v160006EPFRS3_S4_E, symObjAddr: 0xDE0C, symBinAddr: 0x10000FB24, symSize: 0x2C }
  - { offsetInCU: 0x67544, offset: 0x67544, size: 0x8, addend: 0x0, symName: __ZNSt3__114basic_ofstreamIcNS_11char_traitsIcEEEC1Ev, symObjAddr: 0xDEC4, symBinAddr: 0x10000FBDC, symSize: 0xE8 }
  - { offsetInCU: 0x67570, offset: 0x67570, size: 0x8, addend: 0x0, symName: __ZNSt3__16vectorIfNS_9allocatorIfEEE5clearB7v160006Ev, symObjAddr: 0xDFAC, symBinAddr: 0x10000FCC4, symSize: 0x4C }
  - { offsetInCU: 0x675A5, offset: 0x675A5, size: 0x8, addend: 0x0, symName: __ZNSt3__16vectorIiNS_9allocatorIiEEE5clearB7v160006Ev, symObjAddr: 0xDFF8, symBinAddr: 0x10000FD10, symSize: 0x54 }
  - { offsetInCU: 0x675DA, offset: 0x675DA, size: 0x8, addend: 0x0, symName: __ZNKSt3__16vectorIfNS_9allocatorIfEEE4sizeB7v160006Ev, symObjAddr: 0xE04C, symBinAddr: 0x10000FD64, symSize: 0x28 }
  - { offsetInCU: 0x67600, offset: 0x67600, size: 0x8, addend: 0x0, symName: __ZNSt3__16vectorIfNS_9allocatorIfEEEixB7v160006Em, symObjAddr: 0xE074, symBinAddr: 0x10000FD8C, symSize: 0x24 }
  - { offsetInCU: 0x67637, offset: 0x67637, size: 0x8, addend: 0x0, symName: __ZNSt3__126linear_congruential_engineIjLj48271ELj0ELj2147483647EEC1B7v160006Ev, symObjAddr: 0xE098, symBinAddr: 0x10000FDB0, symSize: 0x30 }
  - { offsetInCU: 0x67661, offset: 0x67661, size: 0x8, addend: 0x0, symName: __ZNSt3__16vectorIiNS_9allocatorIiEEE5beginB7v160006Ev, symObjAddr: 0xE110, symBinAddr: 0x10000FE28, symSize: 0x30 }
  - { offsetInCU: 0x67689, offset: 0x67689, size: 0x8, addend: 0x0, symName: __ZNSt3__16vectorIiNS_9allocatorIiEEE3endB7v160006Ev, symObjAddr: 0xE140, symBinAddr: 0x10000FE58, symSize: 0x30 }
  - { offsetInCU: 0x676B1, offset: 0x676B1, size: 0x8, addend: 0x0, symName: __ZNKSt3__111__wrap_iterIPiEdeB7v160006Ev, symObjAddr: 0xE1A4, symBinAddr: 0x10000FEBC, symSize: 0x18 }
  - { offsetInCU: 0x676D7, offset: 0x676D7, size: 0x8, addend: 0x0, symName: __ZNSt3__111__wrap_iterIPiEppB7v160006Ev, symObjAddr: 0xE1BC, symBinAddr: 0x10000FED4, symSize: 0x20 }
  - { offsetInCU: 0x676FD, offset: 0x676FD, size: 0x8, addend: 0x0, symName: __ZNSt3__16vectorIiNS_9allocatorIiEEEixB7v160006Em, symObjAddr: 0xE1DC, symBinAddr: 0x10000FEF4, symSize: 0x24 }
  - { offsetInCU: 0x67734, offset: 0x67734, size: 0x8, addend: 0x0, symName: __ZNSt3__16vectorIfNS_9allocatorIfEEE5eraseB7v160006ENS_11__wrap_iterIPKfEE, symObjAddr: 0xE200, symBinAddr: 0x10000FF18, symSize: 0xA4 }
  - { offsetInCU: 0x67789, offset: 0x67789, size: 0x8, addend: 0x0, symName: __ZNSt3__16vectorIfNS_9allocatorIfEEE5beginB7v160006Ev, symObjAddr: 0xE2A4, symBinAddr: 0x10000FFBC, symSize: 0x30 }
  - { offsetInCU: 0x677BC, offset: 0x677BC, size: 0x8, addend: 0x0, symName: __ZNSt3__111__wrap_iterIPKfEC1B7v160006IPfEERKNS0_IT_EEPNS_9enable_ifIXsr14is_convertibleIS6_S2_EE5valueEvE4typeE, symObjAddr: 0xE2D4, symBinAddr: 0x10000FFEC, symSize: 0x3C }
  - { offsetInCU: 0x67808, offset: 0x67808, size: 0x8, addend: 0x0, symName: __Z4fabsB7v160006f, symObjAddr: 0xE310, symBinAddr: 0x100010028, symSize: 0x18 }
  - { offsetInCU: 0x67836, offset: 0x67836, size: 0x8, addend: 0x0, symName: __Z3powB7v160006ff, symObjAddr: 0xE328, symBinAddr: 0x100010040, symSize: 0x2C }
  - { offsetInCU: 0x67874, offset: 0x67874, size: 0x8, addend: 0x0, symName: __ZNSt3__114basic_ofstreamIcNS_11char_traitsIcEEE5closeEv, symObjAddr: 0xE354, symBinAddr: 0x10001006C, symSize: 0x58 }
  - { offsetInCU: 0x678A1, offset: 0x678A1, size: 0x8, addend: 0x0, symName: __ZNSt3__112basic_stringIcNS_11char_traitsIcEENS_9allocatorIcEEEC1B7v160006IDnEEPKc, symObjAddr: 0xE3AC, symBinAddr: 0x1000100C4, symSize: 0x34 }
  - { offsetInCU: 0x6794A, offset: 0x6794A, size: 0x8, addend: 0x0, symName: __ZNSt3__118basic_stringstreamIcNS_11char_traitsIcEENS_9allocatorIcEEEC1B7v160006Ev, symObjAddr: 0xE3E0, symBinAddr: 0x1000100F8, symSize: 0x104 }
  - { offsetInCU: 0x67974, offset: 0x67974, size: 0x8, addend: 0x0, symName: __ZNKSt3__118basic_stringstreamIcNS_11char_traitsIcEENS_9allocatorIcEEE3strB7v160006Ev, symObjAddr: 0xE568, symBinAddr: 0x100010280, symSize: 0x30 }
  - { offsetInCU: 0x6799A, offset: 0x6799A, size: 0x8, addend: 0x0, symName: __ZNKSt3__112basic_stringIcNS_11char_traitsIcEENS_9allocatorIcEEE5c_strB7v160006Ev, symObjAddr: 0xE598, symBinAddr: 0x1000102B0, symSize: 0x24 }
  - { offsetInCU: 0x679C0, offset: 0x679C0, size: 0x8, addend: 0x0, symName: __ZN5TROOT4TimeEi, symObjAddr: 0xE5BC, symBinAddr: 0x1000102D4, symSize: 0x20 }
  - { offsetInCU: 0x679FA, offset: 0x679FA, size: 0x8, addend: 0x0, symName: __ZNSt3__118basic_stringstreamIcNS_11char_traitsIcEENS_9allocatorIcEEED1Ev, symObjAddr: 0xE5DC, symBinAddr: 0x1000102F4, symSize: 0x40 }
  - { offsetInCU: 0x67A2C, offset: 0x67A2C, size: 0x8, addend: 0x0, symName: __ZNSt3__114basic_ofstreamIcNS_11char_traitsIcEEED1Ev, symObjAddr: 0xE61C, symBinAddr: 0x100010334, symSize: 0x40 }
  - { offsetInCU: 0x67A59, offset: 0x67A59, size: 0x8, addend: 0x0, symName: _main, symObjAddr: 0xE65C, symBinAddr: 0x100010374, symSize: 0x119C }
  - { offsetInCU: 0x67ACD, offset: 0x67ACD, size: 0x8, addend: 0x0, symName: __ZNKSt3__111__wrap_iterIP3HitE4baseB7v160006Ev, symObjAddr: 0xF840, symBinAddr: 0x100011558, symSize: 0x18 }
  - { offsetInCU: 0x67AF3, offset: 0x67AF3, size: 0x8, addend: 0x0, symName: __ZNKSt3__111__wrap_iterIPiE4baseB7v160006Ev, symObjAddr: 0xF8A0, symBinAddr: 0x1000115B8, symSize: 0x18 }
  - { offsetInCU: 0x67B19, offset: 0x67B19, size: 0x8, addend: 0x0, symName: __ZNSt3__111__wrap_iterIPKfEC2B7v160006IPfEERKNS0_IT_EEPNS_9enable_ifIXsr14is_convertibleIS6_S2_EE5valueEvE4typeE, symObjAddr: 0xF8B8, symBinAddr: 0x1000115D0, symSize: 0x40 }
  - { offsetInCU: 0x67B65, offset: 0x67B65, size: 0x8, addend: 0x0, symName: __ZNKSt3__111__wrap_iterIPfE4baseB7v160006Ev, symObjAddr: 0xF8F8, symBinAddr: 0x100011610, symSize: 0x18 }
  - { offsetInCU: 0x67B8B, offset: 0x67B8B, size: 0x8, addend: 0x0, symName: __ZNSt3__118basic_stringstreamIcNS_11char_traitsIcEENS_9allocatorIcEEED2Ev, symObjAddr: 0xF910, symBinAddr: 0x100011628, symSize: 0x6C }
  - { offsetInCU: 0x67BC5, offset: 0x67BC5, size: 0x8, addend: 0x0, symName: __ZThn16_NSt3__118basic_stringstreamIcNS_11char_traitsIcEENS_9allocatorIcEEED1Ev, symObjAddr: 0xF97C, symBinAddr: 0x100011694, symSize: 0x1C }
  - { offsetInCU: 0x67BDC, offset: 0x67BDC, size: 0x8, addend: 0x0, symName: __ZTv0_n24_NSt3__118basic_stringstreamIcNS_11char_traitsIcEENS_9allocatorIcEEED1Ev, symObjAddr: 0xF998, symBinAddr: 0x1000116B0, symSize: 0x28 }
  - { offsetInCU: 0x67BF8, offset: 0x67BF8, size: 0x8, addend: 0x0, symName: __ZNSt3__115basic_stringbufIcNS_11char_traitsIcEENS_9allocatorIcEEED1Ev, symObjAddr: 0xF9C0, symBinAddr: 0x1000116D8, symSize: 0x2C }
  - { offsetInCU: 0x67C25, offset: 0x67C25, size: 0x8, addend: 0x0, symName: __ZNSt3__115basic_stringbufIcNS_11char_traitsIcEENS_9allocatorIcEEED2Ev, symObjAddr: 0xF9EC, symBinAddr: 0x100011704, symSize: 0x48 }
  - { offsetInCU: 0x67C52, offset: 0x67C52, size: 0x8, addend: 0x0, symName: __ZNSt3__114basic_ofstreamIcNS_11char_traitsIcEEED2Ev, symObjAddr: 0xFA34, symBinAddr: 0x10001174C, symSize: 0x64 }
  - { offsetInCU: 0x67C8C, offset: 0x67C8C, size: 0x8, addend: 0x0, symName: __ZTv0_n24_NSt3__114basic_ofstreamIcNS_11char_traitsIcEEED1Ev, symObjAddr: 0xFA98, symBinAddr: 0x1000117B0, symSize: 0x28 }
  - { offsetInCU: 0x67CA3, offset: 0x67CA3, size: 0x8, addend: 0x0, symName: __ZNSt3__112basic_stringIcNS_11char_traitsIcEENS_9allocatorIcEEEC2B7v160006IDnEEPKc, symObjAddr: 0xFAC0, symBinAddr: 0x1000117D8, symSize: 0x60 }
  - { offsetInCU: 0x67CE7, offset: 0x67CE7, size: 0x8, addend: 0x0, symName: __ZNSt3__117__compressed_pairINS_12basic_stringIcNS_11char_traitsIcEENS_9allocatorIcEEE5__repES5_EC1B7v160006INS_18__default_init_tagESA_EEOT_OT0_, symObjAddr: 0xFB20, symBinAddr: 0x100011838, symSize: 0x3C }
  - { offsetInCU: 0x67D3F, offset: 0x67D3F, size: 0x8, addend: 0x0, symName: __ZNSt3__111char_traitsIcE6lengthEPKc, symObjAddr: 0xFB5C, symBinAddr: 0x100011874, symSize: 0x34 }
  - { offsetInCU: 0x67D62, offset: 0x67D62, size: 0x8, addend: 0x0, symName: __ZNSt3__117__compressed_pairINS_12basic_stringIcNS_11char_traitsIcEENS_9allocatorIcEEE5__repES5_EC2B7v160006INS_18__default_init_tagESA_EEOT_OT0_, symObjAddr: 0xFBA0, symBinAddr: 0x1000118B8, symSize: 0x3C }
  - { offsetInCU: 0x67DBA, offset: 0x67DBA, size: 0x8, addend: 0x0, symName: __ZNSt3__122__compressed_pair_elemINS_12basic_stringIcNS_11char_traitsIcEENS_9allocatorIcEEE5__repELi0ELb0EEC2B7v160006ENS_18__default_init_tagE, symObjAddr: 0xFBDC, symBinAddr: 0x1000118F4, symSize: 0x14 }
  - { offsetInCU: 0x67DEF, offset: 0x67DEF, size: 0x8, addend: 0x0, symName: __ZNSt3__122__compressed_pair_elemINS_9allocatorIcEELi1ELb1EEC2B7v160006ENS_18__default_init_tagE, symObjAddr: 0xFBF0, symBinAddr: 0x100011908, symSize: 0x2C }
  - { offsetInCU: 0x67E24, offset: 0x67E24, size: 0x8, addend: 0x0, symName: __ZNSt3__19allocatorIcEC2B7v160006Ev, symObjAddr: 0xFC1C, symBinAddr: 0x100011934, symSize: 0x2C }
  - { offsetInCU: 0x67E4E, offset: 0x67E4E, size: 0x8, addend: 0x0, symName: __ZNSt3__116__non_trivial_ifILb1ENS_9allocatorIcEEEC2B7v160006Ev, symObjAddr: 0xFC48, symBinAddr: 0x100011960, symSize: 0x14 }
  - { offsetInCU: 0x67E78, offset: 0x67E78, size: 0x8, addend: 0x0, symName: __ZNKSt3__16vectorIiNS_9allocatorIiEEE4sizeB7v160006Ev, symObjAddr: 0xFC8C, symBinAddr: 0x1000119A4, symSize: 0x28 }
  - { offsetInCU: 0x67E9E, offset: 0x67E9E, size: 0x8, addend: 0x0, symName: __ZNSt3__16vectorIiNS_9allocatorIiEEE7__clearB7v160006Ev, symObjAddr: 0xFCB4, symBinAddr: 0x1000119CC, symSize: 0x28 }
  - { offsetInCU: 0x67EC4, offset: 0x67EC4, size: 0x8, addend: 0x0, symName: __ZNKSt3__16vectorIiNS_9allocatorIiEEE17__annotate_shrinkB7v160006Em, symObjAddr: 0xFCDC, symBinAddr: 0x1000119F4, symSize: 0xB4 }
  - { offsetInCU: 0x67EF9, offset: 0x67EF9, size: 0x8, addend: 0x0, symName: __ZNSt3__16vectorIiNS_9allocatorIiEEE22__base_destruct_at_endB7v160006EPi, symObjAddr: 0xFDA0, symBinAddr: 0x100011AB8, symSize: 0x8C }
  - { offsetInCU: 0x67F3D, offset: 0x67F3D, size: 0x8, addend: 0x0, symName: __ZNSt3__116allocator_traitsINS_9allocatorIiEEE7destroyB7v160006IivEEvRS2_PT_, symObjAddr: 0xFE2C, symBinAddr: 0x100011B44, symSize: 0x2C }
  - { offsetInCU: 0x67F7A, offset: 0x67F7A, size: 0x8, addend: 0x0, symName: __ZNSt3__16vectorIiNS_9allocatorIiEEE7__allocB7v160006Ev, symObjAddr: 0xFE58, symBinAddr: 0x100011B70, symSize: 0x28 }
  - { offsetInCU: 0x67FA0, offset: 0x67FA0, size: 0x8, addend: 0x0, symName: __ZNSt3__19allocatorIiE7destroyB7v160006EPi, symObjAddr: 0xFE94, symBinAddr: 0x100011BAC, symSize: 0x14 }
  - { offsetInCU: 0x67FD4, offset: 0x67FD4, size: 0x8, addend: 0x0, symName: __ZNSt3__117__compressed_pairIPiNS_9allocatorIiEEE6secondB7v160006Ev, symObjAddr: 0xFEA8, symBinAddr: 0x100011BC0, symSize: 0x24 }
  - { offsetInCU: 0x67FFA, offset: 0x67FFA, size: 0x8, addend: 0x0, symName: __ZNSt3__122__compressed_pair_elemINS_9allocatorIiEELi1ELb1EE5__getB7v160006Ev, symObjAddr: 0xFECC, symBinAddr: 0x100011BE4, symSize: 0x14 }
  - { offsetInCU: 0x68020, offset: 0x68020, size: 0x8, addend: 0x0, symName: __ZNKSt3__16vectorIiNS_9allocatorIiEEE31__annotate_contiguous_containerB7v160006EPKvS5_S5_S5_, symObjAddr: 0xFEE0, symBinAddr: 0x100011BF8, symSize: 0x20 }
  - { offsetInCU: 0x68072, offset: 0x68072, size: 0x8, addend: 0x0, symName: __ZNKSt3__16vectorIiNS_9allocatorIiEEE4dataB7v160006Ev, symObjAddr: 0xFF00, symBinAddr: 0x100011C18, symSize: 0x28 }
  - { offsetInCU: 0x68098, offset: 0x68098, size: 0x8, addend: 0x0, symName: __ZNKSt3__16vectorIiNS_9allocatorIiEEE8capacityB7v160006Ev, symObjAddr: 0xFF28, symBinAddr: 0x100011C40, symSize: 0x40 }
  - { offsetInCU: 0x680BE, offset: 0x680BE, size: 0x8, addend: 0x0, symName: __ZNKSt3__16vectorIiNS_9allocatorIiEEE9__end_capB7v160006Ev, symObjAddr: 0xFF68, symBinAddr: 0x100011C80, symSize: 0x28 }
  - { offsetInCU: 0x680E4, offset: 0x680E4, size: 0x8, addend: 0x0, symName: __ZNKSt3__117__compressed_pairIPiNS_9allocatorIiEEE5firstB7v160006Ev, symObjAddr: 0xFF90, symBinAddr: 0x100011CA8, symSize: 0x24 }
  - { offsetInCU: 0x6810A, offset: 0x6810A, size: 0x8, addend: 0x0, symName: __ZNKSt3__122__compressed_pair_elemIPiLi0ELb0EE5__getB7v160006Ev, symObjAddr: 0xFFB4, symBinAddr: 0x100011CCC, symSize: 0x14 }
  - { offsetInCU: 0x68130, offset: 0x68130, size: 0x8, addend: 0x0, symName: __ZNSt3__16vectorIiNS_9allocatorIiEEE9__end_capB7v160006Ev, symObjAddr: 0xFFC8, symBinAddr: 0x100011CE0, symSize: 0x28 }
  - { offsetInCU: 0x68156, offset: 0x68156, size: 0x8, addend: 0x0, symName: __ZNSt3__16vectorIiNS_9allocatorIiEEE22__construct_one_at_endB7v160006IJiEEEvDpOT_, symObjAddr: 0xFFF0, symBinAddr: 0x100011D08, symSize: 0x90 }
  - { offsetInCU: 0x681A5, offset: 0x681A5, size: 0x8, addend: 0x0, symName: __ZNSt3__16vectorIiNS_9allocatorIiEEE21__push_back_slow_pathIiEEvOT_, symObjAddr: 0x10080, symBinAddr: 0x100011D98, symSize: 0xD8 }
  - { offsetInCU: 0x68203, offset: 0x68203, size: 0x8, addend: 0x0, symName: __ZNSt3__117__compressed_pairIPiNS_9allocatorIiEEE5firstB7v160006Ev, symObjAddr: 0x10158, symBinAddr: 0x100011E70, symSize: 0x24 }
  - { offsetInCU: 0x68229, offset: 0x68229, size: 0x8, addend: 0x0, symName: __ZNSt3__122__compressed_pair_elemIPiLi0ELb0EE5__getB7v160006Ev, symObjAddr: 0x1017C, symBinAddr: 0x100011E94, symSize: 0x14 }
  - { offsetInCU: 0x6826C, offset: 0x6826C, size: 0x8, addend: 0x0, symName: __ZNSt3__16vectorIiNS_9allocatorIiEEE21_ConstructTransactionC1B7v160006ERS3_m, symObjAddr: 0x10190, symBinAddr: 0x100011EA8, symSize: 0x3C }
  - { offsetInCU: 0x682B4, offset: 0x682B4, size: 0x8, addend: 0x0, symName: __ZNSt3__116allocator_traitsINS_9allocatorIiEEE9constructB7v160006IiJiEvEEvRS2_PT_DpOT0_, symObjAddr: 0x101CC, symBinAddr: 0x100011EE4, symSize: 0x34 }
  - { offsetInCU: 0x6830B, offset: 0x6830B, size: 0x8, addend: 0x0, symName: __ZNSt3__16vectorIiNS_9allocatorIiEEE21_ConstructTransactionD1B7v160006Ev, symObjAddr: 0x10200, symBinAddr: 0x100011F18, symSize: 0x2C }
  - { offsetInCU: 0x68335, offset: 0x68335, size: 0x8, addend: 0x0, symName: __ZNSt3__16vectorIiNS_9allocatorIiEEE21_ConstructTransactionC2B7v160006ERS3_m, symObjAddr: 0x1022C, symBinAddr: 0x100011F44, symSize: 0x44 }
  - { offsetInCU: 0x6837D, offset: 0x6837D, size: 0x8, addend: 0x0, symName: __ZNSt3__19allocatorIiE9constructB7v160006IiJiEEEvPT_DpOT0_, symObjAddr: 0x10270, symBinAddr: 0x100011F88, symSize: 0x28 }
  - { offsetInCU: 0x683D3, offset: 0x683D3, size: 0x8, addend: 0x0, symName: __ZNSt3__16vectorIiNS_9allocatorIiEEE21_ConstructTransactionD2B7v160006Ev, symObjAddr: 0x10298, symBinAddr: 0x100011FB0, symSize: 0x20 }
  - { offsetInCU: 0x683FD, offset: 0x683FD, size: 0x8, addend: 0x0, symName: __ZNKSt3__16vectorIiNS_9allocatorIiEEE11__recommendB7v160006Em, symObjAddr: 0x102B8, symBinAddr: 0x100011FD0, symSize: 0xB4 }
  - { offsetInCU: 0x68452, offset: 0x68452, size: 0x8, addend: 0x0, symName: __ZNSt3__114__split_bufferIiRNS_9allocatorIiEEEC1EmmS3_, symObjAddr: 0x1036C, symBinAddr: 0x100012084, symSize: 0x44 }
  - { offsetInCU: 0x684A8, offset: 0x684A8, size: 0x8, addend: 0x0, symName: __ZNSt3__114__split_bufferIiRNS_9allocatorIiEEED1Ev, symObjAddr: 0x104C8, symBinAddr: 0x1000121E0, symSize: 0x2C }
  - { offsetInCU: 0x684D4, offset: 0x684D4, size: 0x8, addend: 0x0, symName: __ZNKSt3__16vectorIiNS_9allocatorIiEEE8max_sizeEv, symObjAddr: 0x104F4, symBinAddr: 0x10001220C, symSize: 0x60 }
  - { offsetInCU: 0x684FC, offset: 0x684FC, size: 0x8, addend: 0x0, symName: __ZNKSt3__16vectorIiNS_9allocatorIiEEE20__throw_length_errorB7v160006Ev, symObjAddr: 0x10554, symBinAddr: 0x10001226C, symSize: 0x1C }
  - { offsetInCU: 0x6852E, offset: 0x6852E, size: 0x8, addend: 0x0, symName: __ZNSt3__116allocator_traitsINS_9allocatorIiEEE8max_sizeB7v160006IS2_vEEmRKS2_, symObjAddr: 0x105C8, symBinAddr: 0x1000122E0, symSize: 0x24 }
  - { offsetInCU: 0x6855C, offset: 0x6855C, size: 0x8, addend: 0x0, symName: __ZNKSt3__16vectorIiNS_9allocatorIiEEE7__allocB7v160006Ev, symObjAddr: 0x105EC, symBinAddr: 0x100012304, symSize: 0x28 }
  - { offsetInCU: 0x68582, offset: 0x68582, size: 0x8, addend: 0x0, symName: __ZNSt3__114numeric_limitsIlE3maxB7v160006Ev, symObjAddr: 0x10614, symBinAddr: 0x10001232C, symSize: 0x14 }
  - { offsetInCU: 0x685A1, offset: 0x685A1, size: 0x8, addend: 0x0, symName: __ZNKSt3__16__lessImmEclB7v160006ERKmS3_, symObjAddr: 0x1067C, symBinAddr: 0x100012394, symSize: 0x34 }
  - { offsetInCU: 0x685E3, offset: 0x685E3, size: 0x8, addend: 0x0, symName: __ZNKSt3__19allocatorIiE8max_sizeB7v160006Ev, symObjAddr: 0x106B0, symBinAddr: 0x1000123C8, symSize: 0x14 }
  - { offsetInCU: 0x68609, offset: 0x68609, size: 0x8, addend: 0x0, symName: __ZNKSt3__117__compressed_pairIPiNS_9allocatorIiEEE6secondB7v160006Ev, symObjAddr: 0x106C4, symBinAddr: 0x1000123DC, symSize: 0x24 }
  - { offsetInCU: 0x6862F, offset: 0x6862F, size: 0x8, addend: 0x0, symName: __ZNKSt3__122__compressed_pair_elemINS_9allocatorIiEELi1ELb1EE5__getB7v160006Ev, symObjAddr: 0x106E8, symBinAddr: 0x100012400, symSize: 0x14 }
  - { offsetInCU: 0x68655, offset: 0x68655, size: 0x8, addend: 0x0, symName: __ZNSt3__123__libcpp_numeric_limitsIlLb1EE3maxB7v160006Ev, symObjAddr: 0x106FC, symBinAddr: 0x100012414, symSize: 0x8 }
  - { offsetInCU: 0x68669, offset: 0x68669, size: 0x8, addend: 0x0, symName: __ZNSt12length_errorC1B7v160006EPKc, symObjAddr: 0x10768, symBinAddr: 0x100012480, symSize: 0x34 }
  - { offsetInCU: 0x686A1, offset: 0x686A1, size: 0x8, addend: 0x0, symName: __ZNSt12length_errorC2B7v160006EPKc, symObjAddr: 0x1079C, symBinAddr: 0x1000124B4, symSize: 0x4C }
  - { offsetInCU: 0x686D9, offset: 0x686D9, size: 0x8, addend: 0x0, symName: __ZNSt3__114__split_bufferIiRNS_9allocatorIiEEEC2EmmS3_, symObjAddr: 0x1083C, symBinAddr: 0x100012554, symSize: 0xD4 }
  - { offsetInCU: 0x68752, offset: 0x68752, size: 0x8, addend: 0x0, symName: __ZNSt3__117__compressed_pairIPiRNS_9allocatorIiEEEC1B7v160006IDnS4_EEOT_OT0_, symObjAddr: 0x10910, symBinAddr: 0x100012628, symSize: 0x3C }
  - { offsetInCU: 0x687AA, offset: 0x687AA, size: 0x8, addend: 0x0, symName: __ZNSt3__114__split_bufferIiRNS_9allocatorIiEEE7__allocB7v160006Ev, symObjAddr: 0x1098C, symBinAddr: 0x1000126A4, symSize: 0x28 }
  - { offsetInCU: 0x687D0, offset: 0x687D0, size: 0x8, addend: 0x0, symName: __ZNSt3__114__split_bufferIiRNS_9allocatorIiEEE9__end_capB7v160006Ev, symObjAddr: 0x109B4, symBinAddr: 0x1000126CC, symSize: 0x28 }
  - { offsetInCU: 0x687F6, offset: 0x687F6, size: 0x8, addend: 0x0, symName: __ZNSt3__117__compressed_pairIPiRNS_9allocatorIiEEEC2B7v160006IDnS4_EEOT_OT0_, symObjAddr: 0x109DC, symBinAddr: 0x1000126F4, symSize: 0x48 }
  - { offsetInCU: 0x6884E, offset: 0x6884E, size: 0x8, addend: 0x0, symName: __ZNSt3__122__compressed_pair_elemIPiLi0ELb0EEC2B7v160006IDnvEEOT_, symObjAddr: 0x10A24, symBinAddr: 0x10001273C, symSize: 0x1C }
  - { offsetInCU: 0x68890, offset: 0x68890, size: 0x8, addend: 0x0, symName: __ZNSt3__122__compressed_pair_elemIRNS_9allocatorIiEELi1ELb0EEC2B7v160006IS3_vEEOT_, symObjAddr: 0x10A40, symBinAddr: 0x100012758, symSize: 0x20 }
  - { offsetInCU: 0x688D2, offset: 0x688D2, size: 0x8, addend: 0x0, symName: __ZNSt3__19allocatorIiE8allocateB7v160006Em, symObjAddr: 0x10A60, symBinAddr: 0x100012778, symSize: 0x58 }
  - { offsetInCU: 0x68906, offset: 0x68906, size: 0x8, addend: 0x0, symName: __ZNSt3__117__compressed_pairIPiRNS_9allocatorIiEEE6secondB7v160006Ev, symObjAddr: 0x10BBC, symBinAddr: 0x1000128D4, symSize: 0x28 }
  - { offsetInCU: 0x6892C, offset: 0x6892C, size: 0x8, addend: 0x0, symName: __ZNSt3__122__compressed_pair_elemIRNS_9allocatorIiEELi1ELb0EE5__getB7v160006Ev, symObjAddr: 0x10BE4, symBinAddr: 0x1000128FC, symSize: 0x18 }
  - { offsetInCU: 0x68952, offset: 0x68952, size: 0x8, addend: 0x0, symName: __ZNSt3__117__compressed_pairIPiRNS_9allocatorIiEEE5firstB7v160006Ev, symObjAddr: 0x10BFC, symBinAddr: 0x100012914, symSize: 0x24 }
  - { offsetInCU: 0x68978, offset: 0x68978, size: 0x8, addend: 0x0, symName: __ZNKSt3__16vectorIiNS_9allocatorIiEEE17__annotate_deleteB7v160006Ev, symObjAddr: 0x10C20, symBinAddr: 0x100012938, symSize: 0xB8 }
  - { offsetInCU: 0x6899E, offset: 0x6899E, size: 0x8, addend: 0x0, symName: __ZNSt3__116reverse_iteratorIPiEC1B7v160006ES1_, symObjAddr: 0x10D50, symBinAddr: 0x100012A68, symSize: 0x34 }
  - { offsetInCU: 0x689D6, offset: 0x689D6, size: 0x8, addend: 0x0, symName: __ZNKSt3__116reverse_iteratorIPiE4baseB7v160006Ev, symObjAddr: 0x10D84, symBinAddr: 0x100012A9C, symSize: 0x18 }
  - { offsetInCU: 0x689FC, offset: 0x689FC, size: 0x8, addend: 0x0, symName: __ZNKSt3__16vectorIiNS_9allocatorIiEEE14__annotate_newB7v160006Em, symObjAddr: 0x10DD8, symBinAddr: 0x100012AF0, symSize: 0xAC }
  - { offsetInCU: 0x68A59, offset: 0x68A59, size: 0x8, addend: 0x0, symName: __ZNKSt3__111__move_loopINS_17_ClassicAlgPolicyEEclB7v160006INS_16reverse_iteratorIPiEES6_S6_EENS_4pairIT_T1_EES8_T0_S9_, symObjAddr: 0x11174, symBinAddr: 0x100012E8C, symSize: 0xA0 }
  - { offsetInCU: 0x68AC4, offset: 0x68AC4, size: 0x8, addend: 0x0, symName: __ZNSt3__18_IterOpsINS_17_ClassicAlgPolicyEE11__iter_moveB7v160006IRNS_16reverse_iteratorIPiEEEENS_9enable_ifIXsr12is_referenceIDTdeclsr3stdE7declvalIRT_EEEEE5valueEDTclsr3stdE4movedeclsr3stdE7declvalISA_EEEEE4typeEOS9_, symObjAddr: 0x113A8, symBinAddr: 0x1000130C0, symSize: 0x28 }
  - { offsetInCU: 0x68AF0, offset: 0x68AF0, size: 0x8, addend: 0x0, symName: __ZNKSt3__116reverse_iteratorIPiEdeB7v160006Ev, symObjAddr: 0x113D0, symBinAddr: 0x1000130E8, symSize: 0x28 }
  - { offsetInCU: 0x68B24, offset: 0x68B24, size: 0x8, addend: 0x0, symName: __ZNSt3__116reverse_iteratorIPiEppB7v160006Ev, symObjAddr: 0x113F8, symBinAddr: 0x100013110, symSize: 0x20 }
  - { offsetInCU: 0x68B4A, offset: 0x68B4A, size: 0x8, addend: 0x0, symName: __ZNSt3__18_IterOpsINS_17_ClassicAlgPolicyEE25__validate_iter_referenceB7v160006IRNS_16reverse_iteratorIPiEEEEvv, symObjAddr: 0x11418, symBinAddr: 0x100013130, symSize: 0x4 }
  - { offsetInCU: 0x68B68, offset: 0x68B68, size: 0x8, addend: 0x0, symName: __ZNSt3__118__unwrap_iter_implINS_16reverse_iteratorIPiEELb0EE8__unwrapB7v160006ES3_, symObjAddr: 0x1141C, symBinAddr: 0x100013134, symSize: 0x24 }
  - { offsetInCU: 0x68B91, offset: 0x68B91, size: 0x8, addend: 0x0, symName: __ZNSt3__14pairINS_16reverse_iteratorIPiEES3_EC1B7v160006IS3_S3_LPv0EEEOT_OT0_, symObjAddr: 0x11440, symBinAddr: 0x100013158, symSize: 0x3C }
  - { offsetInCU: 0x68BEF, offset: 0x68BEF, size: 0x8, addend: 0x0, symName: __ZNSt3__14pairINS_16reverse_iteratorIPiEES3_EC2B7v160006IS3_S3_LPv0EEEOT_OT0_, symObjAddr: 0x1147C, symBinAddr: 0x100013194, symSize: 0x34 }
  - { offsetInCU: 0x68C4D, offset: 0x68C4D, size: 0x8, addend: 0x0, symName: __ZNSt3__118__unwrap_iter_implINS_16reverse_iteratorIPiEELb0EE8__rewrapB7v160006ES3_S3_, symObjAddr: 0x114B0, symBinAddr: 0x1000131C8, symSize: 0x2C }
  - { offsetInCU: 0x68C7B, offset: 0x68C7B, size: 0x8, addend: 0x0, symName: __ZNSt3__116reverse_iteratorIPiEC2B7v160006ES1_, symObjAddr: 0x114DC, symBinAddr: 0x1000131F4, symSize: 0x28 }
  - { offsetInCU: 0x68CB3, offset: 0x68CB3, size: 0x8, addend: 0x0, symName: __ZNSt3__114__split_bufferIiRNS_9allocatorIiEEED2Ev, symObjAddr: 0x11504, symBinAddr: 0x10001321C, symSize: 0x8C }
  - { offsetInCU: 0x68CDF, offset: 0x68CDF, size: 0x8, addend: 0x0, symName: __ZNSt3__114__split_bufferIiRNS_9allocatorIiEEE5clearB7v160006Ev, symObjAddr: 0x11590, symBinAddr: 0x1000132A8, symSize: 0x28 }
  - { offsetInCU: 0x68D05, offset: 0x68D05, size: 0x8, addend: 0x0, symName: __ZNSt3__116allocator_traitsINS_9allocatorIiEEE10deallocateB7v160006ERS2_Pim, symObjAddr: 0x115B8, symBinAddr: 0x1000132D0, symSize: 0x34 }
  - { offsetInCU: 0x68D47, offset: 0x68D47, size: 0x8, addend: 0x0, symName: __ZNKSt3__114__split_bufferIiRNS_9allocatorIiEEE8capacityB7v160006Ev, symObjAddr: 0x115EC, symBinAddr: 0x100013304, symSize: 0x40 }
  - { offsetInCU: 0x68D6D, offset: 0x68D6D, size: 0x8, addend: 0x0, symName: __ZNSt3__114__split_bufferIiRNS_9allocatorIiEEE17__destruct_at_endB7v160006EPi, symObjAddr: 0x1162C, symBinAddr: 0x100013344, symSize: 0x2C }
  - { offsetInCU: 0x68DA1, offset: 0x68DA1, size: 0x8, addend: 0x0, symName: __ZNSt3__114__split_bufferIiRNS_9allocatorIiEEE17__destruct_at_endB7v160006EPiNS_17integral_constantIbLb0EEE, symObjAddr: 0x11658, symBinAddr: 0x100013370, symSize: 0x80 }
  - { offsetInCU: 0x68DE2, offset: 0x68DE2, size: 0x8, addend: 0x0, symName: __ZNSt3__19allocatorIiE10deallocateB7v160006EPim, symObjAddr: 0x116D8, symBinAddr: 0x1000133F0, symSize: 0x40 }
  - { offsetInCU: 0x68E24, offset: 0x68E24, size: 0x8, addend: 0x0, symName: __ZNKSt3__114__split_bufferIiRNS_9allocatorIiEEE9__end_capB7v160006Ev, symObjAddr: 0x11820, symBinAddr: 0x100013538, symSize: 0x28 }
  - { offsetInCU: 0x68E4A, offset: 0x68E4A, size: 0x8, addend: 0x0, symName: __ZNKSt3__117__compressed_pairIPiRNS_9allocatorIiEEE5firstB7v160006Ev, symObjAddr: 0x11848, symBinAddr: 0x100013560, symSize: 0x24 }
  - { offsetInCU: 0x68E70, offset: 0x68E70, size: 0x8, addend: 0x0, symName: __ZNKSt3__112basic_stringIcNS_11char_traitsIcEENS_9allocatorIcEEE4dataB7v160006Ev, symObjAddr: 0x1186C, symBinAddr: 0x100013584, symSize: 0x28 }
  - { offsetInCU: 0x68E96, offset: 0x68E96, size: 0x8, addend: 0x0, symName: __ZNKSt3__112basic_stringIcNS_11char_traitsIcEENS_9allocatorIcEEE13__get_pointerB7v160006Ev, symObjAddr: 0x118A8, symBinAddr: 0x1000135C0, symSize: 0x54 }
  - { offsetInCU: 0x68EBC, offset: 0x68EBC, size: 0x8, addend: 0x0, symName: __ZNKSt3__112basic_stringIcNS_11char_traitsIcEENS_9allocatorIcEEE9__is_longB7v160006Ev, symObjAddr: 0x118FC, symBinAddr: 0x100013614, symSize: 0x38 }
  - { offsetInCU: 0x68EE2, offset: 0x68EE2, size: 0x8, addend: 0x0, symName: __ZNKSt3__112basic_stringIcNS_11char_traitsIcEENS_9allocatorIcEEE18__get_long_pointerB7v160006Ev, symObjAddr: 0x11934, symBinAddr: 0x10001364C, symSize: 0x28 }
  - { offsetInCU: 0x68F08, offset: 0x68F08, size: 0x8, addend: 0x0, symName: __ZNKSt3__112basic_stringIcNS_11char_traitsIcEENS_9allocatorIcEEE19__get_short_pointerB7v160006Ev, symObjAddr: 0x1195C, symBinAddr: 0x100013674, symSize: 0x28 }
  - { offsetInCU: 0x68F2E, offset: 0x68F2E, size: 0x8, addend: 0x0, symName: __ZNKSt3__117__compressed_pairINS_12basic_stringIcNS_11char_traitsIcEENS_9allocatorIcEEE5__repES5_E5firstB7v160006Ev, symObjAddr: 0x11984, symBinAddr: 0x10001369C, symSize: 0x24 }
  - { offsetInCU: 0x68F54, offset: 0x68F54, size: 0x8, addend: 0x0, symName: __ZNKSt3__122__compressed_pair_elemINS_12basic_stringIcNS_11char_traitsIcEENS_9allocatorIcEEE5__repELi0ELb0EE5__getB7v160006Ev, symObjAddr: 0x119A8, symBinAddr: 0x1000136C0, symSize: 0x14 }
  - { offsetInCU: 0x68F7A, offset: 0x68F7A, size: 0x8, addend: 0x0, symName: __ZNSt3__114pointer_traitsIPKcE10pointer_toB7v160006ERS1_, symObjAddr: 0x119BC, symBinAddr: 0x1000136D4, symSize: 0x14 }
  - { offsetInCU: 0x68F9D, offset: 0x68F9D, size: 0x8, addend: 0x0, symName: __ZNSt3__16vectorI3HitNS_9allocatorIS1_EEEC2B7v160006Ev, symObjAddr: 0x119D0, symBinAddr: 0x1000136E8, symSize: 0x58 }
  - { offsetInCU: 0x68FC7, offset: 0x68FC7, size: 0x8, addend: 0x0, symName: __ZNSt3__117__compressed_pairIP3HitNS_9allocatorIS1_EEEC1B7v160006IDnNS_18__default_init_tagEEEOT_OT0_, symObjAddr: 0x11A28, symBinAddr: 0x100013740, symSize: 0x3C }
  - { offsetInCU: 0x6901F, offset: 0x6901F, size: 0x8, addend: 0x0, symName: __ZNSt3__117__compressed_pairIP3HitNS_9allocatorIS1_EEEC2B7v160006IDnNS_18__default_init_tagEEEOT_OT0_, symObjAddr: 0x11A74, symBinAddr: 0x10001378C, symSize: 0x40 }
  - { offsetInCU: 0x69077, offset: 0x69077, size: 0x8, addend: 0x0, symName: __ZNSt3__122__compressed_pair_elemIP3HitLi0ELb0EEC2B7v160006IDnvEEOT_, symObjAddr: 0x11AB4, symBinAddr: 0x1000137CC, symSize: 0x1C }
  - { offsetInCU: 0x690B9, offset: 0x690B9, size: 0x8, addend: 0x0, symName: __ZNSt3__122__compressed_pair_elemINS_9allocatorI3HitEELi1ELb1EEC2B7v160006ENS_18__default_init_tagE, symObjAddr: 0x11AD0, symBinAddr: 0x1000137E8, symSize: 0x2C }
  - { offsetInCU: 0x690EE, offset: 0x690EE, size: 0x8, addend: 0x0, symName: __ZNSt3__19allocatorI3HitEC2B7v160006Ev, symObjAddr: 0x11AFC, symBinAddr: 0x100013814, symSize: 0x2C }
  - { offsetInCU: 0x69118, offset: 0x69118, size: 0x8, addend: 0x0, symName: __ZNSt3__116__non_trivial_ifILb1ENS_9allocatorI3HitEEEC2B7v160006Ev, symObjAddr: 0x11B28, symBinAddr: 0x100013840, symSize: 0x14 }
  - { offsetInCU: 0x69142, offset: 0x69142, size: 0x8, addend: 0x0, symName: __ZNSt3__16vectorI3HitNS_9allocatorIS1_EEED2B7v160006Ev, symObjAddr: 0x11B3C, symBinAddr: 0x100013854, symSize: 0x44 }
  - { offsetInCU: 0x6916C, offset: 0x6916C, size: 0x8, addend: 0x0, symName: __ZNSt3__16vectorI3HitNS_9allocatorIS1_EEE16__destroy_vectorC1ERS4_, symObjAddr: 0x11B80, symBinAddr: 0x100013898, symSize: 0x34 }
  - { offsetInCU: 0x691A5, offset: 0x691A5, size: 0x8, addend: 0x0, symName: __ZNSt3__16vectorI3HitNS_9allocatorIS1_EEE16__destroy_vectorclB7v160006Ev, symObjAddr: 0x11BB4, symBinAddr: 0x1000138CC, symSize: 0x9C }
  - { offsetInCU: 0x691CB, offset: 0x691CB, size: 0x8, addend: 0x0, symName: __ZNSt3__16vectorI3HitNS_9allocatorIS1_EEE16__destroy_vectorC2ERS4_, symObjAddr: 0x11C50, symBinAddr: 0x100013968, symSize: 0x20 }
  - { offsetInCU: 0x69204, offset: 0x69204, size: 0x8, addend: 0x0, symName: __ZNKSt3__16vectorI3HitNS_9allocatorIS1_EEE17__annotate_deleteB7v160006Ev, symObjAddr: 0x11C70, symBinAddr: 0x100013988, symSize: 0xB8 }
  - { offsetInCU: 0x6922A, offset: 0x6922A, size: 0x8, addend: 0x0, symName: __ZNSt3__16vectorI3HitNS_9allocatorIS1_EEE7__clearB7v160006Ev, symObjAddr: 0x11D38, symBinAddr: 0x100013A50, symSize: 0x28 }
  - { offsetInCU: 0x69250, offset: 0x69250, size: 0x8, addend: 0x0, symName: __ZNSt3__116allocator_traitsINS_9allocatorI3HitEEE10deallocateB7v160006ERS3_PS2_m, symObjAddr: 0x11D60, symBinAddr: 0x100013A78, symSize: 0x34 }
  - { offsetInCU: 0x69292, offset: 0x69292, size: 0x8, addend: 0x0, symName: __ZNSt3__16vectorI3HitNS_9allocatorIS1_EEE7__allocB7v160006Ev, symObjAddr: 0x11D94, symBinAddr: 0x100013AAC, symSize: 0x28 }
  - { offsetInCU: 0x692B8, offset: 0x692B8, size: 0x8, addend: 0x0, symName: __ZNKSt3__16vectorI3HitNS_9allocatorIS1_EEE8capacityB7v160006Ev, symObjAddr: 0x11DBC, symBinAddr: 0x100013AD4, symSize: 0x40 }
  - { offsetInCU: 0x692DE, offset: 0x692DE, size: 0x8, addend: 0x0, symName: __ZNKSt3__16vectorI3HitNS_9allocatorIS1_EEE31__annotate_contiguous_containerB7v160006EPKvS6_S6_S6_, symObjAddr: 0x11DFC, symBinAddr: 0x100013B14, symSize: 0x20 }
  - { offsetInCU: 0x69330, offset: 0x69330, size: 0x8, addend: 0x0, symName: __ZNKSt3__16vectorI3HitNS_9allocatorIS1_EEE4dataB7v160006Ev, symObjAddr: 0x11E1C, symBinAddr: 0x100013B34, symSize: 0x28 }
  - { offsetInCU: 0x69356, offset: 0x69356, size: 0x8, addend: 0x0, symName: __ZNKSt3__16vectorI3HitNS_9allocatorIS1_EEE4sizeB7v160006Ev, symObjAddr: 0x11E44, symBinAddr: 0x100013B5C, symSize: 0x28 }
  - { offsetInCU: 0x6937C, offset: 0x6937C, size: 0x8, addend: 0x0, symName: __ZNSt3__16vectorI3HitNS_9allocatorIS1_EEE22__base_destruct_at_endB7v160006EPS1_, symObjAddr: 0x11E80, symBinAddr: 0x100013B98, symSize: 0x8C }
  - { offsetInCU: 0x693C0, offset: 0x693C0, size: 0x8, addend: 0x0, symName: __ZNSt3__116allocator_traitsINS_9allocatorI3HitEEE7destroyB7v160006IS2_vEEvRS3_PT_, symObjAddr: 0x11F0C, symBinAddr: 0x100013C24, symSize: 0x2C }
  - { offsetInCU: 0x693FD, offset: 0x693FD, size: 0x8, addend: 0x0, symName: __ZNSt3__19allocatorI3HitE7destroyB7v160006EPS1_, symObjAddr: 0x11F38, symBinAddr: 0x100013C50, symSize: 0x14 }
  - { offsetInCU: 0x69431, offset: 0x69431, size: 0x8, addend: 0x0, symName: __ZNSt3__19allocatorI3HitE10deallocateB7v160006EPS1_m, symObjAddr: 0x11F4C, symBinAddr: 0x100013C64, symSize: 0x40 }
  - { offsetInCU: 0x69473, offset: 0x69473, size: 0x8, addend: 0x0, symName: __ZNSt3__117__compressed_pairIP3HitNS_9allocatorIS1_EEE6secondB7v160006Ev, symObjAddr: 0x11F8C, symBinAddr: 0x100013CA4, symSize: 0x24 }
  - { offsetInCU: 0x69499, offset: 0x69499, size: 0x8, addend: 0x0, symName: __ZNSt3__122__compressed_pair_elemINS_9allocatorI3HitEELi1ELb1EE5__getB7v160006Ev, symObjAddr: 0x11FB0, symBinAddr: 0x100013CC8, symSize: 0x14 }
  - { offsetInCU: 0x694BF, offset: 0x694BF, size: 0x8, addend: 0x0, symName: __ZNKSt3__16vectorI3HitNS_9allocatorIS1_EEE9__end_capB7v160006Ev, symObjAddr: 0x11FC4, symBinAddr: 0x100013CDC, symSize: 0x28 }
  - { offsetInCU: 0x694E5, offset: 0x694E5, size: 0x8, addend: 0x0, symName: __ZNKSt3__117__compressed_pairIP3HitNS_9allocatorIS1_EEE5firstB7v160006Ev, symObjAddr: 0x11FEC, symBinAddr: 0x100013D04, symSize: 0x24 }
  - { offsetInCU: 0x6950B, offset: 0x6950B, size: 0x8, addend: 0x0, symName: __ZNKSt3__122__compressed_pair_elemIP3HitLi0ELb0EE5__getB7v160006Ev, symObjAddr: 0x12010, symBinAddr: 0x100013D28, symSize: 0x14 }
  - { offsetInCU: 0x69531, offset: 0x69531, size: 0x8, addend: 0x0, symName: __ZNSt3__112basic_stringIcNS_11char_traitsIcEENS_9allocatorIcEEEC1B7v160006EOS5_, symObjAddr: 0x12024, symBinAddr: 0x100013D3C, symSize: 0x34 }
  - { offsetInCU: 0x6956A, offset: 0x6956A, size: 0x8, addend: 0x0, symName: __ZNSt3__112basic_stringIcNS_11char_traitsIcEENS_9allocatorIcEEEC2B7v160006EOS5_, symObjAddr: 0x12058, symBinAddr: 0x100013D70, symSize: 0x84 }
  - { offsetInCU: 0x695A3, offset: 0x695A3, size: 0x8, addend: 0x0, symName: __ZNSt3__112basic_stringIcNS_11char_traitsIcEENS_9allocatorIcEEE14__default_initB7v160006Ev, symObjAddr: 0x120DC, symBinAddr: 0x100013DF4, symSize: 0x40 }
  - { offsetInCU: 0x695C9, offset: 0x695C9, size: 0x8, addend: 0x0, symName: __ZNSt3__117__compressed_pairINS_12basic_stringIcNS_11char_traitsIcEENS_9allocatorIcEEE5__repES5_E5firstB7v160006Ev, symObjAddr: 0x12130, symBinAddr: 0x100013E48, symSize: 0x24 }
  - { offsetInCU: 0x695EF, offset: 0x695EF, size: 0x8, addend: 0x0, symName: __ZNSt3__122__compressed_pair_elemINS_12basic_stringIcNS_11char_traitsIcEENS_9allocatorIcEEE5__repELi0ELb0EE5__getB7v160006Ev, symObjAddr: 0x12154, symBinAddr: 0x100013E6C, symSize: 0x14 }
  - { offsetInCU: 0x69615, offset: 0x69615, size: 0x8, addend: 0x0, symName: __ZNSt3__16vectorIfNS_9allocatorIfEEEC2B7v160006Ev, symObjAddr: 0x12168, symBinAddr: 0x100013E80, symSize: 0x58 }
  - { offsetInCU: 0x6963F, offset: 0x6963F, size: 0x8, addend: 0x0, symName: __ZNSt3__117__compressed_pairIPfNS_9allocatorIfEEEC1B7v160006IDnNS_18__default_init_tagEEEOT_OT0_, symObjAddr: 0x121C0, symBinAddr: 0x100013ED8, symSize: 0x3C }
  - { offsetInCU: 0x69697, offset: 0x69697, size: 0x8, addend: 0x0, symName: __ZNSt3__117__compressed_pairIPfNS_9allocatorIfEEEC2B7v160006IDnNS_18__default_init_tagEEEOT_OT0_, symObjAddr: 0x1220C, symBinAddr: 0x100013F24, symSize: 0x40 }
  - { offsetInCU: 0x696EF, offset: 0x696EF, size: 0x8, addend: 0x0, symName: __ZNSt3__122__compressed_pair_elemIPfLi0ELb0EEC2B7v160006IDnvEEOT_, symObjAddr: 0x1224C, symBinAddr: 0x100013F64, symSize: 0x1C }
  - { offsetInCU: 0x69731, offset: 0x69731, size: 0x8, addend: 0x0, symName: __ZNSt3__122__compressed_pair_elemINS_9allocatorIfEELi1ELb1EEC2B7v160006ENS_18__default_init_tagE, symObjAddr: 0x12268, symBinAddr: 0x100013F80, symSize: 0x2C }
  - { offsetInCU: 0x69766, offset: 0x69766, size: 0x8, addend: 0x0, symName: __ZNSt3__19allocatorIfEC2B7v160006Ev, symObjAddr: 0x12294, symBinAddr: 0x100013FAC, symSize: 0x2C }
  - { offsetInCU: 0x69790, offset: 0x69790, size: 0x8, addend: 0x0, symName: __ZNSt3__116__non_trivial_ifILb1ENS_9allocatorIfEEEC2B7v160006Ev, symObjAddr: 0x122C0, symBinAddr: 0x100013FD8, symSize: 0x14 }
  - { offsetInCU: 0x697BA, offset: 0x697BA, size: 0x8, addend: 0x0, symName: __ZNSt3__16vectorIfNS_9allocatorIfEEED2B7v160006Ev, symObjAddr: 0x122D4, symBinAddr: 0x100013FEC, symSize: 0x44 }
  - { offsetInCU: 0x697E4, offset: 0x697E4, size: 0x8, addend: 0x0, symName: __ZNSt3__16vectorIfNS_9allocatorIfEEE16__destroy_vectorC1ERS3_, symObjAddr: 0x12318, symBinAddr: 0x100014030, symSize: 0x34 }
  - { offsetInCU: 0x6981D, offset: 0x6981D, size: 0x8, addend: 0x0, symName: __ZNSt3__16vectorIfNS_9allocatorIfEEE16__destroy_vectorclB7v160006Ev, symObjAddr: 0x1234C, symBinAddr: 0x100014064, symSize: 0x9C }
  - { offsetInCU: 0x69843, offset: 0x69843, size: 0x8, addend: 0x0, symName: __ZNSt3__16vectorIfNS_9allocatorIfEEE16__destroy_vectorC2ERS3_, symObjAddr: 0x123E8, symBinAddr: 0x100014100, symSize: 0x20 }
  - { offsetInCU: 0x6987C, offset: 0x6987C, size: 0x8, addend: 0x0, symName: __ZNKSt3__16vectorIfNS_9allocatorIfEEE17__annotate_deleteB7v160006Ev, symObjAddr: 0x12408, symBinAddr: 0x100014120, symSize: 0xB8 }
  - { offsetInCU: 0x698A2, offset: 0x698A2, size: 0x8, addend: 0x0, symName: __ZNSt3__16vectorIfNS_9allocatorIfEEE7__clearB7v160006Ev, symObjAddr: 0x124D0, symBinAddr: 0x1000141E8, symSize: 0x28 }
  - { offsetInCU: 0x698C8, offset: 0x698C8, size: 0x8, addend: 0x0, symName: __ZNSt3__116allocator_traitsINS_9allocatorIfEEE10deallocateB7v160006ERS2_Pfm, symObjAddr: 0x124F8, symBinAddr: 0x100014210, symSize: 0x34 }
  - { offsetInCU: 0x6990A, offset: 0x6990A, size: 0x8, addend: 0x0, symName: __ZNSt3__16vectorIfNS_9allocatorIfEEE7__allocB7v160006Ev, symObjAddr: 0x1252C, symBinAddr: 0x100014244, symSize: 0x28 }
  - { offsetInCU: 0x69930, offset: 0x69930, size: 0x8, addend: 0x0, symName: __ZNKSt3__16vectorIfNS_9allocatorIfEEE8capacityB7v160006Ev, symObjAddr: 0x12554, symBinAddr: 0x10001426C, symSize: 0x40 }
  - { offsetInCU: 0x69956, offset: 0x69956, size: 0x8, addend: 0x0, symName: __ZNKSt3__16vectorIfNS_9allocatorIfEEE31__annotate_contiguous_containerB7v160006EPKvS5_S5_S5_, symObjAddr: 0x12594, symBinAddr: 0x1000142AC, symSize: 0x20 }
  - { offsetInCU: 0x699A8, offset: 0x699A8, size: 0x8, addend: 0x0, symName: __ZNKSt3__16vectorIfNS_9allocatorIfEEE4dataB7v160006Ev, symObjAddr: 0x125B4, symBinAddr: 0x1000142CC, symSize: 0x28 }
  - { offsetInCU: 0x699CE, offset: 0x699CE, size: 0x8, addend: 0x0, symName: __ZNSt3__16vectorIfNS_9allocatorIfEEE22__base_destruct_at_endB7v160006EPf, symObjAddr: 0x125F0, symBinAddr: 0x100014308, symSize: 0x8C }
  - { offsetInCU: 0x69A12, offset: 0x69A12, size: 0x8, addend: 0x0, symName: __ZNSt3__116allocator_traitsINS_9allocatorIfEEE7destroyB7v160006IfvEEvRS2_PT_, symObjAddr: 0x1267C, symBinAddr: 0x100014394, symSize: 0x2C }
  - { offsetInCU: 0x69A4F, offset: 0x69A4F, size: 0x8, addend: 0x0, symName: __ZNSt3__19allocatorIfE7destroyB7v160006EPf, symObjAddr: 0x126A8, symBinAddr: 0x1000143C0, symSize: 0x14 }
  - { offsetInCU: 0x69A83, offset: 0x69A83, size: 0x8, addend: 0x0, symName: __ZNSt3__19allocatorIfE10deallocateB7v160006EPfm, symObjAddr: 0x126BC, symBinAddr: 0x1000143D4, symSize: 0x40 }
  - { offsetInCU: 0x69AC5, offset: 0x69AC5, size: 0x8, addend: 0x0, symName: __ZNSt3__117__compressed_pairIPfNS_9allocatorIfEEE6secondB7v160006Ev, symObjAddr: 0x126FC, symBinAddr: 0x100014414, symSize: 0x24 }
  - { offsetInCU: 0x69AEB, offset: 0x69AEB, size: 0x8, addend: 0x0, symName: __ZNSt3__122__compressed_pair_elemINS_9allocatorIfEELi1ELb1EE5__getB7v160006Ev, symObjAddr: 0x12720, symBinAddr: 0x100014438, symSize: 0x14 }
  - { offsetInCU: 0x69B11, offset: 0x69B11, size: 0x8, addend: 0x0, symName: __ZNKSt3__16vectorIfNS_9allocatorIfEEE9__end_capB7v160006Ev, symObjAddr: 0x12734, symBinAddr: 0x10001444C, symSize: 0x28 }
  - { offsetInCU: 0x69B37, offset: 0x69B37, size: 0x8, addend: 0x0, symName: __ZNKSt3__117__compressed_pairIPfNS_9allocatorIfEEE5firstB7v160006Ev, symObjAddr: 0x1275C, symBinAddr: 0x100014474, symSize: 0x24 }
  - { offsetInCU: 0x69B5D, offset: 0x69B5D, size: 0x8, addend: 0x0, symName: __ZNKSt3__122__compressed_pair_elemIPfLi0ELb0EE5__getB7v160006Ev, symObjAddr: 0x12780, symBinAddr: 0x100014498, symSize: 0x14 }
  - { offsetInCU: 0x69B83, offset: 0x69B83, size: 0x8, addend: 0x0, symName: __ZNSt3__16vectorIiNS_9allocatorIiEEEC2B7v160006Ev, symObjAddr: 0x12794, symBinAddr: 0x1000144AC, symSize: 0x58 }
  - { offsetInCU: 0x69BAD, offset: 0x69BAD, size: 0x8, addend: 0x0, symName: __ZNSt3__117__compressed_pairIPiNS_9allocatorIiEEEC1B7v160006IDnNS_18__default_init_tagEEEOT_OT0_, symObjAddr: 0x127EC, symBinAddr: 0x100014504, symSize: 0x3C }
  - { offsetInCU: 0x69C05, offset: 0x69C05, size: 0x8, addend: 0x0, symName: __ZNSt3__117__compressed_pairIPiNS_9allocatorIiEEEC2B7v160006IDnNS_18__default_init_tagEEEOT_OT0_, symObjAddr: 0x12838, symBinAddr: 0x100014550, symSize: 0x40 }
  - { offsetInCU: 0x69C5D, offset: 0x69C5D, size: 0x8, addend: 0x0, symName: __ZNSt3__122__compressed_pair_elemINS_9allocatorIiEELi1ELb1EEC2B7v160006ENS_18__default_init_tagE, symObjAddr: 0x12878, symBinAddr: 0x100014590, symSize: 0x2C }
  - { offsetInCU: 0x69C92, offset: 0x69C92, size: 0x8, addend: 0x0, symName: __ZNSt3__19allocatorIiEC2B7v160006Ev, symObjAddr: 0x128A4, symBinAddr: 0x1000145BC, symSize: 0x2C }
  - { offsetInCU: 0x69CBC, offset: 0x69CBC, size: 0x8, addend: 0x0, symName: __ZNSt3__116__non_trivial_ifILb1ENS_9allocatorIiEEEC2B7v160006Ev, symObjAddr: 0x128D0, symBinAddr: 0x1000145E8, symSize: 0x14 }
  - { offsetInCU: 0x69CE6, offset: 0x69CE6, size: 0x8, addend: 0x0, symName: __ZNSt3__16vectorIiNS_9allocatorIiEEED2B7v160006Ev, symObjAddr: 0x128E4, symBinAddr: 0x1000145FC, symSize: 0x44 }
  - { offsetInCU: 0x69D10, offset: 0x69D10, size: 0x8, addend: 0x0, symName: __ZNSt3__16vectorIiNS_9allocatorIiEEE16__destroy_vectorC1ERS3_, symObjAddr: 0x12928, symBinAddr: 0x100014640, symSize: 0x34 }
  - { offsetInCU: 0x69D49, offset: 0x69D49, size: 0x8, addend: 0x0, symName: __ZNSt3__16vectorIiNS_9allocatorIiEEE16__destroy_vectorclB7v160006Ev, symObjAddr: 0x1295C, symBinAddr: 0x100014674, symSize: 0x9C }
  - { offsetInCU: 0x69D6F, offset: 0x69D6F, size: 0x8, addend: 0x0, symName: __ZNSt3__16vectorIiNS_9allocatorIiEEE16__destroy_vectorC2ERS3_, symObjAddr: 0x129F8, symBinAddr: 0x100014710, symSize: 0x20 }
  - { offsetInCU: 0x69DA8, offset: 0x69DA8, size: 0x8, addend: 0x0, symName: __ZNKSt3__16vectorI3HitNS_9allocatorIS1_EEE17__annotate_shrinkB7v160006Em, symObjAddr: 0x12A28, symBinAddr: 0x100014740, symSize: 0xB4 }
  - { offsetInCU: 0x69DDD, offset: 0x69DDD, size: 0x8, addend: 0x0, symName: __ZNSt3__16vectorI3HitNS_9allocatorIS1_EEE11__make_iterB7v160006EPS1_, symObjAddr: 0x12AEC, symBinAddr: 0x100014804, symSize: 0x34 }
  - { offsetInCU: 0x69E12, offset: 0x69E12, size: 0x8, addend: 0x0, symName: __ZNSt3__111__wrap_iterIP3HitEC1B7v160006EPKvS2_, symObjAddr: 0x12B20, symBinAddr: 0x100014838, symSize: 0x3C }
  - { offsetInCU: 0x69E58, offset: 0x69E58, size: 0x8, addend: 0x0, symName: __ZNSt3__111__wrap_iterIP3HitEC2B7v160006EPKvS2_, symObjAddr: 0x12B5C, symBinAddr: 0x100014874, symSize: 0x24 }
  - { offsetInCU: 0x69EA4, offset: 0x69EA4, size: 0x8, addend: 0x0, symName: '__ZNSt3__116_UnwrapAlgPolicyIRZ6EncodefE3$_0E10__get_compB7v160006ES2_', symObjAddr: 0x12D00, symBinAddr: 0x100014A18, symSize: 0x14 }
  - { offsetInCU: 0x69ED2, offset: 0x69ED2, size: 0x8, addend: 0x0, symName: '__ZZ6EncodefENK3$_0clERK3HitS2_', symObjAddr: 0x13400, symBinAddr: 0x100015118, symSize: 0x34 }
  - { offsetInCU: 0x69F1A, offset: 0x69F1A, size: 0x8, addend: 0x0, symName: __ZNSt3__18_IterOpsINS_17_ClassicAlgPolicyEE9iter_swapB7v160006IRP3HitS6_EEvOT_OT0_, symObjAddr: 0x13434, symBinAddr: 0x10001514C, symSize: 0x34 }
  - { offsetInCU: 0x69F63, offset: 0x69F63, size: 0x8, addend: 0x0, symName: __ZNSt3__18_IterOpsINS_17_ClassicAlgPolicyEE11__iter_moveB7v160006IRP3HitEENS_9enable_ifIXsr12is_referenceIDTdeclsr3stdE7declvalIRT_EEEEE5valueEDTclsr3stdE4movedeclsr3stdE7declvalIS9_EEEEE4typeEOS8_, symObjAddr: 0x13D54, symBinAddr: 0x100015A6C, symSize: 0x28 }
  - { offsetInCU: 0x69F8F, offset: 0x69F8F, size: 0x8, addend: 0x0, symName: __ZNSt3__18_IterOpsINS_17_ClassicAlgPolicyEE25__validate_iter_referenceB7v160006IRP3HitEEvv, symObjAddr: 0x13D7C, symBinAddr: 0x100015A94, symSize: 0x4 }
  - { offsetInCU: 0x69FAD, offset: 0x69FAD, size: 0x8, addend: 0x0, symName: __ZNSt3__18_IterOpsINS_17_ClassicAlgPolicyEE4nextB7v160006IP3HitEET_S6_S6_, symObjAddr: 0x13D80, symBinAddr: 0x100015A98, symSize: 0x18 }
  - { offsetInCU: 0x69FE4, offset: 0x69FE4, size: 0x8, addend: 0x0, symName: __ZNSt3__118__unwrap_iter_implINS_11__wrap_iterIP3HitEELb1EE8__unwrapB7v160006ES4_, symObjAddr: 0x1469C, symBinAddr: 0x1000163B4, symSize: 0x28 }
  - { offsetInCU: 0x6A012, offset: 0x6A012, size: 0x8, addend: 0x0, symName: __ZNSt3__119__to_address_helperINS_11__wrap_iterIP3HitEEvE6__callB7v160006ERKS4_, symObjAddr: 0x146E8, symBinAddr: 0x100016400, symSize: 0x30 }
  - { offsetInCU: 0x6A035, offset: 0x6A035, size: 0x8, addend: 0x0, symName: __ZNSt3__114pointer_traitsINS_11__wrap_iterIP3HitEEE10to_addressB7v160006ES4_, symObjAddr: 0x14718, symBinAddr: 0x100016430, symSize: 0x2C }
  - { offsetInCU: 0x6A059, offset: 0x6A059, size: 0x8, addend: 0x0, symName: __ZNSt3__16vectorIfNS_9allocatorIfEEE9__end_capB7v160006Ev, symObjAddr: 0x14744, symBinAddr: 0x10001645C, symSize: 0x28 }
  - { offsetInCU: 0x6A07F, offset: 0x6A07F, size: 0x8, addend: 0x0, symName: __ZNSt3__16vectorIfNS_9allocatorIfEEE22__construct_one_at_endB7v160006IJRKfEEEvDpOT_, symObjAddr: 0x1476C, symBinAddr: 0x100016484, symSize: 0x90 }
  - { offsetInCU: 0x6A0CE, offset: 0x6A0CE, size: 0x8, addend: 0x0, symName: __ZNSt3__16vectorIfNS_9allocatorIfEEE21__push_back_slow_pathIRKfEEvOT_, symObjAddr: 0x147FC, symBinAddr: 0x100016514, symSize: 0xD8 }
  - { offsetInCU: 0x6A12C, offset: 0x6A12C, size: 0x8, addend: 0x0, symName: __ZNSt3__117__compressed_pairIPfNS_9allocatorIfEEE5firstB7v160006Ev, symObjAddr: 0x148D4, symBinAddr: 0x1000165EC, symSize: 0x24 }
  - { offsetInCU: 0x6A152, offset: 0x6A152, size: 0x8, addend: 0x0, symName: __ZNSt3__122__compressed_pair_elemIPfLi0ELb0EE5__getB7v160006Ev, symObjAddr: 0x148F8, symBinAddr: 0x100016610, symSize: 0x14 }
  - { offsetInCU: 0x6A195, offset: 0x6A195, size: 0x8, addend: 0x0, symName: __ZNSt3__16vectorIfNS_9allocatorIfEEE21_ConstructTransactionC1B7v160006ERS3_m, symObjAddr: 0x1490C, symBinAddr: 0x100016624, symSize: 0x3C }
  - { offsetInCU: 0x6A1DD, offset: 0x6A1DD, size: 0x8, addend: 0x0, symName: __ZNSt3__116allocator_traitsINS_9allocatorIfEEE9constructB7v160006IfJRKfEvEEvRS2_PT_DpOT0_, symObjAddr: 0x14948, symBinAddr: 0x100016660, symSize: 0x34 }
  - { offsetInCU: 0x6A234, offset: 0x6A234, size: 0x8, addend: 0x0, symName: __ZNSt3__16vectorIfNS_9allocatorIfEEE21_ConstructTransactionD1B7v160006Ev, symObjAddr: 0x1497C, symBinAddr: 0x100016694, symSize: 0x2C }
  - { offsetInCU: 0x6A25E, offset: 0x6A25E, size: 0x8, addend: 0x0, symName: __ZNSt3__16vectorIfNS_9allocatorIfEEE21_ConstructTransactionC2B7v160006ERS3_m, symObjAddr: 0x149A8, symBinAddr: 0x1000166C0, symSize: 0x44 }
  - { offsetInCU: 0x6A2A6, offset: 0x6A2A6, size: 0x8, addend: 0x0, symName: __ZNSt3__19allocatorIfE9constructB7v160006IfJRKfEEEvPT_DpOT0_, symObjAddr: 0x149EC, symBinAddr: 0x100016704, symSize: 0x28 }
  - { offsetInCU: 0x6A2FC, offset: 0x6A2FC, size: 0x8, addend: 0x0, symName: __ZNSt3__16vectorIfNS_9allocatorIfEEE21_ConstructTransactionD2B7v160006Ev, symObjAddr: 0x14A14, symBinAddr: 0x10001672C, symSize: 0x20 }
  - { offsetInCU: 0x6A326, offset: 0x6A326, size: 0x8, addend: 0x0, symName: __ZNKSt3__16vectorIfNS_9allocatorIfEEE11__recommendB7v160006Em, symObjAddr: 0x14A34, symBinAddr: 0x10001674C, symSize: 0xB4 }
  - { offsetInCU: 0x6A37B, offset: 0x6A37B, size: 0x8, addend: 0x0, symName: __ZNSt3__114__split_bufferIfRNS_9allocatorIfEEEC1EmmS3_, symObjAddr: 0x14AE8, symBinAddr: 0x100016800, symSize: 0x44 }
  - { offsetInCU: 0x6A3D1, offset: 0x6A3D1, size: 0x8, addend: 0x0, symName: __ZNSt3__114__split_bufferIfRNS_9allocatorIfEEED1Ev, symObjAddr: 0x14C44, symBinAddr: 0x10001695C, symSize: 0x2C }
  - { offsetInCU: 0x6A3FD, offset: 0x6A3FD, size: 0x8, addend: 0x0, symName: __ZNKSt3__16vectorIfNS_9allocatorIfEEE8max_sizeEv, symObjAddr: 0x14C70, symBinAddr: 0x100016988, symSize: 0x60 }
  - { offsetInCU: 0x6A425, offset: 0x6A425, size: 0x8, addend: 0x0, symName: __ZNKSt3__16vectorIfNS_9allocatorIfEEE20__throw_length_errorB7v160006Ev, symObjAddr: 0x14CD0, symBinAddr: 0x1000169E8, symSize: 0x1C }
  - { offsetInCU: 0x6A457, offset: 0x6A457, size: 0x8, addend: 0x0, symName: __ZNSt3__116allocator_traitsINS_9allocatorIfEEE8max_sizeB7v160006IS2_vEEmRKS2_, symObjAddr: 0x14CEC, symBinAddr: 0x100016A04, symSize: 0x24 }
  - { offsetInCU: 0x6A485, offset: 0x6A485, size: 0x8, addend: 0x0, symName: __ZNKSt3__16vectorIfNS_9allocatorIfEEE7__allocB7v160006Ev, symObjAddr: 0x14D10, symBinAddr: 0x100016A28, symSize: 0x28 }
  - { offsetInCU: 0x6A4AB, offset: 0x6A4AB, size: 0x8, addend: 0x0, symName: __ZNKSt3__19allocatorIfE8max_sizeB7v160006Ev, symObjAddr: 0x14D38, symBinAddr: 0x100016A50, symSize: 0x14 }
  - { offsetInCU: 0x6A4D1, offset: 0x6A4D1, size: 0x8, addend: 0x0, symName: __ZNKSt3__117__compressed_pairIPfNS_9allocatorIfEEE6secondB7v160006Ev, symObjAddr: 0x14D4C, symBinAddr: 0x100016A64, symSize: 0x24 }
  - { offsetInCU: 0x6A4F7, offset: 0x6A4F7, size: 0x8, addend: 0x0, symName: __ZNKSt3__122__compressed_pair_elemINS_9allocatorIfEELi1ELb1EE5__getB7v160006Ev, symObjAddr: 0x14D70, symBinAddr: 0x100016A88, symSize: 0x14 }
  - { offsetInCU: 0x6A51D, offset: 0x6A51D, size: 0x8, addend: 0x0, symName: __ZNSt3__114__split_bufferIfRNS_9allocatorIfEEEC2EmmS3_, symObjAddr: 0x14D84, symBinAddr: 0x100016A9C, symSize: 0xD4 }
  - { offsetInCU: 0x6A590, offset: 0x6A590, size: 0x8, addend: 0x0, symName: __ZNSt3__117__compressed_pairIPfRNS_9allocatorIfEEEC1B7v160006IDnS4_EEOT_OT0_, symObjAddr: 0x14E58, symBinAddr: 0x100016B70, symSize: 0x3C }
  - { offsetInCU: 0x6A5E8, offset: 0x6A5E8, size: 0x8, addend: 0x0, symName: __ZNSt3__114__split_bufferIfRNS_9allocatorIfEEE7__allocB7v160006Ev, symObjAddr: 0x14ED4, symBinAddr: 0x100016BEC, symSize: 0x28 }
  - { offsetInCU: 0x6A60E, offset: 0x6A60E, size: 0x8, addend: 0x0, symName: __ZNSt3__114__split_bufferIfRNS_9allocatorIfEEE9__end_capB7v160006Ev, symObjAddr: 0x14EFC, symBinAddr: 0x100016C14, symSize: 0x28 }
  - { offsetInCU: 0x6A634, offset: 0x6A634, size: 0x8, addend: 0x0, symName: __ZNSt3__117__compressed_pairIPfRNS_9allocatorIfEEEC2B7v160006IDnS4_EEOT_OT0_, symObjAddr: 0x14F24, symBinAddr: 0x100016C3C, symSize: 0x48 }
  - { offsetInCU: 0x6A68C, offset: 0x6A68C, size: 0x8, addend: 0x0, symName: __ZNSt3__122__compressed_pair_elemIRNS_9allocatorIfEELi1ELb0EEC2B7v160006IS3_vEEOT_, symObjAddr: 0x14F6C, symBinAddr: 0x100016C84, symSize: 0x20 }
  - { offsetInCU: 0x6A6CE, offset: 0x6A6CE, size: 0x8, addend: 0x0, symName: __ZNSt3__19allocatorIfE8allocateB7v160006Em, symObjAddr: 0x14F8C, symBinAddr: 0x100016CA4, symSize: 0x58 }
  - { offsetInCU: 0x6A702, offset: 0x6A702, size: 0x8, addend: 0x0, symName: __ZNSt3__117__compressed_pairIPfRNS_9allocatorIfEEE6secondB7v160006Ev, symObjAddr: 0x14FE4, symBinAddr: 0x100016CFC, symSize: 0x28 }
  - { offsetInCU: 0x6A728, offset: 0x6A728, size: 0x8, addend: 0x0, symName: __ZNSt3__122__compressed_pair_elemIRNS_9allocatorIfEELi1ELb0EE5__getB7v160006Ev, symObjAddr: 0x1500C, symBinAddr: 0x100016D24, symSize: 0x18 }
  - { offsetInCU: 0x6A74E, offset: 0x6A74E, size: 0x8, addend: 0x0, symName: __ZNSt3__117__compressed_pairIPfRNS_9allocatorIfEEE5firstB7v160006Ev, symObjAddr: 0x15024, symBinAddr: 0x100016D3C, symSize: 0x24 }
  - { offsetInCU: 0x6A774, offset: 0x6A774, size: 0x8, addend: 0x0, symName: __ZNSt3__116reverse_iteratorIPfEC1B7v160006ES1_, symObjAddr: 0x150C0, symBinAddr: 0x100016DD8, symSize: 0x34 }
  - { offsetInCU: 0x6A7AC, offset: 0x6A7AC, size: 0x8, addend: 0x0, symName: __ZNKSt3__116reverse_iteratorIPfE4baseB7v160006Ev, symObjAddr: 0x150F4, symBinAddr: 0x100016E0C, symSize: 0x18 }
  - { offsetInCU: 0x6A7D2, offset: 0x6A7D2, size: 0x8, addend: 0x0, symName: __ZNKSt3__16vectorIfNS_9allocatorIfEEE14__annotate_newB7v160006Em, symObjAddr: 0x15148, symBinAddr: 0x100016E60, symSize: 0xAC }
  - { offsetInCU: 0x6A824, offset: 0x6A824, size: 0x8, addend: 0x0, symName: __ZNKSt3__111__move_loopINS_17_ClassicAlgPolicyEEclB7v160006INS_16reverse_iteratorIPfEES6_S6_EENS_4pairIT_T1_EES8_T0_S9_, symObjAddr: 0x154F4, symBinAddr: 0x10001720C, symSize: 0xA0 }
  - { offsetInCU: 0x6A895, offset: 0x6A895, size: 0x8, addend: 0x0, symName: __ZNSt3__18_IterOpsINS_17_ClassicAlgPolicyEE11__iter_moveB7v160006IRNS_16reverse_iteratorIPfEEEENS_9enable_ifIXsr12is_referenceIDTdeclsr3stdE7declvalIRT_EEEEE5valueEDTclsr3stdE4movedeclsr3stdE7declvalISA_EEEEE4typeEOS9_, symObjAddr: 0x15728, symBinAddr: 0x100017440, symSize: 0x28 }
  - { offsetInCU: 0x6A8C1, offset: 0x6A8C1, size: 0x8, addend: 0x0, symName: __ZNKSt3__116reverse_iteratorIPfEdeB7v160006Ev, symObjAddr: 0x15750, symBinAddr: 0x100017468, symSize: 0x28 }
  - { offsetInCU: 0x6A8F5, offset: 0x6A8F5, size: 0x8, addend: 0x0, symName: __ZNSt3__116reverse_iteratorIPfEppB7v160006Ev, symObjAddr: 0x15778, symBinAddr: 0x100017490, symSize: 0x20 }
  - { offsetInCU: 0x6A91B, offset: 0x6A91B, size: 0x8, addend: 0x0, symName: __ZNSt3__18_IterOpsINS_17_ClassicAlgPolicyEE25__validate_iter_referenceB7v160006IRNS_16reverse_iteratorIPfEEEEvv, symObjAddr: 0x15798, symBinAddr: 0x1000174B0, symSize: 0x4 }
  - { offsetInCU: 0x6A939, offset: 0x6A939, size: 0x8, addend: 0x0, symName: __ZNSt3__118__unwrap_iter_implINS_16reverse_iteratorIPfEELb0EE8__unwrapB7v160006ES3_, symObjAddr: 0x1579C, symBinAddr: 0x1000174B4, symSize: 0x24 }
  - { offsetInCU: 0x6A962, offset: 0x6A962, size: 0x8, addend: 0x0, symName: __ZNSt3__14pairINS_16reverse_iteratorIPfEES3_EC1B7v160006IS3_S3_LPv0EEEOT_OT0_, symObjAddr: 0x157C0, symBinAddr: 0x1000174D8, symSize: 0x3C }
  - { offsetInCU: 0x6A9C0, offset: 0x6A9C0, size: 0x8, addend: 0x0, symName: __ZNSt3__14pairINS_16reverse_iteratorIPfEES3_EC2B7v160006IS3_S3_LPv0EEEOT_OT0_, symObjAddr: 0x157FC, symBinAddr: 0x100017514, symSize: 0x34 }
  - { offsetInCU: 0x6AA1E, offset: 0x6AA1E, size: 0x8, addend: 0x0, symName: __ZNSt3__118__unwrap_iter_implINS_16reverse_iteratorIPfEELb0EE8__rewrapB7v160006ES3_S3_, symObjAddr: 0x15830, symBinAddr: 0x100017548, symSize: 0x2C }
  - { offsetInCU: 0x6AA4C, offset: 0x6AA4C, size: 0x8, addend: 0x0, symName: __ZNSt3__116reverse_iteratorIPfEC2B7v160006ES1_, symObjAddr: 0x1585C, symBinAddr: 0x100017574, symSize: 0x28 }
  - { offsetInCU: 0x6AA84, offset: 0x6AA84, size: 0x8, addend: 0x0, symName: __ZNSt3__114__split_bufferIfRNS_9allocatorIfEEED2Ev, symObjAddr: 0x15884, symBinAddr: 0x10001759C, symSize: 0x8C }
  - { offsetInCU: 0x6AAB0, offset: 0x6AAB0, size: 0x8, addend: 0x0, symName: __ZNSt3__114__split_bufferIfRNS_9allocatorIfEEE5clearB7v160006Ev, symObjAddr: 0x15910, symBinAddr: 0x100017628, symSize: 0x28 }
  - { offsetInCU: 0x6AAD6, offset: 0x6AAD6, size: 0x8, addend: 0x0, symName: __ZNKSt3__114__split_bufferIfRNS_9allocatorIfEEE8capacityB7v160006Ev, symObjAddr: 0x15938, symBinAddr: 0x100017650, symSize: 0x40 }
  - { offsetInCU: 0x6AAFC, offset: 0x6AAFC, size: 0x8, addend: 0x0, symName: __ZNSt3__114__split_bufferIfRNS_9allocatorIfEEE17__destruct_at_endB7v160006EPf, symObjAddr: 0x15978, symBinAddr: 0x100017690, symSize: 0x2C }
  - { offsetInCU: 0x6AB30, offset: 0x6AB30, size: 0x8, addend: 0x0, symName: __ZNSt3__114__split_bufferIfRNS_9allocatorIfEEE17__destruct_at_endB7v160006EPfNS_17integral_constantIbLb0EEE, symObjAddr: 0x159A4, symBinAddr: 0x1000176BC, symSize: 0x80 }
  - { offsetInCU: 0x6AB71, offset: 0x6AB71, size: 0x8, addend: 0x0, symName: __ZNKSt3__114__split_bufferIfRNS_9allocatorIfEEE9__end_capB7v160006Ev, symObjAddr: 0x15A24, symBinAddr: 0x10001773C, symSize: 0x28 }
  - { offsetInCU: 0x6AB97, offset: 0x6AB97, size: 0x8, addend: 0x0, symName: __ZNKSt3__117__compressed_pairIPfRNS_9allocatorIfEEE5firstB7v160006Ev, symObjAddr: 0x15A4C, symBinAddr: 0x100017764, symSize: 0x24 }
  - { offsetInCU: 0x6ABBD, offset: 0x6ABBD, size: 0x8, addend: 0x0, symName: __ZNSt3__16vectorIiNS_9allocatorIiEEE22__construct_one_at_endB7v160006IJRKiEEEvDpOT_, symObjAddr: 0x15A70, symBinAddr: 0x100017788, symSize: 0x90 }
  - { offsetInCU: 0x6AC0C, offset: 0x6AC0C, size: 0x8, addend: 0x0, symName: __ZNSt3__16vectorIiNS_9allocatorIiEEE21__push_back_slow_pathIRKiEEvOT_, symObjAddr: 0x15B00, symBinAddr: 0x100017818, symSize: 0xD8 }
  - { offsetInCU: 0x6AC6A, offset: 0x6AC6A, size: 0x8, addend: 0x0, symName: __ZNSt3__116allocator_traitsINS_9allocatorIiEEE9constructB7v160006IiJRKiEvEEvRS2_PT_DpOT0_, symObjAddr: 0x15BD8, symBinAddr: 0x1000178F0, symSize: 0x34 }
  - { offsetInCU: 0x6ACC1, offset: 0x6ACC1, size: 0x8, addend: 0x0, symName: __ZNSt3__19allocatorIiE9constructB7v160006IiJRKiEEEvPT_DpOT0_, symObjAddr: 0x15C0C, symBinAddr: 0x100017924, symSize: 0x28 }
  - { offsetInCU: 0x6AD17, offset: 0x6AD17, size: 0x8, addend: 0x0, symName: __ZN6TClass8GetClassIfEEPS_bb, symObjAddr: 0x15C34, symBinAddr: 0x10001794C, symSize: 0x40 }
  - { offsetInCU: 0x6AD62, offset: 0x6AD62, size: 0x8, addend: 0x0, symName: __ZN4ROOT8Internal20TClassGetClassHelperIfE8GetClassEbb, symObjAddr: 0x15CB4, symBinAddr: 0x1000179CC, symSize: 0x50 }
  - { offsetInCU: 0x6AD95, offset: 0x6AD95, size: 0x8, addend: 0x0, symName: __ZNSt3__16vectorI3HitNS_9allocatorIS1_EEE9__end_capB7v160006Ev, symObjAddr: 0x15D04, symBinAddr: 0x100017A1C, symSize: 0x28 }
  - { offsetInCU: 0x6ADBB, offset: 0x6ADBB, size: 0x8, addend: 0x0, symName: __ZNSt3__16vectorI3HitNS_9allocatorIS1_EEE22__construct_one_at_endB7v160006IJRfS6_S6_iEEEvDpOT_, symObjAddr: 0x15D2C, symBinAddr: 0x100017A44, symSize: 0xA8 }
  - { offsetInCU: 0x6AE46, offset: 0x6AE46, size: 0x8, addend: 0x0, symName: __ZNSt3__16vectorI3HitNS_9allocatorIS1_EEE24__emplace_back_slow_pathIJRfS6_S6_iEEEvDpOT_, symObjAddr: 0x15DD4, symBinAddr: 0x100017AEC, symSize: 0xF0 }
  - { offsetInCU: 0x6AEE2, offset: 0x6AEE2, size: 0x8, addend: 0x0, symName: __ZNSt3__16vectorI3HitNS_9allocatorIS1_EEE4backB7v160006Ev, symObjAddr: 0x15EC4, symBinAddr: 0x100017BDC, symSize: 0x1C }
  - { offsetInCU: 0x6AF08, offset: 0x6AF08, size: 0x8, addend: 0x0, symName: __ZNSt3__117__compressed_pairIP3HitNS_9allocatorIS1_EEE5firstB7v160006Ev, symObjAddr: 0x15EE0, symBinAddr: 0x100017BF8, symSize: 0x24 }
  - { offsetInCU: 0x6AF2E, offset: 0x6AF2E, size: 0x8, addend: 0x0, symName: __ZNSt3__122__compressed_pair_elemIP3HitLi0ELb0EE5__getB7v160006Ev, symObjAddr: 0x15F04, symBinAddr: 0x100017C1C, symSize: 0x14 }
  - { offsetInCU: 0x6AF71, offset: 0x6AF71, size: 0x8, addend: 0x0, symName: __ZNSt3__16vectorI3HitNS_9allocatorIS1_EEE21_ConstructTransactionC1B7v160006ERS4_m, symObjAddr: 0x15F18, symBinAddr: 0x100017C30, symSize: 0x3C }
  - { offsetInCU: 0x6AFB9, offset: 0x6AFB9, size: 0x8, addend: 0x0, symName: __ZNSt3__116allocator_traitsINS_9allocatorI3HitEEE9constructB7v160006IS2_JRfS6_S6_iEvEEvRS3_PT_DpOT0_, symObjAddr: 0x15F54, symBinAddr: 0x100017C6C, symSize: 0x4C }
  - { offsetInCU: 0x6B04C, offset: 0x6B04C, size: 0x8, addend: 0x0, symName: __ZNSt3__16vectorI3HitNS_9allocatorIS1_EEE21_ConstructTransactionD1B7v160006Ev, symObjAddr: 0x15FA0, symBinAddr: 0x100017CB8, symSize: 0x2C }
  - { offsetInCU: 0x6B076, offset: 0x6B076, size: 0x8, addend: 0x0, symName: __ZNSt3__16vectorI3HitNS_9allocatorIS1_EEE21_ConstructTransactionC2B7v160006ERS4_m, symObjAddr: 0x15FCC, symBinAddr: 0x100017CE4, symSize: 0x44 }
  - { offsetInCU: 0x6B0BE, offset: 0x6B0BE, size: 0x8, addend: 0x0, symName: __ZNSt3__19allocatorI3HitE9constructB7v160006IS1_JRfS4_S4_iEEEvPT_DpOT0_, symObjAddr: 0x16010, symBinAddr: 0x100017D28, symSize: 0x5C }
  - { offsetInCU: 0x6B14D, offset: 0x6B14D, size: 0x8, addend: 0x0, symName: __ZN3HitC1Efffs, symObjAddr: 0x1606C, symBinAddr: 0x100017D84, symSize: 0x4C }
  - { offsetInCU: 0x6B1AF, offset: 0x6B1AF, size: 0x8, addend: 0x0, symName: __ZN3HitC2Efffs, symObjAddr: 0x160B8, symBinAddr: 0x100017DD0, symSize: 0x44 }
  - { offsetInCU: 0x6B211, offset: 0x6B211, size: 0x8, addend: 0x0, symName: __ZNSt3__16vectorI3HitNS_9allocatorIS1_EEE21_ConstructTransactionD2B7v160006Ev, symObjAddr: 0x160FC, symBinAddr: 0x100017E14, symSize: 0x20 }
  - { offsetInCU: 0x6B23B, offset: 0x6B23B, size: 0x8, addend: 0x0, symName: __ZNKSt3__16vectorI3HitNS_9allocatorIS1_EEE11__recommendB7v160006Em, symObjAddr: 0x1611C, symBinAddr: 0x100017E34, symSize: 0xB4 }
  - { offsetInCU: 0x6B290, offset: 0x6B290, size: 0x8, addend: 0x0, symName: __ZNSt3__114__split_bufferI3HitRNS_9allocatorIS1_EEEC1EmmS4_, symObjAddr: 0x161D0, symBinAddr: 0x100017EE8, symSize: 0x44 }
  - { offsetInCU: 0x6B2E6, offset: 0x6B2E6, size: 0x8, addend: 0x0, symName: __ZNSt3__114__split_bufferI3HitRNS_9allocatorIS1_EEED1Ev, symObjAddr: 0x1632C, symBinAddr: 0x100018044, symSize: 0x2C }
  - { offsetInCU: 0x6B312, offset: 0x6B312, size: 0x8, addend: 0x0, symName: __ZNKSt3__16vectorI3HitNS_9allocatorIS1_EEE8max_sizeEv, symObjAddr: 0x16358, symBinAddr: 0x100018070, symSize: 0x60 }
  - { offsetInCU: 0x6B33A, offset: 0x6B33A, size: 0x8, addend: 0x0, symName: __ZNKSt3__16vectorI3HitNS_9allocatorIS1_EEE20__throw_length_errorB7v160006Ev, symObjAddr: 0x163B8, symBinAddr: 0x1000180D0, symSize: 0x1C }
  - { offsetInCU: 0x6B36C, offset: 0x6B36C, size: 0x8, addend: 0x0, symName: __ZNSt3__116allocator_traitsINS_9allocatorI3HitEEE8max_sizeB7v160006IS3_vEEmRKS3_, symObjAddr: 0x163D4, symBinAddr: 0x1000180EC, symSize: 0x24 }
  - { offsetInCU: 0x6B39A, offset: 0x6B39A, size: 0x8, addend: 0x0, symName: __ZNKSt3__16vectorI3HitNS_9allocatorIS1_EEE7__allocB7v160006Ev, symObjAddr: 0x163F8, symBinAddr: 0x100018110, symSize: 0x28 }
  - { offsetInCU: 0x6B3C0, offset: 0x6B3C0, size: 0x8, addend: 0x0, symName: __ZNKSt3__19allocatorI3HitE8max_sizeB7v160006Ev, symObjAddr: 0x16420, symBinAddr: 0x100018138, symSize: 0x14 }
  - { offsetInCU: 0x6B3E6, offset: 0x6B3E6, size: 0x8, addend: 0x0, symName: __ZNKSt3__117__compressed_pairIP3HitNS_9allocatorIS1_EEE6secondB7v160006Ev, symObjAddr: 0x16434, symBinAddr: 0x10001814C, symSize: 0x24 }
  - { offsetInCU: 0x6B40C, offset: 0x6B40C, size: 0x8, addend: 0x0, symName: __ZNKSt3__122__compressed_pair_elemINS_9allocatorI3HitEELi1ELb1EE5__getB7v160006Ev, symObjAddr: 0x16458, symBinAddr: 0x100018170, symSize: 0x14 }
  - { offsetInCU: 0x6B432, offset: 0x6B432, size: 0x8, addend: 0x0, symName: __ZNSt3__114__split_bufferI3HitRNS_9allocatorIS1_EEEC2EmmS4_, symObjAddr: 0x1646C, symBinAddr: 0x100018184, symSize: 0xD4 }
  - { offsetInCU: 0x6B4A5, offset: 0x6B4A5, size: 0x8, addend: 0x0, symName: __ZNSt3__117__compressed_pairIP3HitRNS_9allocatorIS1_EEEC1B7v160006IDnS5_EEOT_OT0_, symObjAddr: 0x16540, symBinAddr: 0x100018258, symSize: 0x3C }
  - { offsetInCU: 0x6B4FD, offset: 0x6B4FD, size: 0x8, addend: 0x0, symName: __ZNSt3__114__split_bufferI3HitRNS_9allocatorIS1_EEE7__allocB7v160006Ev, symObjAddr: 0x165BC, symBinAddr: 0x1000182D4, symSize: 0x28 }
  - { offsetInCU: 0x6B523, offset: 0x6B523, size: 0x8, addend: 0x0, symName: __ZNSt3__114__split_bufferI3HitRNS_9allocatorIS1_EEE9__end_capB7v160006Ev, symObjAddr: 0x165E4, symBinAddr: 0x1000182FC, symSize: 0x28 }
  - { offsetInCU: 0x6B549, offset: 0x6B549, size: 0x8, addend: 0x0, symName: __ZNSt3__117__compressed_pairIP3HitRNS_9allocatorIS1_EEEC2B7v160006IDnS5_EEOT_OT0_, symObjAddr: 0x1660C, symBinAddr: 0x100018324, symSize: 0x48 }
  - { offsetInCU: 0x6B5A1, offset: 0x6B5A1, size: 0x8, addend: 0x0, symName: __ZNSt3__122__compressed_pair_elemIRNS_9allocatorI3HitEELi1ELb0EEC2B7v160006IS4_vEEOT_, symObjAddr: 0x16654, symBinAddr: 0x10001836C, symSize: 0x20 }
  - { offsetInCU: 0x6B5E3, offset: 0x6B5E3, size: 0x8, addend: 0x0, symName: __ZNSt3__19allocatorI3HitE8allocateB7v160006Em, symObjAddr: 0x16674, symBinAddr: 0x10001838C, symSize: 0x58 }
  - { offsetInCU: 0x6B617, offset: 0x6B617, size: 0x8, addend: 0x0, symName: __ZNSt3__117__compressed_pairIP3HitRNS_9allocatorIS1_EEE6secondB7v160006Ev, symObjAddr: 0x166CC, symBinAddr: 0x1000183E4, symSize: 0x28 }
  - { offsetInCU: 0x6B63D, offset: 0x6B63D, size: 0x8, addend: 0x0, symName: __ZNSt3__122__compressed_pair_elemIRNS_9allocatorI3HitEELi1ELb0EE5__getB7v160006Ev, symObjAddr: 0x166F4, symBinAddr: 0x10001840C, symSize: 0x18 }
  - { offsetInCU: 0x6B663, offset: 0x6B663, size: 0x8, addend: 0x0, symName: __ZNSt3__117__compressed_pairIP3HitRNS_9allocatorIS1_EEE5firstB7v160006Ev, symObjAddr: 0x1670C, symBinAddr: 0x100018424, symSize: 0x24 }
  - { offsetInCU: 0x6B689, offset: 0x6B689, size: 0x8, addend: 0x0, symName: __ZNSt3__116reverse_iteratorIP3HitEC1B7v160006ES2_, symObjAddr: 0x167A8, symBinAddr: 0x1000184C0, symSize: 0x34 }
  - { offsetInCU: 0x6B6C1, offset: 0x6B6C1, size: 0x8, addend: 0x0, symName: __ZNKSt3__116reverse_iteratorIP3HitE4baseB7v160006Ev, symObjAddr: 0x167DC, symBinAddr: 0x1000184F4, symSize: 0x18 }
  - { offsetInCU: 0x6B6E7, offset: 0x6B6E7, size: 0x8, addend: 0x0, symName: __ZNKSt3__16vectorI3HitNS_9allocatorIS1_EEE14__annotate_newB7v160006Em, symObjAddr: 0x16830, symBinAddr: 0x100018548, symSize: 0xAC }
  - { offsetInCU: 0x6B739, offset: 0x6B739, size: 0x8, addend: 0x0, symName: __ZNKSt3__111__move_loopINS_17_ClassicAlgPolicyEEclB7v160006INS_16reverse_iteratorIP3HitEES7_S7_EENS_4pairIT_T1_EES9_T0_SA_, symObjAddr: 0x16BCC, symBinAddr: 0x1000188E4, symSize: 0xA8 }
  - { offsetInCU: 0x6B7A4, offset: 0x6B7A4, size: 0x8, addend: 0x0, symName: __ZNSt3__18_IterOpsINS_17_ClassicAlgPolicyEE11__iter_moveB7v160006IRNS_16reverse_iteratorIP3HitEEEENS_9enable_ifIXsr12is_referenceIDTdeclsr3stdE7declvalIRT_EEEEE5valueEDTclsr3stdE4movedeclsr3stdE7declvalISB_EEEEE4typeEOSA_, symObjAddr: 0x16E08, symBinAddr: 0x100018B20, symSize: 0x28 }
  - { offsetInCU: 0x6B7D0, offset: 0x6B7D0, size: 0x8, addend: 0x0, symName: __ZNKSt3__116reverse_iteratorIP3HitEdeB7v160006Ev, symObjAddr: 0x16E30, symBinAddr: 0x100018B48, symSize: 0x28 }
  - { offsetInCU: 0x6B804, offset: 0x6B804, size: 0x8, addend: 0x0, symName: __ZNSt3__116reverse_iteratorIP3HitEppB7v160006Ev, symObjAddr: 0x16E58, symBinAddr: 0x100018B70, symSize: 0x20 }
  - { offsetInCU: 0x6B82A, offset: 0x6B82A, size: 0x8, addend: 0x0, symName: __ZNSt3__18_IterOpsINS_17_ClassicAlgPolicyEE25__validate_iter_referenceB7v160006IRNS_16reverse_iteratorIP3HitEEEEvv, symObjAddr: 0x16E78, symBinAddr: 0x100018B90, symSize: 0x4 }
  - { offsetInCU: 0x6B848, offset: 0x6B848, size: 0x8, addend: 0x0, symName: __ZNSt3__118__unwrap_iter_implINS_16reverse_iteratorIP3HitEELb0EE8__unwrapB7v160006ES4_, symObjAddr: 0x16E7C, symBinAddr: 0x100018B94, symSize: 0x24 }
  - { offsetInCU: 0x6B871, offset: 0x6B871, size: 0x8, addend: 0x0, symName: __ZNSt3__14pairINS_16reverse_iteratorIP3HitEES4_EC1B7v160006IS4_S4_LPv0EEEOT_OT0_, symObjAddr: 0x16EA0, symBinAddr: 0x100018BB8, symSize: 0x3C }
  - { offsetInCU: 0x6B8CF, offset: 0x6B8CF, size: 0x8, addend: 0x0, symName: __ZNSt3__14pairINS_16reverse_iteratorIP3HitEES4_EC2B7v160006IS4_S4_LPv0EEEOT_OT0_, symObjAddr: 0x16EDC, symBinAddr: 0x100018BF4, symSize: 0x34 }
  - { offsetInCU: 0x6B92D, offset: 0x6B92D, size: 0x8, addend: 0x0, symName: __ZNSt3__118__unwrap_iter_implINS_16reverse_iteratorIP3HitEELb0EE8__rewrapB7v160006ES4_S4_, symObjAddr: 0x16F10, symBinAddr: 0x100018C28, symSize: 0x2C }
  - { offsetInCU: 0x6B95B, offset: 0x6B95B, size: 0x8, addend: 0x0, symName: __ZNSt3__116reverse_iteratorIP3HitEC2B7v160006ES2_, symObjAddr: 0x16F3C, symBinAddr: 0x100018C54, symSize: 0x28 }
  - { offsetInCU: 0x6B993, offset: 0x6B993, size: 0x8, addend: 0x0, symName: __ZNSt3__114__split_bufferI3HitRNS_9allocatorIS1_EEED2Ev, symObjAddr: 0x16F64, symBinAddr: 0x100018C7C, symSize: 0x8C }
  - { offsetInCU: 0x6B9BF, offset: 0x6B9BF, size: 0x8, addend: 0x0, symName: __ZNSt3__114__split_bufferI3HitRNS_9allocatorIS1_EEE5clearB7v160006Ev, symObjAddr: 0x16FF0, symBinAddr: 0x100018D08, symSize: 0x28 }
  - { offsetInCU: 0x6B9E5, offset: 0x6B9E5, size: 0x8, addend: 0x0, symName: __ZNKSt3__114__split_bufferI3HitRNS_9allocatorIS1_EEE8capacityB7v160006Ev, symObjAddr: 0x17018, symBinAddr: 0x100018D30, symSize: 0x40 }
  - { offsetInCU: 0x6BA0B, offset: 0x6BA0B, size: 0x8, addend: 0x0, symName: __ZNSt3__114__split_bufferI3HitRNS_9allocatorIS1_EEE17__destruct_at_endB7v160006EPS1_, symObjAddr: 0x17058, symBinAddr: 0x100018D70, symSize: 0x2C }
  - { offsetInCU: 0x6BA3F, offset: 0x6BA3F, size: 0x8, addend: 0x0, symName: __ZNSt3__114__split_bufferI3HitRNS_9allocatorIS1_EEE17__destruct_at_endB7v160006EPS1_NS_17integral_constantIbLb0EEE, symObjAddr: 0x17084, symBinAddr: 0x100018D9C, symSize: 0x80 }
  - { offsetInCU: 0x6BA80, offset: 0x6BA80, size: 0x8, addend: 0x0, symName: __ZNKSt3__114__split_bufferI3HitRNS_9allocatorIS1_EEE9__end_capB7v160006Ev, symObjAddr: 0x17104, symBinAddr: 0x100018E1C, symSize: 0x28 }
  - { offsetInCU: 0x6BAA6, offset: 0x6BAA6, size: 0x8, addend: 0x0, symName: __ZNKSt3__117__compressed_pairIP3HitRNS_9allocatorIS1_EEE5firstB7v160006Ev, symObjAddr: 0x1712C, symBinAddr: 0x100018E44, symSize: 0x24 }
  - { offsetInCU: 0x6BAE8, offset: 0x6BAE8, size: 0x8, addend: 0x0, symName: __ZNKSt3__113basic_ostreamIcNS_11char_traitsIcEEE6sentrycvbB7v160006Ev, symObjAddr: 0x1733C, symBinAddr: 0x100019054, symSize: 0x1C }
  - { offsetInCU: 0x6BB0E, offset: 0x6BB0E, size: 0x8, addend: 0x0, symName: __ZNSt3__119ostreambuf_iteratorIcNS_11char_traitsIcEEEC1B7v160006ERNS_13basic_ostreamIcS2_EE, symObjAddr: 0x17598, symBinAddr: 0x1000192B0, symSize: 0x34 }
  - { offsetInCU: 0x6BB46, offset: 0x6BB46, size: 0x8, addend: 0x0, symName: __ZNKSt3__18ios_base5flagsB7v160006Ev, symObjAddr: 0x175CC, symBinAddr: 0x1000192E4, symSize: 0x18 }
  - { offsetInCU: 0x6BB6E, offset: 0x6BB6E, size: 0x8, addend: 0x0, symName: __ZNKSt3__19basic_iosIcNS_11char_traitsIcEEE4fillB7v160006Ev, symObjAddr: 0x175E4, symBinAddr: 0x1000192FC, symSize: 0x64 }
  - { offsetInCU: 0x6BB96, offset: 0x6BB96, size: 0x8, addend: 0x0, symName: __ZNKSt3__119ostreambuf_iteratorIcNS_11char_traitsIcEEE6failedB7v160006Ev, symObjAddr: 0x17648, symBinAddr: 0x100019360, symSize: 0x24 }
  - { offsetInCU: 0x6BBBC, offset: 0x6BBBC, size: 0x8, addend: 0x0, symName: __ZNSt3__19basic_iosIcNS_11char_traitsIcEEE8setstateB7v160006Ej, symObjAddr: 0x1766C, symBinAddr: 0x100019384, symSize: 0x2C }
  - { offsetInCU: 0x6BBF1, offset: 0x6BBF1, size: 0x8, addend: 0x0, symName: __ZNKSt3__18ios_base5widthB7v160006Ev, symObjAddr: 0x17698, symBinAddr: 0x1000193B0, symSize: 0x18 }
  - { offsetInCU: 0x6BC19, offset: 0x6BC19, size: 0x8, addend: 0x0, symName: __ZNSt3__115basic_streambufIcNS_11char_traitsIcEEE5sputnB7v160006EPKcl, symObjAddr: 0x176B0, symBinAddr: 0x1000193C8, symSize: 0x3C }
  - { offsetInCU: 0x6BC5B, offset: 0x6BC5B, size: 0x8, addend: 0x0, symName: __ZNSt3__112basic_stringIcNS_11char_traitsIcEENS_9allocatorIcEEEC1B7v160006Emc, symObjAddr: 0x176EC, symBinAddr: 0x100019404, symSize: 0x3C }
  - { offsetInCU: 0x6BCA3, offset: 0x6BCA3, size: 0x8, addend: 0x0, symName: __ZNSt3__112basic_stringIcNS_11char_traitsIcEENS_9allocatorIcEEE4dataB7v160006Ev, symObjAddr: 0x17728, symBinAddr: 0x100019440, symSize: 0x28 }
  - { offsetInCU: 0x6BCC9, offset: 0x6BCC9, size: 0x8, addend: 0x0, symName: __ZNSt3__18ios_base5widthB7v160006El, symObjAddr: 0x17750, symBinAddr: 0x100019468, symSize: 0x2C }
  - { offsetInCU: 0x6BD0F, offset: 0x6BD0F, size: 0x8, addend: 0x0, symName: __ZNSt3__112basic_stringIcNS_11char_traitsIcEENS_9allocatorIcEEEC2B7v160006Emc, symObjAddr: 0x1777C, symBinAddr: 0x100019494, symSize: 0x54 }
  - { offsetInCU: 0x6BD57, offset: 0x6BD57, size: 0x8, addend: 0x0, symName: __ZNSt3__112basic_stringIcNS_11char_traitsIcEENS_9allocatorIcEEE13__get_pointerB7v160006Ev, symObjAddr: 0x177E4, symBinAddr: 0x1000194FC, symSize: 0x54 }
  - { offsetInCU: 0x6BD7D, offset: 0x6BD7D, size: 0x8, addend: 0x0, symName: __ZNSt3__112basic_stringIcNS_11char_traitsIcEENS_9allocatorIcEEE18__get_long_pointerB7v160006Ev, symObjAddr: 0x17838, symBinAddr: 0x100019550, symSize: 0x28 }
  - { offsetInCU: 0x6BDA3, offset: 0x6BDA3, size: 0x8, addend: 0x0, symName: __ZNSt3__112basic_stringIcNS_11char_traitsIcEENS_9allocatorIcEEE19__get_short_pointerB7v160006Ev, symObjAddr: 0x17860, symBinAddr: 0x100019578, symSize: 0x28 }
  - { offsetInCU: 0x6BDC9, offset: 0x6BDC9, size: 0x8, addend: 0x0, symName: __ZNSt3__114pointer_traitsIPcE10pointer_toB7v160006ERc, symObjAddr: 0x17888, symBinAddr: 0x1000195A0, symSize: 0x14 }
  - { offsetInCU: 0x6BDEC, offset: 0x6BDEC, size: 0x8, addend: 0x0, symName: __ZNSt3__119ostreambuf_iteratorIcNS_11char_traitsIcEEEC2B7v160006ERNS_13basic_ostreamIcS2_EE, symObjAddr: 0x1789C, symBinAddr: 0x1000195B4, symSize: 0x54 }
  - { offsetInCU: 0x6BE24, offset: 0x6BE24, size: 0x8, addend: 0x0, symName: __ZNKSt3__19basic_iosIcNS_11char_traitsIcEEE5rdbufB7v160006Ev, symObjAddr: 0x178F0, symBinAddr: 0x100019608, symSize: 0x24 }
  - { offsetInCU: 0x6BE4C, offset: 0x6BE4C, size: 0x8, addend: 0x0, symName: __ZNKSt3__18ios_base5rdbufB7v160006Ev, symObjAddr: 0x17914, symBinAddr: 0x10001962C, symSize: 0x18 }
  - { offsetInCU: 0x6BE72, offset: 0x6BE72, size: 0x8, addend: 0x0, symName: __ZNSt3__111char_traitsIcE11eq_int_typeEii, symObjAddr: 0x1792C, symBinAddr: 0x100019644, symSize: 0x28 }
  - { offsetInCU: 0x6BEA3, offset: 0x6BEA3, size: 0x8, addend: 0x0, symName: __ZNSt3__111char_traitsIcE3eofEv, symObjAddr: 0x17954, symBinAddr: 0x10001966C, symSize: 0x8 }
  - { offsetInCU: 0x6BEB7, offset: 0x6BEB7, size: 0x8, addend: 0x0, symName: __ZNKSt3__19basic_iosIcNS_11char_traitsIcEEE5widenB7v160006Ec, symObjAddr: 0x1795C, symBinAddr: 0x100019674, symSize: 0x84 }
  - { offsetInCU: 0x6BF23, offset: 0x6BF23, size: 0x8, addend: 0x0, symName: __ZNKSt3__15ctypeIcE5widenB7v160006Ec, symObjAddr: 0x17A0C, symBinAddr: 0x100019724, symSize: 0x38 }
  - { offsetInCU: 0x6BF58, offset: 0x6BF58, size: 0x8, addend: 0x0, symName: __ZNSt3__18ios_base8setstateB7v160006Ej, symObjAddr: 0x17A44, symBinAddr: 0x10001975C, symSize: 0x34 }
  - { offsetInCU: 0x6BF8F, offset: 0x6BF8F, size: 0x8, addend: 0x0, symName: __ZNSt3__19basic_iosIcNS_11char_traitsIcEEEC2B7v160006Ev, symObjAddr: 0x17A78, symBinAddr: 0x100019790, symSize: 0x44 }
  - { offsetInCU: 0x6BFB9, offset: 0x6BFB9, size: 0x8, addend: 0x0, symName: __ZNSt3__113basic_ostreamIcNS_11char_traitsIcEEEC2B7v160006EPNS_15basic_streambufIcS2_EE, symObjAddr: 0x17ABC, symBinAddr: 0x1000197D4, symSize: 0x60 }
  - { offsetInCU: 0x6BFFE, offset: 0x6BFFE, size: 0x8, addend: 0x0, symName: __ZNSt3__18ios_baseC2B7v160006Ev, symObjAddr: 0x17B1C, symBinAddr: 0x100019834, symSize: 0x24 }
  - { offsetInCU: 0x6C028, offset: 0x6C028, size: 0x8, addend: 0x0, symName: __ZNSt3__19basic_iosIcNS_11char_traitsIcEEE4initB7v160006EPNS_15basic_streambufIcS2_EE, symObjAddr: 0x17B40, symBinAddr: 0x100019858, symSize: 0x44 }
  - { offsetInCU: 0x6C05F, offset: 0x6C05F, size: 0x8, addend: 0x0, symName: __ZNKSt3__16vectorIfNS_9allocatorIfEEE17__annotate_shrinkB7v160006Em, symObjAddr: 0x17B84, symBinAddr: 0x10001989C, symSize: 0xB4 }
  - { offsetInCU: 0x6C094, offset: 0x6C094, size: 0x8, addend: 0x0, symName: __ZNSt3__126linear_congruential_engineIjLj48271ELj0ELj2147483647EEC1B7v160006Ej, symObjAddr: 0x17C38, symBinAddr: 0x100019950, symSize: 0x34 }
  - { offsetInCU: 0x6C0CC, offset: 0x6C0CC, size: 0x8, addend: 0x0, symName: __ZNSt3__126linear_congruential_engineIjLj48271ELj0ELj2147483647EEC2B7v160006Ej, symObjAddr: 0x17C6C, symBinAddr: 0x100019984, symSize: 0x34 }
  - { offsetInCU: 0x6C104, offset: 0x6C104, size: 0x8, addend: 0x0, symName: __ZNSt3__126linear_congruential_engineIjLj48271ELj0ELj2147483647EE4seedB7v160006Ej, symObjAddr: 0x17CA0, symBinAddr: 0x1000199B8, symSize: 0x2C }
  - { offsetInCU: 0x6C138, offset: 0x6C138, size: 0x8, addend: 0x0, symName: __ZNSt3__126linear_congruential_engineIjLj48271ELj0ELj2147483647EE4seedB7v160006ENS_17integral_constantIbLb0EEENS2_IbLb1EEEj, symObjAddr: 0x17CCC, symBinAddr: 0x1000199E4, symSize: 0x74 }
  - { offsetInCU: 0x6C183, offset: 0x6C183, size: 0x8, addend: 0x0, symName: __ZNSt3__16vectorIiNS_9allocatorIiEEE11__make_iterB7v160006EPi, symObjAddr: 0x17D40, symBinAddr: 0x100019A58, symSize: 0x34 }
  - { offsetInCU: 0x6C1B8, offset: 0x6C1B8, size: 0x8, addend: 0x0, symName: __ZNSt3__111__wrap_iterIPiEC1B7v160006EPKvS1_, symObjAddr: 0x17D74, symBinAddr: 0x100019A8C, symSize: 0x3C }
  - { offsetInCU: 0x6C1FE, offset: 0x6C1FE, size: 0x8, addend: 0x0, symName: __ZNSt3__111__wrap_iterIPiEC2B7v160006EPKvS1_, symObjAddr: 0x17DB0, symBinAddr: 0x100019AC8, symSize: 0x24 }
  - { offsetInCU: 0x6C244, offset: 0x6C244, size: 0x8, addend: 0x0, symName: __ZNSt3__18_IterOpsINS_17_ClassicAlgPolicyEE4nextB7v160006INS_11__wrap_iterIPiEEEET_S7_S7_, symObjAddr: 0x17F10, symBinAddr: 0x100019C28, symSize: 0x20 }
  - { offsetInCU: 0x6C27B, offset: 0x6C27B, size: 0x8, addend: 0x0, symName: __ZNSt3__124uniform_int_distributionIlEC1Ev, symObjAddr: 0x17F78, symBinAddr: 0x100019C90, symSize: 0x3C }
  - { offsetInCU: 0x6C2A5, offset: 0x6C2A5, size: 0x8, addend: 0x0, symName: __ZNSt3__111__wrap_iterIPiEmmB7v160006Ev, symObjAddr: 0x17FB4, symBinAddr: 0x100019CCC, symSize: 0x20 }
  - { offsetInCU: 0x6C2CB, offset: 0x6C2CB, size: 0x8, addend: 0x0, symName: __ZNSt3__124uniform_int_distributionIlE10param_typeC1Ell, symObjAddr: 0x18190, symBinAddr: 0x100019EA8, symSize: 0x3C }
  - { offsetInCU: 0x6C317, offset: 0x6C317, size: 0x8, addend: 0x0, symName: __ZNSt3__18_IterOpsINS_17_ClassicAlgPolicyEE9iter_swapB7v160006IRNS_11__wrap_iterIPiEES6_EEvOT_OT0_, symObjAddr: 0x181CC, symBinAddr: 0x100019EE4, symSize: 0x44 }
  - { offsetInCU: 0x6C35A, offset: 0x6C35A, size: 0x8, addend: 0x0, symName: __ZNKSt3__111__wrap_iterIPiEplB7v160006El, symObjAddr: 0x18210, symBinAddr: 0x100019F28, symSize: 0x3C }
  - { offsetInCU: 0x6C39C, offset: 0x6C39C, size: 0x8, addend: 0x0, symName: __ZNSt3__124uniform_int_distributionIlEC1Ell, symObjAddr: 0x1824C, symBinAddr: 0x100019F64, symSize: 0x3C }
  - { offsetInCU: 0x6C3E2, offset: 0x6C3E2, size: 0x8, addend: 0x0, symName: __ZNSt3__124uniform_int_distributionIlEC2Ell, symObjAddr: 0x18288, symBinAddr: 0x100019FA0, symSize: 0x3C }
  - { offsetInCU: 0x6C428, offset: 0x6C428, size: 0x8, addend: 0x0, symName: __ZNKSt3__124uniform_int_distributionIlE10param_type1bEv, symObjAddr: 0x182C4, symBinAddr: 0x100019FDC, symSize: 0x18 }
  - { offsetInCU: 0x6C44E, offset: 0x6C44E, size: 0x8, addend: 0x0, symName: __ZNKSt3__124uniform_int_distributionIlE10param_type1aEv, symObjAddr: 0x182DC, symBinAddr: 0x100019FF4, symSize: 0x18 }
  - { offsetInCU: 0x6C474, offset: 0x6C474, size: 0x8, addend: 0x0, symName: __ZNSt3__125__independent_bits_engineINS_26linear_congruential_engineIjLj48271ELj0ELj2147483647EEEmEC1ERS2_m, symObjAddr: 0x182F4, symBinAddr: 0x10001A00C, symSize: 0x3C }
  - { offsetInCU: 0x6C4BB, offset: 0x6C4BB, size: 0x8, addend: 0x0, symName: __ZNSt3__125__independent_bits_engineINS_26linear_congruential_engineIjLj48271ELj0ELj2147483647EEEmEclEv, symObjAddr: 0x18330, symBinAddr: 0x10001A048, symSize: 0x24 }
  - { offsetInCU: 0x6C4E1, offset: 0x6C4E1, size: 0x8, addend: 0x0, symName: __ZNSt3__114numeric_limitsImE3maxB7v160006Ev, symObjAddr: 0x183A8, symBinAddr: 0x10001A0C0, symSize: 0x14 }
  - { offsetInCU: 0x6C4F5, offset: 0x6C4F5, size: 0x8, addend: 0x0, symName: __ZNSt3__125__independent_bits_engineINS_26linear_congruential_engineIjLj48271ELj0ELj2147483647EEEmEC2ERS2_m, symObjAddr: 0x183BC, symBinAddr: 0x10001A0D4, symSize: 0x264 }
  - { offsetInCU: 0x6C53C, offset: 0x6C53C, size: 0x8, addend: 0x0, symName: __ZNSt3__125__independent_bits_engineINS_26linear_congruential_engineIjLj48271ELj0ELj2147483647EEEmE6__evalENS_17integral_constantIbLb1EEE, symObjAddr: 0x18620, symBinAddr: 0x10001A338, symSize: 0x1F0 }
  - { offsetInCU: 0x6C5FA, offset: 0x6C5FA, size: 0x8, addend: 0x0, symName: __ZNSt3__126linear_congruential_engineIjLj48271ELj0ELj2147483647EEclB7v160006Ev, symObjAddr: 0x18810, symBinAddr: 0x10001A528, symSize: 0x34 }
  - { offsetInCU: 0x6C620, offset: 0x6C620, size: 0x8, addend: 0x0, symName: __ZNSt3__126linear_congruential_engineIjLj48271ELj0ELj2147483647EE3minB7v160006Ev, symObjAddr: 0x18844, symBinAddr: 0x10001A55C, symSize: 0x8 }
  - { offsetInCU: 0x6C63F, offset: 0x6C63F, size: 0x8, addend: 0x0, symName: __ZNSt3__18__lce_taILy48271ELy0ELy2147483647ELy4294967295ELb1EE4nextB7v160006Ej, symObjAddr: 0x1884C, symBinAddr: 0x10001A564, symSize: 0x88 }
  - { offsetInCU: 0x6C6B6, offset: 0x6C6B6, size: 0x8, addend: 0x0, symName: __ZNSt3__123__libcpp_numeric_limitsImLb1EE3maxB7v160006Ev, symObjAddr: 0x188D4, symBinAddr: 0x10001A5EC, symSize: 0x8 }
  - { offsetInCU: 0x6C6CA, offset: 0x6C6CA, size: 0x8, addend: 0x0, symName: __ZNSt3__124uniform_int_distributionIlE10param_typeC2Ell, symObjAddr: 0x188DC, symBinAddr: 0x10001A5F4, symSize: 0x2C }
  - { offsetInCU: 0x6C710, offset: 0x6C710, size: 0x8, addend: 0x0, symName: __ZNSt3__111__wrap_iterIPiEpLB7v160006El, symObjAddr: 0x18994, symBinAddr: 0x10001A6AC, symSize: 0x28 }
  - { offsetInCU: 0x6C744, offset: 0x6C744, size: 0x8, addend: 0x0, symName: __ZNSt3__16vectorIfNS_9allocatorIfEEE11__make_iterB7v160006EPf, symObjAddr: 0x189BC, symBinAddr: 0x10001A6D4, symSize: 0x34 }
  - { offsetInCU: 0x6C779, offset: 0x6C779, size: 0x8, addend: 0x0, symName: __ZNSt3__111__wrap_iterIPfEC1B7v160006EPKvS1_, symObjAddr: 0x189F0, symBinAddr: 0x10001A708, symSize: 0x3C }
  - { offsetInCU: 0x6C7BF, offset: 0x6C7BF, size: 0x8, addend: 0x0, symName: __ZNSt3__111__wrap_iterIPfEC2B7v160006EPKvS1_, symObjAddr: 0x18A2C, symBinAddr: 0x10001A744, symSize: 0x24 }
  - { offsetInCU: 0x6C805, offset: 0x6C805, size: 0x8, addend: 0x0, symName: __ZNKSt3__16vectorIfNS_9allocatorIfEEE6cbeginB7v160006Ev, symObjAddr: 0x18A98, symBinAddr: 0x10001A7B0, symSize: 0x2C }
  - { offsetInCU: 0x6C82B, offset: 0x6C82B, size: 0x8, addend: 0x0, symName: __ZNSt3__16vectorIfNS_9allocatorIfEEE17__destruct_at_endB7v160006EPf, symObjAddr: 0x18AC4, symBinAddr: 0x10001A7DC, symSize: 0x60 }
  - { offsetInCU: 0x6C86F, offset: 0x6C86F, size: 0x8, addend: 0x0, symName: __ZNSt3__16vectorIfNS_9allocatorIfEEE27__invalidate_iterators_pastB7v160006EPf, symObjAddr: 0x18B64, symBinAddr: 0x10001A87C, symSize: 0x14 }
  - { offsetInCU: 0x6C8A6, offset: 0x6C8A6, size: 0x8, addend: 0x0, symName: __ZNKSt3__111__wrap_iterIPKfE4baseB7v160006Ev, symObjAddr: 0x18B78, symBinAddr: 0x10001A890, symSize: 0x18 }
  - { offsetInCU: 0x6C8CC, offset: 0x6C8CC, size: 0x8, addend: 0x0, symName: __ZNKSt3__16vectorIfNS_9allocatorIfEEE5beginB7v160006Ev, symObjAddr: 0x18B90, symBinAddr: 0x10001A8A8, symSize: 0x30 }
  - { offsetInCU: 0x6C8F4, offset: 0x6C8F4, size: 0x8, addend: 0x0, symName: __ZNKSt3__16vectorIfNS_9allocatorIfEEE11__make_iterB7v160006EPKf, symObjAddr: 0x18BC0, symBinAddr: 0x10001A8D8, symSize: 0x34 }
  - { offsetInCU: 0x6C929, offset: 0x6C929, size: 0x8, addend: 0x0, symName: __ZNSt3__111__wrap_iterIPKfEC1B7v160006EPKvS2_, symObjAddr: 0x18BF4, symBinAddr: 0x10001A90C, symSize: 0x3C }
  - { offsetInCU: 0x6C96F, offset: 0x6C96F, size: 0x8, addend: 0x0, symName: __ZNSt3__111__wrap_iterIPKfEC2B7v160006EPKvS2_, symObjAddr: 0x18C30, symBinAddr: 0x10001A948, symSize: 0x24 }
  - { offsetInCU: 0x6C9DD, offset: 0x6C9DD, size: 0x8, addend: 0x0, symName: __ZNKSt3__114__move_trivialclB7v160006IffLi0EEENS_4pairIPT_PT0_EES4_S4_S6_, symObjAddr: 0x18DF0, symBinAddr: 0x10001AB08, symSize: 0x48 }
  - { offsetInCU: 0x6CA4C, offset: 0x6CA4C, size: 0x8, addend: 0x0, symName: __ZNSt3__14pairIPfS1_EC1B7v160006IRS1_S1_LPv0EEEOT_OT0_, symObjAddr: 0x18FB8, symBinAddr: 0x10001ACD0, symSize: 0x3C }
  - { offsetInCU: 0x6CAAA, offset: 0x6CAAA, size: 0x8, addend: 0x0, symName: __ZNSt3__14pairIPfS1_EC2B7v160006IRS1_S1_LPv0EEEOT_OT0_, symObjAddr: 0x18FF4, symBinAddr: 0x10001AD0C, symSize: 0x34 }
  - { offsetInCU: 0x6CB08, offset: 0x6CB08, size: 0x8, addend: 0x0, symName: __ZNSt3__118__unwrap_iter_implIPfLb1EE8__unwrapB7v160006ES1_, symObjAddr: 0x19028, symBinAddr: 0x10001AD40, symSize: 0x24 }
  - { offsetInCU: 0x6CB2B, offset: 0x6CB2B, size: 0x8, addend: 0x0, symName: __ZNSt3__14pairIPfS1_EC1B7v160006IS1_S1_LPv0EEEOT_OT0_, symObjAddr: 0x1904C, symBinAddr: 0x10001AD64, symSize: 0x3C }
  - { offsetInCU: 0x6CB89, offset: 0x6CB89, size: 0x8, addend: 0x0, symName: __ZNSt3__14pairIPfS1_EC2B7v160006IS1_S1_LPv0EEEOT_OT0_, symObjAddr: 0x19088, symBinAddr: 0x10001ADA0, symSize: 0x34 }
  - { offsetInCU: 0x6CBE7, offset: 0x6CBE7, size: 0x8, addend: 0x0, symName: __ZNSt3__118__unwrap_iter_implIPfLb1EE8__rewrapB7v160006ES1_S1_, symObjAddr: 0x190BC, symBinAddr: 0x10001ADD4, symSize: 0x50 }
  - { offsetInCU: 0x6CC18, offset: 0x6CC18, size: 0x8, addend: 0x0, symName: __ZNSt3__114basic_iostreamIcNS_11char_traitsIcEEEC2B7v160006EPNS_15basic_streambufIcS2_EE, symObjAddr: 0x1910C, symBinAddr: 0x10001AE24, symSize: 0xAC }
  - { offsetInCU: 0x6CC5E, offset: 0x6CC5E, size: 0x8, addend: 0x0, symName: __ZNSt3__115basic_stringbufIcNS_11char_traitsIcEENS_9allocatorIcEEEC1B7v160006Ej, symObjAddr: 0x191B8, symBinAddr: 0x10001AED0, symSize: 0x34 }
  - { offsetInCU: 0x6CC96, offset: 0x6CC96, size: 0x8, addend: 0x0, symName: __ZNSt3__113basic_istreamIcNS_11char_traitsIcEEEC2B7v160006EPNS_15basic_streambufIcS2_EE, symObjAddr: 0x191EC, symBinAddr: 0x10001AF04, symSize: 0x64 }
  - { offsetInCU: 0x6CCDB, offset: 0x6CCDB, size: 0x8, addend: 0x0, symName: __ZNSt3__113basic_ostreamIcNS_11char_traitsIcEEEC2B7v160006Ev, symObjAddr: 0x19250, symBinAddr: 0x10001AF68, symSize: 0x34 }
  - { offsetInCU: 0x6CD12, offset: 0x6CD12, size: 0x8, addend: 0x0, symName: __ZNSt3__115basic_stringbufIcNS_11char_traitsIcEENS_9allocatorIcEEEC2B7v160006Ej, symObjAddr: 0x19284, symBinAddr: 0x10001AF9C, symSize: 0x60 }
  - { offsetInCU: 0x6CD4A, offset: 0x6CD4A, size: 0x8, addend: 0x0, symName: __ZNSt3__112basic_stringIcNS_11char_traitsIcEENS_9allocatorIcEEEC1B7v160006Ev, symObjAddr: 0x192E4, symBinAddr: 0x10001AFFC, symSize: 0x2C }
  - { offsetInCU: 0x6CD74, offset: 0x6CD74, size: 0x8, addend: 0x0, symName: __ZNSt3__112basic_stringIcNS_11char_traitsIcEENS_9allocatorIcEEEC2B7v160006Ev, symObjAddr: 0x19310, symBinAddr: 0x10001B028, symSize: 0x4C }
  - { offsetInCU: 0x6CD9E, offset: 0x6CD9E, size: 0x8, addend: 0x0, symName: __ZNSt3__112basic_stringIcNS_11char_traitsIcEENS_9allocatorIcEEE6insertB7v160006EmRKS5_, symObjAddr: 0x1935C, symBinAddr: 0x10001B074, symSize: 0x5C }
  - { offsetInCU: 0x6CDE2, offset: 0x6CDE2, size: 0x8, addend: 0x0, symName: __ZNKSt3__112basic_stringIcNS_11char_traitsIcEENS_9allocatorIcEEE4sizeB7v160006Ev, symObjAddr: 0x193B8, symBinAddr: 0x10001B0D0, symSize: 0x54 }
  - { offsetInCU: 0x6CE08, offset: 0x6CE08, size: 0x8, addend: 0x0, symName: __ZNKSt3__112basic_stringIcNS_11char_traitsIcEENS_9allocatorIcEEE15__get_long_sizeB7v160006Ev, symObjAddr: 0x1940C, symBinAddr: 0x10001B124, symSize: 0x28 }
  - { offsetInCU: 0x6CE2E, offset: 0x6CE2E, size: 0x8, addend: 0x0, symName: __ZNKSt3__112basic_stringIcNS_11char_traitsIcEENS_9allocatorIcEEE16__get_short_sizeB7v160006Ev, symObjAddr: 0x19434, symBinAddr: 0x10001B14C, symSize: 0x34 }
  - { offsetInCU: 0x49, offset: 0x6F73E, size: 0x8, addend: 0x0, symName: __ZN4ROOT8InternalL13gVersionCheckE, symObjAddr: 0x5D580, symBinAddr: 0x10002A154, symSize: 0x0 }
  - { offsetInCU: 0x8A, offset: 0x6F77F, size: 0x8, addend: 0x0, symName: __ZNSt3__1L19piecewise_constructE, symObjAddr: 0xB1DC, symBinAddr: 0x1000226DA, symSize: 0x0 }
  - { offsetInCU: 0x22F2, offset: 0x719E7, size: 0x8, addend: 0x0, symName: '__ZNSt3__110__function10__not_nullB7v160006IZN3SNN15Neuron_firetimeEifE3$_0EEbRKT_', symObjAddr: 0x8468, symBinAddr: 0x10001F4A0, symSize: 0x18 }
  - { offsetInCU: 0x3D3A, offset: 0x7342F, size: 0x8, addend: 0x0, symName: __ZNSt3__125__throw_bad_function_callB7v160006Ev, symObjAddr: 0x4E58, symBinAddr: 0x10001EFC4, symSize: 0x38 }
  - { offsetInCU: 0x3EF9, offset: 0x735EE, size: 0x8, addend: 0x0, symName: '__ZNSt3__116forward_as_tupleB7v160006IJZN3SNN15Neuron_firetimeEifE3$_0EEENS_5tupleIJDpOT_EEES6_', symObjAddr: 0x89F8, symBinAddr: 0x10001FA30, symSize: 0x2C }
  - { offsetInCU: 0x3F32, offset: 0x73627, size: 0x8, addend: 0x0, symName: '__ZNSt3__116forward_as_tupleB7v160006IJNS_9allocatorIZN3SNN15Neuron_firetimeEifE3$_0EEEEENS_5tupleIJDpOT_EEES8_', symObjAddr: 0x8A24, symBinAddr: 0x10001FA5C, symSize: 0x2C }
  - { offsetInCU: 0x3FB1, offset: 0x736A6, size: 0x8, addend: 0x0, symName: '__ZNSt3__13getB7v160006ILm0EJOZN3SNN15Neuron_firetimeEifE3$_0EEERNS_13tuple_elementIXT_ENS_5tupleIJDpT0_EEEE4typeERS8_', symObjAddr: 0x8D3C, symBinAddr: 0x10001FD74, symSize: 0x24 }
  - { offsetInCU: 0x3FF3, offset: 0x736E8, size: 0x8, addend: 0x0, symName: '__ZNSt3__13getB7v160006ILm0EJONS_9allocatorIZN3SNN15Neuron_firetimeEifE3$_0EEEEERNS_13tuple_elementIXT_ENS_5tupleIJDpT0_EEEE4typeERSA_', symObjAddr: 0x8D78, symBinAddr: 0x10001FDB0, symSize: 0x24 }
  - { offsetInCU: 0x453E, offset: 0x73C33, size: 0x8, addend: 0x0, symName: '__ZNSt3__116forward_as_tupleB7v160006IJRKZN3SNN15Neuron_firetimeEifE3$_0EEENS_5tupleIJDpOT_EEES8_', symObjAddr: 0x930C, symBinAddr: 0x100020344, symSize: 0x2C }
  - { offsetInCU: 0x458C, offset: 0x73C81, size: 0x8, addend: 0x0, symName: '__ZNSt3__13getB7v160006ILm0EJRKZN3SNN15Neuron_firetimeEifE3$_0EEERNS_13tuple_elementIXT_ENS_5tupleIJDpT0_EEEE4typeERS9_', symObjAddr: 0x94FC, symBinAddr: 0x100020534, symSize: 0x24 }
  - { offsetInCU: 0x45CE, offset: 0x73CC3, size: 0x8, addend: 0x0, symName: '__ZNSt3__116forward_as_tupleB7v160006IJRKNS_9allocatorIZN3SNN15Neuron_firetimeEifE3$_0EEEEENS_5tupleIJDpOT_EEESA_', symObjAddr: 0x9858, symBinAddr: 0x100020890, symSize: 0x2C }
  - { offsetInCU: 0x461C, offset: 0x73D11, size: 0x8, addend: 0x0, symName: '__ZNSt3__13getB7v160006ILm0EJRKNS_9allocatorIZN3SNN15Neuron_firetimeEifE3$_0EEEEERNS_13tuple_elementIXT_ENS_5tupleIJDpT0_EEEE4typeERSB_', symObjAddr: 0x9A3C, symBinAddr: 0x100020A74, symSize: 0x24 }
  - { offsetInCU: 0x46B8, offset: 0x73DAD, size: 0x8, addend: 0x0, symName: '__ZNSt3__18__invokeB7v160006IRZN3SNN15Neuron_firetimeEifE3$_0JifbEEEDTclclsr3stdE7declvalIT_EEspclsr3stdE7declvalIT0_EEEEOS4_DpOS5_', symObjAddr: 0x9B28, symBinAddr: 0x100020B60, symSize: 0x4C }
  - { offsetInCU: 0x4731, offset: 0x73E26, size: 0x8, addend: 0x0, symName: __ZNSt3__1miB7v160006IPKfPfEEDTmicldtfp_4baseEcldtfp0_4baseEERKNS_11__wrap_iterIT_EERKNS5_IT0_EE, symObjAddr: 0x9E6C, symBinAddr: 0x100020E10, symSize: 0x48 }
  - { offsetInCU: 0x477D, offset: 0x73E72, size: 0x8, addend: 0x0, symName: __ZNSt3__1neB7v160006IPKfEEbRKNS_11__wrap_iterIT_EES7_, symObjAddr: 0x9EB4, symBinAddr: 0x100020E58, symSize: 0x34 }
  - { offsetInCU: 0x47C0, offset: 0x73EB5, size: 0x8, addend: 0x0, symName: __ZNSt3__1eqB7v160006IPKfEEbRKNS_11__wrap_iterIT_EES7_, symObjAddr: 0x9FFC, symBinAddr: 0x100020E8C, symSize: 0x48 }
  - { offsetInCU: 0x4887, offset: 0x73F7C, size: 0x8, addend: 0x0, symName: __ZNSt3__1miB7v160006IPKiPiEEDTmicldtfp_4baseEcldtfp0_4baseEERKNS_11__wrap_iterIT_EERKNS5_IT0_EE, symObjAddr: 0xA590, symBinAddr: 0x100020ED4, symSize: 0x48 }
  - { offsetInCU: 0x48D3, offset: 0x73FC8, size: 0x8, addend: 0x0, symName: __ZNSt3__1neB7v160006IPKiEEbRKNS_11__wrap_iterIT_EES7_, symObjAddr: 0xA5D8, symBinAddr: 0x100020F1C, symSize: 0x34 }
  - { offsetInCU: 0x4916, offset: 0x7400B, size: 0x8, addend: 0x0, symName: __ZNSt3__14moveB7v160006IPiS1_EET0_T_S3_S2_, symObjAddr: 0xA66C, symBinAddr: 0x100020FB0, symSize: 0x40 }
  - { offsetInCU: 0x4970, offset: 0x74065, size: 0x8, addend: 0x0, symName: __ZNSt3__1miB7v160006IPKiS2_EEDTmicldtfp_4baseEcldtfp0_4baseEERKNS_11__wrap_iterIT_EERKNS4_IT0_EE, symObjAddr: 0xA6AC, symBinAddr: 0x100020FF0, symSize: 0x48 }
  - { offsetInCU: 0x49BC, offset: 0x740B1, size: 0x8, addend: 0x0, symName: __ZNSt3__1eqB7v160006IPKiEEbRKNS_11__wrap_iterIT_EES7_, symObjAddr: 0xA720, symBinAddr: 0x100021064, symSize: 0x48 }
  - { offsetInCU: 0x49FF, offset: 0x740F4, size: 0x8, addend: 0x0, symName: __ZNSt3__16__moveB7v160006INS_17_ClassicAlgPolicyEPiS2_S2_EENS_4pairIT0_T2_EES4_T1_S5_, symObjAddr: 0xA768, symBinAddr: 0x1000210AC, symSize: 0x44 }
  - { offsetInCU: 0x4A6B, offset: 0x74160, size: 0x8, addend: 0x0, symName: __ZNSt3__123__dispatch_copy_or_moveB7v160006INS_17_ClassicAlgPolicyENS_11__move_loopIS1_EENS_14__move_trivialEPiS5_S5_EENS_4pairIT2_T4_EES7_T3_S8_, symObjAddr: 0xA7AC, symBinAddr: 0x1000210F0, symSize: 0x44 }
  - { offsetInCU: 0x4AE9, offset: 0x741DE, size: 0x8, addend: 0x0, symName: __ZNSt3__121__unwrap_and_dispatchB7v160006INS_10__overloadINS_11__move_loopINS_17_ClassicAlgPolicyEEENS_14__move_trivialEEEPiS7_S7_Li0EEENS_4pairIT0_T2_EES9_T1_SA_, symObjAddr: 0xA7F0, symBinAddr: 0x100021134, symSize: 0xB4 }
  - { offsetInCU: 0x4B78, offset: 0x7426D, size: 0x8, addend: 0x0, symName: __ZNSt3__114__unwrap_rangeB7v160006IPiS1_EENS_4pairIT0_S3_EET_S5_, symObjAddr: 0xA8A4, symBinAddr: 0x1000211E8, symSize: 0x60 }
  - { offsetInCU: 0x4CC7, offset: 0x743BC, size: 0x8, addend: 0x0, symName: __ZNSt3__113__unwrap_iterB7v160006IPiNS_18__unwrap_iter_implIS1_Lb1EEELi0EEEDTclsrT0_8__unwrapclsr3stdE7declvalIT_EEEES5_, symObjAddr: 0xA94C, symBinAddr: 0x100021290, symSize: 0x24 }
  - { offsetInCU: 0x4D0B, offset: 0x74400, size: 0x8, addend: 0x0, symName: __ZNSt3__19make_pairB7v160006IPiS1_EENS_4pairINS_18__unwrap_ref_decayIT_E4typeENS3_IT0_E4typeEEEOS4_OS7_, symObjAddr: 0xA970, symBinAddr: 0x1000212B4, symSize: 0x38 }
  - { offsetInCU: 0x4D5B, offset: 0x74450, size: 0x8, addend: 0x0, symName: __ZNSt3__114__rewrap_rangeB7v160006IPiS1_EET_S2_T0_, symObjAddr: 0xA9A8, symBinAddr: 0x1000212EC, symSize: 0x2C }
  - { offsetInCU: 0x4DA7, offset: 0x7449C, size: 0x8, addend: 0x0, symName: __ZNSt3__113__rewrap_iterB7v160006IPiS1_NS_18__unwrap_iter_implIS1_Lb1EEEEET_S4_T0_, symObjAddr: 0xA9D4, symBinAddr: 0x100021318, symSize: 0x3C }
  - { offsetInCU: 0x4DFC, offset: 0x744F1, size: 0x8, addend: 0x0, symName: __ZNSt3__119__copy_trivial_implB7v160006IiiEENS_4pairIPT_PT0_EES3_S3_S5_, symObjAddr: 0xAA10, symBinAddr: 0x100021354, symSize: 0x84 }
  - { offsetInCU: 0x4E63, offset: 0x74558, size: 0x8, addend: 0x0, symName: __ZNSt3__19make_pairB7v160006IRPiS1_EENS_4pairINS_18__unwrap_ref_decayIT_E4typeENS4_IT0_E4typeEEEOS5_OS8_, symObjAddr: 0xAA94, symBinAddr: 0x1000213D8, symSize: 0x38 }
  - { offsetInCU: 0x5889, offset: 0x74F7E, size: 0x8, addend: 0x0, symName: __ZN3SNN15Neuron_firetimeEif, symObjAddr: 0x221C, symBinAddr: 0x10001D3A4, symSize: 0x4C8 }
  - { offsetInCU: 0x78DE, offset: 0x76FD3, size: 0x8, addend: 0x0, symName: __ZN3SNNC2Eiiffffffffffffffffffiff, symObjAddr: 0x0, symBinAddr: 0x10001B408, symSize: 0xC6C }
  - { offsetInCU: 0x7A77, offset: 0x7716C, size: 0x8, addend: 0x0, symName: __Z3logB7v160006f, symObjAddr: 0xC6C, symBinAddr: 0x10001C074, symSize: 0x24 }
  - { offsetInCU: 0x7AA6, offset: 0x7719B, size: 0x8, addend: 0x0, symName: __ZN3SNN12Init_neuronsEv, symObjAddr: 0xDD8, symBinAddr: 0x10001C098, symSize: 0x18C }
  - { offsetInCU: 0x7AEA, offset: 0x771DF, size: 0x8, addend: 0x0, symName: __ZN3SNN19Init_connection_mapEv, symObjAddr: 0xF64, symBinAddr: 0x10001C224, symSize: 0x3C0 }
  - { offsetInCU: 0x7BFB, offset: 0x772F0, size: 0x8, addend: 0x0, symName: __ZN3SNN12Init_weightsEv, symObjAddr: 0x1324, symBinAddr: 0x10001C5E4, symSize: 0x268 }
  - { offsetInCU: 0x7C98, offset: 0x7738D, size: 0x8, addend: 0x0, symName: __ZN3SNNC1Eiiffffffffffffffffffiff, symObjAddr: 0x158C, symBinAddr: 0x10001C84C, symSize: 0x150 }
  - { offsetInCU: 0x7E0E, offset: 0x77503, size: 0x8, addend: 0x0, symName: __ZN3SNND2Ev, symObjAddr: 0x16DC, symBinAddr: 0x10001C99C, symSize: 0x14 }
  - { offsetInCU: 0x7E3A, offset: 0x7752F, size: 0x8, addend: 0x0, symName: __ZN3SNND1Ev, symObjAddr: 0x16F0, symBinAddr: 0x10001C9B0, symSize: 0x2C }
  - { offsetInCU: 0x7E66, offset: 0x7755B, size: 0x8, addend: 0x0, symName: __ZN3SNN11Init_delaysEv, symObjAddr: 0x171C, symBinAddr: 0x10001C9DC, symSize: 0x10 }
  - { offsetInCU: 0x7E8E, offset: 0x77583, size: 0x8, addend: 0x0, symName: __ZN3SNN13Reset_weightsEv, symObjAddr: 0x172C, symBinAddr: 0x10001C9EC, symSize: 0x10 }
  - { offsetInCU: 0x7EB6, offset: 0x775AB, size: 0x8, addend: 0x0, symName: __ZN3SNN15bisectionMethodEffifNSt3__18functionIFfifbEEE, symObjAddr: 0x173C, symBinAddr: 0x10001C9FC, symSize: 0x2B4 }
  - { offsetInCU: 0x7F95, offset: 0x7768A, size: 0x8, addend: 0x0, symName: __ZNKSt3__18functionIFfifbEEclEifb, symObjAddr: 0x19F0, symBinAddr: 0x10001CCB0, symSize: 0x48 }
  - { offsetInCU: 0x7FEA, offset: 0x776DF, size: 0x8, addend: 0x0, symName: __Z3absB7v160006f, symObjAddr: 0x1A38, symBinAddr: 0x10001CCF8, symSize: 0x18 }
  - { offsetInCU: 0x8016, offset: 0x7770B, size: 0x8, addend: 0x0, symName: __ZNSt3__16vectorIfNS_9allocatorIfEEE9push_backB7v160006EOf, symObjAddr: 0x1AF8, symBinAddr: 0x10001CD10, symSize: 0x6C }
  - { offsetInCU: 0x804D, offset: 0x77742, size: 0x8, addend: 0x0, symName: __ZN3SNN11Set_weightsEv, symObjAddr: 0x1BD0, symBinAddr: 0x10001CD7C, symSize: 0x23C }
  - { offsetInCU: 0x80E5, offset: 0x777DA, size: 0x8, addend: 0x0, symName: __ZN3SNN12PrintWeightsEv, symObjAddr: 0x1E0C, symBinAddr: 0x10001CFB8, symSize: 0x134 }
  - { offsetInCU: 0x8148, offset: 0x7783D, size: 0x8, addend: 0x0, symName: __ZN3SNN13EPS_potentialEf, symObjAddr: 0x1F40, symBinAddr: 0x10001D0EC, symSize: 0xC0 }
  - { offsetInCU: 0x818F, offset: 0x77884, size: 0x8, addend: 0x0, symName: __ZN3SNN15Spike_potentialEfi, symObjAddr: 0x2024, symBinAddr: 0x10001D1AC, symSize: 0x10C }
  - { offsetInCU: 0x81E5, offset: 0x778DA, size: 0x8, addend: 0x0, symName: __ZN3SNN20Inhibitory_potentialEfi, symObjAddr: 0x2130, symBinAddr: 0x10001D2B8, symSize: 0xEC }
  - { offsetInCU: 0x824A, offset: 0x7793F, size: 0x8, addend: 0x0, symName: __ZN3SNN16Neuron_PotentialEifb, symObjAddr: 0x2754, symBinAddr: 0x10001D86C, symSize: 0xC40 }
  - { offsetInCU: 0x8353, offset: 0x77A48, size: 0x8, addend: 0x0, symName: '__ZNSt3__18functionIFfifbEEC1IZN3SNN15Neuron_firetimeEifE3$_0vEET_', symObjAddr: 0x3394, symBinAddr: 0x10001E4AC, symSize: 0x34 }
  - { offsetInCU: 0x8398, offset: 0x77A8D, size: 0x8, addend: 0x0, symName: __ZNSt3__18functionIFfifbEED1Ev, symObjAddr: 0x33C8, symBinAddr: 0x10001E4E0, symSize: 0x2C }
  - { offsetInCU: 0x83C4, offset: 0x77AB9, size: 0x8, addend: 0x0, symName: __ZNSt3__16vectorIfNS_9allocatorIfEEE5eraseENS_11__wrap_iterIPKfEES7_, symObjAddr: 0x341C, symBinAddr: 0x10001E50C, symSize: 0xE0 }
  - { offsetInCU: 0x8419, offset: 0x77B0E, size: 0x8, addend: 0x0, symName: __ZNKSt3__111__wrap_iterIPfEplB7v160006El, symObjAddr: 0x352C, symBinAddr: 0x10001E5EC, symSize: 0x3C }
  - { offsetInCU: 0x8466, offset: 0x77B5B, size: 0x8, addend: 0x0, symName: __ZNSt3__16vectorIiNS_9allocatorIiEEE5eraseENS_11__wrap_iterIPKiEES7_, symObjAddr: 0x35A4, symBinAddr: 0x10001E628, symSize: 0xE0 }
  - { offsetInCU: 0x84C1, offset: 0x77BB6, size: 0x8, addend: 0x0, symName: __ZNSt3__111__wrap_iterIPKiEC1B7v160006IPiEERKNS0_IT_EEPNS_9enable_ifIXsr14is_convertibleIS6_S2_EE5valueEvE4typeE, symObjAddr: 0x36F0, symBinAddr: 0x10001E708, symSize: 0x3C }
  - { offsetInCU: 0x850D, offset: 0x77C02, size: 0x8, addend: 0x0, symName: __ZN3SNN12IE_potentialEfii, symObjAddr: 0x372C, symBinAddr: 0x10001E744, symSize: 0x158 }
  - { offsetInCU: 0x8572, offset: 0x77C67, size: 0x8, addend: 0x0, symName: __ZN3SNN3LTPEiifbRS_, symObjAddr: 0x3884, symBinAddr: 0x10001E89C, symSize: 0x314 }
  - { offsetInCU: 0x865B, offset: 0x77D50, size: 0x8, addend: 0x0, symName: __ZN3SNN6RenormEifRS_, symObjAddr: 0x3B98, symBinAddr: 0x10001EBB0, symSize: 0xF0 }
  - { offsetInCU: 0x86DD, offset: 0x77DD2, size: 0x8, addend: 0x0, symName: __ZN3SNN3LTDEiifbRS_, symObjAddr: 0x3C88, symBinAddr: 0x10001ECA0, symSize: 0x238 }
  - { offsetInCU: 0x8760, offset: 0x77E55, size: 0x8, addend: 0x0, symName: __ZNSt3__16vectorIfNS_9allocatorIfEEE4backB7v160006Ev, symObjAddr: 0x3EC0, symBinAddr: 0x10001EED8, symSize: 0x1C }
  - { offsetInCU: 0x8786, offset: 0x77E7B, size: 0x8, addend: 0x0, symName: __ZNSt3__111__wrap_iterIPfEpLB7v160006El, symObjAddr: 0x3EDC, symBinAddr: 0x10001EEF4, symSize: 0x28 }
  - { offsetInCU: 0x87BA, offset: 0x77EAF, size: 0x8, addend: 0x0, symName: __ZNSt3__111__wrap_iterIPKiEC2B7v160006IPiEERKNS0_IT_EEPNS_9enable_ifIXsr14is_convertibleIS6_S2_EE5valueEvE4typeE, symObjAddr: 0x3F84, symBinAddr: 0x10001EF1C, symSize: 0x40 }
  - { offsetInCU: 0x880C, offset: 0x77F01, size: 0x8, addend: 0x0, symName: __ZNKSt3__110__function12__value_funcIFfifbEEclB7v160006EOiOfOb, symObjAddr: 0x4DF0, symBinAddr: 0x10001EF5C, symSize: 0x68 }
  - { offsetInCU: 0x8864, offset: 0x77F59, size: 0x8, addend: 0x0, symName: __ZNSt3__117bad_function_callC1Ev, symObjAddr: 0x4E90, symBinAddr: 0x10001EFFC, symSize: 0x2C }
  - { offsetInCU: 0x8890, offset: 0x77F85, size: 0x8, addend: 0x0, symName: __ZNSt3__117bad_function_callD1Ev, symObjAddr: 0x4EBC, symBinAddr: 0x10001F028, symSize: 0x2C }
  - { offsetInCU: 0x88BA, offset: 0x77FAF, size: 0x8, addend: 0x0, symName: __ZNSt3__117bad_function_callC2Ev, symObjAddr: 0x4EE8, symBinAddr: 0x10001F054, symSize: 0x44 }
  - { offsetInCU: 0x88E6, offset: 0x77FDB, size: 0x8, addend: 0x0, symName: __ZNSt9exceptionC2B7v160006Ev, symObjAddr: 0x4F2C, symBinAddr: 0x10001F098, symSize: 0x24 }
  - { offsetInCU: 0x8910, offset: 0x78005, size: 0x8, addend: 0x0, symName: __ZNSt3__117bad_function_callD0Ev, symObjAddr: 0x4F50, symBinAddr: 0x10001F0BC, symSize: 0x30 }
  - { offsetInCU: 0x893A, offset: 0x7802F, size: 0x8, addend: 0x0, symName: __ZNSt3__117bad_function_callD2Ev, symObjAddr: 0x4F80, symBinAddr: 0x10001F0EC, symSize: 0x2C }
  - { offsetInCU: 0x8964, offset: 0x78059, size: 0x8, addend: 0x0, symName: __ZNSt3__16vectorIfNS_9allocatorIfEEE22__construct_one_at_endB7v160006IJfEEEvDpOT_, symObjAddr: 0x55FC, symBinAddr: 0x10001F118, symSize: 0x90 }
  - { offsetInCU: 0x89B3, offset: 0x780A8, size: 0x8, addend: 0x0, symName: __ZNSt3__16vectorIfNS_9allocatorIfEEE21__push_back_slow_pathIfEEvOT_, symObjAddr: 0x568C, symBinAddr: 0x10001F1A8, symSize: 0xD8 }
  - { offsetInCU: 0x8A2E, offset: 0x78123, size: 0x8, addend: 0x0, symName: __ZNSt3__116allocator_traitsINS_9allocatorIfEEE9constructB7v160006IfJfEvEEvRS2_PT_DpOT0_, symObjAddr: 0x57D8, symBinAddr: 0x10001F280, symSize: 0x34 }
  - { offsetInCU: 0x8A85, offset: 0x7817A, size: 0x8, addend: 0x0, symName: __ZNSt3__19allocatorIfE9constructB7v160006IfJfEEEvPT_DpOT0_, symObjAddr: 0x587C, symBinAddr: 0x10001F2B4, symSize: 0x28 }
  - { offsetInCU: 0x8B04, offset: 0x781F9, size: 0x8, addend: 0x0, symName: '__ZNSt3__18functionIFfifbEEC2IZN3SNN15Neuron_firetimeEifE3$_0vEET_', symObjAddr: 0x82A4, symBinAddr: 0x10001F2DC, symSize: 0x38 }
  - { offsetInCU: 0x8B49, offset: 0x7823E, size: 0x8, addend: 0x0, symName: '__ZNSt3__110__function12__value_funcIFfifbEEC1B7v160006IZN3SNN15Neuron_firetimeEifE3$_0vEEOT_', symObjAddr: 0x82DC, symBinAddr: 0x10001F314, symSize: 0x50 }
  - { offsetInCU: 0x8B8C, offset: 0x78281, size: 0x8, addend: 0x0, symName: '__ZNSt3__19allocatorIZN3SNN15Neuron_firetimeEifE3$_0EC1B7v160006Ev', symObjAddr: 0x832C, symBinAddr: 0x10001F364, symSize: 0x2C }
  - { offsetInCU: 0x8BB6, offset: 0x782AB, size: 0x8, addend: 0x0, symName: '__ZNSt3__110__function12__value_funcIFfifbEEC1B7v160006IZN3SNN15Neuron_firetimeEifE3$_0NS_9allocatorIS6_EEEEOT_RKT0_', symObjAddr: 0x8358, symBinAddr: 0x10001F390, symSize: 0x3C }
  - { offsetInCU: 0x8C10, offset: 0x78305, size: 0x8, addend: 0x0, symName: '__ZNSt3__19allocatorIZN3SNN15Neuron_firetimeEifE3$_0EC2B7v160006Ev', symObjAddr: 0x8394, symBinAddr: 0x10001F3CC, symSize: 0x2C }
  - { offsetInCU: 0x8C3A, offset: 0x7832F, size: 0x8, addend: 0x0, symName: '__ZNSt3__116__non_trivial_ifILb1ENS_9allocatorIZN3SNN15Neuron_firetimeEifE3$_0EEEC2B7v160006Ev', symObjAddr: 0x83C0, symBinAddr: 0x10001F3F8, symSize: 0x14 }
  - { offsetInCU: 0x8C64, offset: 0x78359, size: 0x8, addend: 0x0, symName: '__ZNSt3__110__function12__value_funcIFfifbEEC2B7v160006IZN3SNN15Neuron_firetimeEifE3$_0NS_9allocatorIS6_EEEEOT_RKT0_', symObjAddr: 0x83D4, symBinAddr: 0x10001F40C, symSize: 0x94 }
  - { offsetInCU: 0x8D0D, offset: 0x78402, size: 0x8, addend: 0x0, symName: '__ZNSt3__19allocatorINS_10__function6__funcIZN3SNN15Neuron_firetimeEifE3$_0NS0_IS4_EEFfifbEEEEC1B7v160006IS4_EERKNS0_IT_EE', symObjAddr: 0x8480, symBinAddr: 0x10001F4B8, symSize: 0x34 }
  - { offsetInCU: 0x8D51, offset: 0x78446, size: 0x8, addend: 0x0, symName: '__ZNSt3__19allocatorIZN3SNN15Neuron_firetimeEifE3$_0EC1B7v160006INS_10__function6__funcIS2_S3_FfifbEEEEERKNS0_IT_EE', symObjAddr: 0x84B4, symBinAddr: 0x10001F4EC, symSize: 0x34 }
  - { offsetInCU: 0x8D8F, offset: 0x78484, size: 0x8, addend: 0x0, symName: '__ZNSt3__110__function6__funcIZN3SNN15Neuron_firetimeEifE3$_0NS_9allocatorIS3_EEFfifbEEC1B7v160006EOS3_OS5_', symObjAddr: 0x84E8, symBinAddr: 0x10001F520, symSize: 0x3C }
  - { offsetInCU: 0x8DD7, offset: 0x784CC, size: 0x8, addend: 0x0, symName: '__ZNSt3__19allocatorINS_10__function6__funcIZN3SNN15Neuron_firetimeEifE3$_0NS0_IS4_EEFfifbEEEEC2B7v160006IS4_EERKNS0_IT_EE', symObjAddr: 0x8524, symBinAddr: 0x10001F55C, symSize: 0x30 }
  - { offsetInCU: 0x8E15, offset: 0x7850A, size: 0x8, addend: 0x0, symName: '__ZNSt3__116__non_trivial_ifILb1ENS_9allocatorINS_10__function6__funcIZN3SNN15Neuron_firetimeEifE3$_0NS1_IS5_EEFfifbEEEEEEC2B7v160006Ev', symObjAddr: 0x8554, symBinAddr: 0x10001F58C, symSize: 0x14 }
  - { offsetInCU: 0x8E3F, offset: 0x78534, size: 0x8, addend: 0x0, symName: '__ZNSt3__19allocatorIZN3SNN15Neuron_firetimeEifE3$_0EC2B7v160006INS_10__function6__funcIS2_S3_FfifbEEEEERKNS0_IT_EE', symObjAddr: 0x8568, symBinAddr: 0x10001F5A0, symSize: 0x30 }
  - { offsetInCU: 0x8E7D, offset: 0x78572, size: 0x8, addend: 0x0, symName: '__ZNSt3__110__function6__funcIZN3SNN15Neuron_firetimeEifE3$_0NS_9allocatorIS3_EEFfifbEEC2B7v160006EOS3_OS5_', symObjAddr: 0x8598, symBinAddr: 0x10001F5D0, symSize: 0x88 }
  - { offsetInCU: 0x8EC5, offset: 0x785BA, size: 0x8, addend: 0x0, symName: __ZNSt3__110__function6__baseIFfifbEEC2B7v160006Ev, symObjAddr: 0x8620, symBinAddr: 0x10001F658, symSize: 0x24 }
  - { offsetInCU: 0x8EEF, offset: 0x785E4, size: 0x8, addend: 0x0, symName: '__ZNSt3__110__function12__alloc_funcIZN3SNN15Neuron_firetimeEifE3$_0NS_9allocatorIS3_EEFfifbEEC1B7v160006EOS3_OS5_', symObjAddr: 0x8644, symBinAddr: 0x10001F67C, symSize: 0x3C }
  - { offsetInCU: 0x8F35, offset: 0x7862A, size: 0x8, addend: 0x0, symName: __ZNSt3__110__function6__baseIFfifbEED2Ev, symObjAddr: 0x8680, symBinAddr: 0x10001F6B8, symSize: 0x14 }
  - { offsetInCU: 0x8F5F, offset: 0x78654, size: 0x8, addend: 0x0, symName: '__ZNSt3__110__function6__funcIZN3SNN15Neuron_firetimeEifE3$_0NS_9allocatorIS3_EEFfifbEED1Ev', symObjAddr: 0x8694, symBinAddr: 0x10001F6CC, symSize: 0x2C }
  - { offsetInCU: 0x8F8C, offset: 0x78681, size: 0x8, addend: 0x0, symName: '__ZNSt3__110__function6__funcIZN3SNN15Neuron_firetimeEifE3$_0NS_9allocatorIS3_EEFfifbEED0Ev', symObjAddr: 0x86C0, symBinAddr: 0x10001F6F8, symSize: 0x30 }
  - { offsetInCU: 0x8FB9, offset: 0x786AE, size: 0x8, addend: 0x0, symName: '__ZNKSt3__110__function6__funcIZN3SNN15Neuron_firetimeEifE3$_0NS_9allocatorIS3_EEFfifbEE7__cloneEv', symObjAddr: 0x86F0, symBinAddr: 0x10001F728, symSize: 0xFC }
  - { offsetInCU: 0x900B, offset: 0x78700, size: 0x8, addend: 0x0, symName: '__ZNKSt3__110__function6__funcIZN3SNN15Neuron_firetimeEifE3$_0NS_9allocatorIS3_EEFfifbEE7__cloneEPNS0_6__baseIS6_EE', symObjAddr: 0x87EC, symBinAddr: 0x10001F824, symSize: 0x58 }
  - { offsetInCU: 0x9042, offset: 0x78737, size: 0x8, addend: 0x0, symName: '__ZNSt3__110__function6__funcIZN3SNN15Neuron_firetimeEifE3$_0NS_9allocatorIS3_EEFfifbEE7destroyEv', symObjAddr: 0x8844, symBinAddr: 0x10001F87C, symSize: 0x28 }
  - { offsetInCU: 0x906A, offset: 0x7875F, size: 0x8, addend: 0x0, symName: '__ZNSt3__110__function6__funcIZN3SNN15Neuron_firetimeEifE3$_0NS_9allocatorIS3_EEFfifbEE18destroy_deallocateEv', symObjAddr: 0x886C, symBinAddr: 0x10001F8A4, symSize: 0x58 }
  - { offsetInCU: 0x90AD, offset: 0x787A2, size: 0x8, addend: 0x0, symName: '__ZNSt3__110__function6__funcIZN3SNN15Neuron_firetimeEifE3$_0NS_9allocatorIS3_EEFfifbEEclEOiOfOb', symObjAddr: 0x88C4, symBinAddr: 0x10001F8FC, symSize: 0x40 }
  - { offsetInCU: 0x9102, offset: 0x787F7, size: 0x8, addend: 0x0, symName: '__ZNKSt3__110__function6__funcIZN3SNN15Neuron_firetimeEifE3$_0NS_9allocatorIS3_EEFfifbEE6targetERKSt9type_info', symObjAddr: 0x8904, symBinAddr: 0x10001F93C, symSize: 0x60 }
  - { offsetInCU: 0x9139, offset: 0x7882E, size: 0x8, addend: 0x0, symName: '__ZNKSt3__110__function6__funcIZN3SNN15Neuron_firetimeEifE3$_0NS_9allocatorIS3_EEFfifbEE11target_typeEv', symObjAddr: 0x8964, symBinAddr: 0x10001F99C, symSize: 0x18 }
  - { offsetInCU: 0x9161, offset: 0x78856, size: 0x8, addend: 0x0, symName: __ZNSt3__110__function6__baseIFfifbEED1Ev, symObjAddr: 0x897C, symBinAddr: 0x10001F9B4, symSize: 0x14 }
  - { offsetInCU: 0x918B, offset: 0x78880, size: 0x8, addend: 0x0, symName: __ZNSt3__110__function6__baseIFfifbEED0Ev, symObjAddr: 0x8990, symBinAddr: 0x10001F9C8, symSize: 0xC }
  - { offsetInCU: 0x91B5, offset: 0x788AA, size: 0x8, addend: 0x0, symName: '__ZNSt3__110__function12__alloc_funcIZN3SNN15Neuron_firetimeEifE3$_0NS_9allocatorIS3_EEFfifbEEC2B7v160006EOS3_OS5_', symObjAddr: 0x899C, symBinAddr: 0x10001F9D4, symSize: 0x5C }
  - { offsetInCU: 0x91FB, offset: 0x788F0, size: 0x8, addend: 0x0, symName: '__ZNSt3__117__compressed_pairIZN3SNN15Neuron_firetimeEifE3$_0NS_9allocatorIS2_EEEC1B7v160006IJOS2_EJOS4_EEENS_21piecewise_construct_tENS_5tupleIJDpT_EEENSA_IJDpT0_EEE', symObjAddr: 0x8A50, symBinAddr: 0x10001FA88, symSize: 0x3C }
  - { offsetInCU: 0x9265, offset: 0x7895A, size: 0x8, addend: 0x0, symName: '__ZNSt3__15tupleIJOZN3SNN15Neuron_firetimeEifE3$_0EEC1B7v160006IJS2_ELi0EEEDpOT_', symObjAddr: 0x8A8C, symBinAddr: 0x10001FAC4, symSize: 0x34 }
  - { offsetInCU: 0x92B0, offset: 0x789A5, size: 0x8, addend: 0x0, symName: '__ZNSt3__15tupleIJOZN3SNN15Neuron_firetimeEifE3$_0EEC2B7v160006IJS2_ELi0EEEDpOT_', symObjAddr: 0x8AC0, symBinAddr: 0x10001FAF8, symSize: 0x34 }
  - { offsetInCU: 0x92FB, offset: 0x789F0, size: 0x8, addend: 0x0, symName: '__ZNSt3__112__tuple_implINS_15__tuple_indicesIJLm0EEEEJOZN3SNN15Neuron_firetimeEifE3$_0EEC1B7v160006IJLm0EEJS5_EJEJEJS4_EEENS1_IJXspT_EEEENS_13__tuple_typesIJDpT0_EEENS1_IJXspT1_EEEENS9_IJDpT2_EEEDpOT3_', symObjAddr: 0x8AF4, symBinAddr: 0x10001FB2C, symSize: 0x34 }
  - { offsetInCU: 0x938E, offset: 0x78A83, size: 0x8, addend: 0x0, symName: '__ZNSt3__112__tuple_implINS_15__tuple_indicesIJLm0EEEEJOZN3SNN15Neuron_firetimeEifE3$_0EEC2B7v160006IJLm0EEJS5_EJEJEJS4_EEENS1_IJXspT_EEEENS_13__tuple_typesIJDpT0_EEENS1_IJXspT1_EEEENS9_IJDpT2_EEEDpOT3_', symObjAddr: 0x8B28, symBinAddr: 0x10001FB60, symSize: 0x34 }
  - { offsetInCU: 0x9421, offset: 0x78B16, size: 0x8, addend: 0x0, symName: '__ZNSt3__112__tuple_leafILm0EOZN3SNN15Neuron_firetimeEifE3$_0Lb0EEC2B7v160006IS2_vEEOT_', symObjAddr: 0x8B5C, symBinAddr: 0x10001FB94, symSize: 0x20 }
  - { offsetInCU: 0x9464, offset: 0x78B59, size: 0x8, addend: 0x0, symName: '__ZNSt3__15tupleIJONS_9allocatorIZN3SNN15Neuron_firetimeEifE3$_0EEEEC1B7v160006IJS4_ELi0EEEDpOT_', symObjAddr: 0x8B7C, symBinAddr: 0x10001FBB4, symSize: 0x34 }
  - { offsetInCU: 0x94AF, offset: 0x78BA4, size: 0x8, addend: 0x0, symName: '__ZNSt3__15tupleIJONS_9allocatorIZN3SNN15Neuron_firetimeEifE3$_0EEEEC2B7v160006IJS4_ELi0EEEDpOT_', symObjAddr: 0x8BB0, symBinAddr: 0x10001FBE8, symSize: 0x34 }
  - { offsetInCU: 0x94FA, offset: 0x78BEF, size: 0x8, addend: 0x0, symName: '__ZNSt3__112__tuple_implINS_15__tuple_indicesIJLm0EEEEJONS_9allocatorIZN3SNN15Neuron_firetimeEifE3$_0EEEEC1B7v160006IJLm0EEJS7_EJEJEJS6_EEENS1_IJXspT_EEEENS_13__tuple_typesIJDpT0_EEENS1_IJXspT1_EEEENSB_IJDpT2_EEEDpOT3_', symObjAddr: 0x8BE4, symBinAddr: 0x10001FC1C, symSize: 0x34 }
  - { offsetInCU: 0x958D, offset: 0x78C82, size: 0x8, addend: 0x0, symName: '__ZNSt3__112__tuple_implINS_15__tuple_indicesIJLm0EEEEJONS_9allocatorIZN3SNN15Neuron_firetimeEifE3$_0EEEEC2B7v160006IJLm0EEJS7_EJEJEJS6_EEENS1_IJXspT_EEEENS_13__tuple_typesIJDpT0_EEENS1_IJXspT1_EEEENSB_IJDpT2_EEEDpOT3_', symObjAddr: 0x8C18, symBinAddr: 0x10001FC50, symSize: 0x34 }
  - { offsetInCU: 0x9620, offset: 0x78D15, size: 0x8, addend: 0x0, symName: '__ZNSt3__112__tuple_leafILm0EONS_9allocatorIZN3SNN15Neuron_firetimeEifE3$_0EELb0EEC2B7v160006IS4_vEEOT_', symObjAddr: 0x8C4C, symBinAddr: 0x10001FC84, symSize: 0x20 }
  - { offsetInCU: 0x9663, offset: 0x78D58, size: 0x8, addend: 0x0, symName: '__ZNSt3__117__compressed_pairIZN3SNN15Neuron_firetimeEifE3$_0NS_9allocatorIS2_EEEC2B7v160006IJOS2_EJOS4_EEENS_21piecewise_construct_tENS_5tupleIJDpT_EEENSA_IJDpT0_EEE', symObjAddr: 0x8C6C, symBinAddr: 0x10001FCA4, symSize: 0x54 }
  - { offsetInCU: 0x96CD, offset: 0x78DC2, size: 0x8, addend: 0x0, symName: '__ZNSt3__122__compressed_pair_elemIZN3SNN15Neuron_firetimeEifE3$_0Li0ELb0EEC2B7v160006IJOS2_EJLm0EEEENS_21piecewise_construct_tENS_5tupleIJDpT_EEENS_15__tuple_indicesIJXspT0_EEEE', symObjAddr: 0x8CC0, symBinAddr: 0x10001FCF8, symSize: 0x44 }
  - { offsetInCU: 0x9732, offset: 0x78E27, size: 0x8, addend: 0x0, symName: '__ZNSt3__122__compressed_pair_elemINS_9allocatorIZN3SNN15Neuron_firetimeEifE3$_0EELi1ELb1EEC2B7v160006IJOS4_EJLm0EEEENS_21piecewise_construct_tENS_5tupleIJDpT_EEENS_15__tuple_indicesIJXspT0_EEEE', symObjAddr: 0x8D04, symBinAddr: 0x10001FD3C, symSize: 0x38 }
  - { offsetInCU: 0x9797, offset: 0x78E8C, size: 0x8, addend: 0x0, symName: '__ZNSt3__112__tuple_leafILm0EOZN3SNN15Neuron_firetimeEifE3$_0Lb0EE3getB7v160006Ev', symObjAddr: 0x8D60, symBinAddr: 0x10001FD98, symSize: 0x18 }
  - { offsetInCU: 0x97BD, offset: 0x78EB2, size: 0x8, addend: 0x0, symName: '__ZNSt3__112__tuple_leafILm0EONS_9allocatorIZN3SNN15Neuron_firetimeEifE3$_0EELb0EE3getB7v160006Ev', symObjAddr: 0x8D9C, symBinAddr: 0x10001FDD4, symSize: 0x18 }
  - { offsetInCU: 0x97E3, offset: 0x78ED8, size: 0x8, addend: 0x0, symName: '__ZNSt3__110__function6__funcIZN3SNN15Neuron_firetimeEifE3$_0NS_9allocatorIS3_EEFfifbEED2Ev', symObjAddr: 0x8DB4, symBinAddr: 0x10001FDEC, symSize: 0x2C }
  - { offsetInCU: 0x9810, offset: 0x78F05, size: 0x8, addend: 0x0, symName: '__ZNKSt3__110__function12__alloc_funcIZN3SNN15Neuron_firetimeEifE3$_0NS_9allocatorIS3_EEFfifbEE15__get_allocatorB7v160006Ev', symObjAddr: 0x8DE0, symBinAddr: 0x10001FE18, symSize: 0x24 }
  - { offsetInCU: 0x9836, offset: 0x78F2B, size: 0x8, addend: 0x0, symName: '__ZNSt3__19allocatorINS_10__function6__funcIZN3SNN15Neuron_firetimeEifE3$_0NS0_IS4_EEFfifbEEEE8allocateB7v160006Em', symObjAddr: 0x8E04, symBinAddr: 0x10001FE3C, symSize: 0x58 }
  - { offsetInCU: 0x987B, offset: 0x78F70, size: 0x8, addend: 0x0, symName: '__ZNSt3__122__allocator_destructorINS_9allocatorINS_10__function6__funcIZN3SNN15Neuron_firetimeEifE3$_0NS1_IS5_EEFfifbEEEEEEC1B7v160006ERS9_m', symObjAddr: 0x8E5C, symBinAddr: 0x10001FE94, symSize: 0x3C }
  - { offsetInCU: 0x995E, offset: 0x79053, size: 0x8, addend: 0x0, symName: '__ZNSt3__110unique_ptrINS_10__function6__funcIZN3SNN15Neuron_firetimeEifE3$_0NS_9allocatorIS4_EEFfifbEEENS_22__allocator_destructorINS5_IS8_EEEEEC1B7v160006ILb1EvEEPS8_NS_16__dependent_typeINS_27__unique_ptr_deleter_sfinaeISB_EEXT_EE20__good_rval_ref_typeE', symObjAddr: 0x8E98, symBinAddr: 0x10001FED0, symSize: 0x3C }
  - { offsetInCU: 0x99AF, offset: 0x790A4, size: 0x8, addend: 0x0, symName: '__ZNKSt3__110unique_ptrINS_10__function6__funcIZN3SNN15Neuron_firetimeEifE3$_0NS_9allocatorIS4_EEFfifbEEENS_22__allocator_destructorINS5_IS8_EEEEE3getB7v160006Ev', symObjAddr: 0x8ED4, symBinAddr: 0x10001FF0C, symSize: 0x28 }
  - { offsetInCU: 0x99D5, offset: 0x790CA, size: 0x8, addend: 0x0, symName: '__ZNKSt3__110__function12__alloc_funcIZN3SNN15Neuron_firetimeEifE3$_0NS_9allocatorIS3_EEFfifbEE8__targetB7v160006Ev', symObjAddr: 0x8EFC, symBinAddr: 0x10001FF34, symSize: 0x24 }
  - { offsetInCU: 0x99FB, offset: 0x790F0, size: 0x8, addend: 0x0, symName: '__ZNSt3__110__function6__funcIZN3SNN15Neuron_firetimeEifE3$_0NS_9allocatorIS3_EEFfifbEEC1B7v160006ERKS3_OS5_', symObjAddr: 0x8F20, symBinAddr: 0x10001FF58, symSize: 0x3C }
  - { offsetInCU: 0x9A43, offset: 0x79138, size: 0x8, addend: 0x0, symName: '__ZNSt3__110unique_ptrINS_10__function6__funcIZN3SNN15Neuron_firetimeEifE3$_0NS_9allocatorIS4_EEFfifbEEENS_22__allocator_destructorINS5_IS8_EEEEE7releaseB7v160006Ev', symObjAddr: 0x8F5C, symBinAddr: 0x10001FF94, symSize: 0x44 }
  - { offsetInCU: 0x9A78, offset: 0x7916D, size: 0x8, addend: 0x0, symName: '__ZNSt3__110unique_ptrINS_10__function6__funcIZN3SNN15Neuron_firetimeEifE3$_0NS_9allocatorIS4_EEFfifbEEENS_22__allocator_destructorINS5_IS8_EEEEED1B7v160006Ev', symObjAddr: 0x8FA0, symBinAddr: 0x10001FFD8, symSize: 0x2C }
  - { offsetInCU: 0x9AA2, offset: 0x79197, size: 0x8, addend: 0x0, symName: '__ZNKSt3__117__compressed_pairIZN3SNN15Neuron_firetimeEifE3$_0NS_9allocatorIS2_EEE6secondB7v160006Ev', symObjAddr: 0x8FCC, symBinAddr: 0x100020004, symSize: 0x24 }
  - { offsetInCU: 0x9AC8, offset: 0x791BD, size: 0x8, addend: 0x0, symName: '__ZNKSt3__122__compressed_pair_elemINS_9allocatorIZN3SNN15Neuron_firetimeEifE3$_0EELi1ELb1EE5__getB7v160006Ev', symObjAddr: 0x8FF0, symBinAddr: 0x100020028, symSize: 0x14 }
  - { offsetInCU: 0x9AFA, offset: 0x791EF, size: 0x8, addend: 0x0, symName: '__ZNSt3__116allocator_traitsINS_9allocatorINS_10__function6__funcIZN3SNN15Neuron_firetimeEifE3$_0NS1_IS5_EEFfifbEEEEEE8max_sizeB7v160006IS9_vEEmRKS9_', symObjAddr: 0x9004, symBinAddr: 0x10002003C, symSize: 0x24 }
  - { offsetInCU: 0x9B28, offset: 0x7921D, size: 0x8, addend: 0x0, symName: '__ZNKSt3__19allocatorINS_10__function6__funcIZN3SNN15Neuron_firetimeEifE3$_0NS0_IS4_EEFfifbEEEE8max_sizeB7v160006Ev', symObjAddr: 0x9028, symBinAddr: 0x100020060, symSize: 0x14 }
  - { offsetInCU: 0x9B4E, offset: 0x79243, size: 0x8, addend: 0x0, symName: '__ZNSt3__122__allocator_destructorINS_9allocatorINS_10__function6__funcIZN3SNN15Neuron_firetimeEifE3$_0NS1_IS5_EEFfifbEEEEEEC2B7v160006ERS9_m', symObjAddr: 0x903C, symBinAddr: 0x100020074, symSize: 0x2C }
  - { offsetInCU: 0x9B94, offset: 0x79289, size: 0x8, addend: 0x0, symName: '__ZNSt3__110unique_ptrINS_10__function6__funcIZN3SNN15Neuron_firetimeEifE3$_0NS_9allocatorIS4_EEFfifbEEENS_22__allocator_destructorINS5_IS8_EEEEEC2B7v160006ILb1EvEEPS8_NS_16__dependent_typeINS_27__unique_ptr_deleter_sfinaeISB_EEXT_EE20__good_rval_ref_typeE', symObjAddr: 0x9068, symBinAddr: 0x1000200A0, symSize: 0x48 }
  - { offsetInCU: 0x9BE5, offset: 0x792DA, size: 0x8, addend: 0x0, symName: '__ZNSt3__117__compressed_pairIPNS_10__function6__funcIZN3SNN15Neuron_firetimeEifE3$_0NS_9allocatorIS4_EEFfifbEEENS_22__allocator_destructorINS5_IS8_EEEEEC1B7v160006IRS9_SC_EEOT_OT0_', symObjAddr: 0x90B0, symBinAddr: 0x1000200E8, symSize: 0x3C }
  - { offsetInCU: 0x9C3D, offset: 0x79332, size: 0x8, addend: 0x0, symName: '__ZNSt3__117__compressed_pairIPNS_10__function6__funcIZN3SNN15Neuron_firetimeEifE3$_0NS_9allocatorIS4_EEFfifbEEENS_22__allocator_destructorINS5_IS8_EEEEEC2B7v160006IRS9_SC_EEOT_OT0_', symObjAddr: 0x90EC, symBinAddr: 0x100020124, symSize: 0x48 }
  - { offsetInCU: 0x9C95, offset: 0x7938A, size: 0x8, addend: 0x0, symName: '__ZNSt3__122__compressed_pair_elemIPNS_10__function6__funcIZN3SNN15Neuron_firetimeEifE3$_0NS_9allocatorIS4_EEFfifbEEELi0ELb0EEC2B7v160006IRS9_vEEOT_', symObjAddr: 0x9134, symBinAddr: 0x10002016C, symSize: 0x24 }
  - { offsetInCU: 0x9CD7, offset: 0x793CC, size: 0x8, addend: 0x0, symName: '__ZNSt3__122__compressed_pair_elemINS_22__allocator_destructorINS_9allocatorINS_10__function6__funcIZN3SNN15Neuron_firetimeEifE3$_0NS2_IS6_EEFfifbEEEEEEELi1ELb0EEC2B7v160006ISB_vEEOT_', symObjAddr: 0x9158, symBinAddr: 0x100020190, symSize: 0x24 }
  - { offsetInCU: 0x9D19, offset: 0x7940E, size: 0x8, addend: 0x0, symName: '__ZNKSt3__117__compressed_pairIPNS_10__function6__funcIZN3SNN15Neuron_firetimeEifE3$_0NS_9allocatorIS4_EEFfifbEEENS_22__allocator_destructorINS5_IS8_EEEEE5firstB7v160006Ev', symObjAddr: 0x917C, symBinAddr: 0x1000201B4, symSize: 0x24 }
  - { offsetInCU: 0x9D3F, offset: 0x79434, size: 0x8, addend: 0x0, symName: '__ZNKSt3__122__compressed_pair_elemIPNS_10__function6__funcIZN3SNN15Neuron_firetimeEifE3$_0NS_9allocatorIS4_EEFfifbEEELi0ELb0EE5__getB7v160006Ev', symObjAddr: 0x91A0, symBinAddr: 0x1000201D8, symSize: 0x14 }
  - { offsetInCU: 0x9D65, offset: 0x7945A, size: 0x8, addend: 0x0, symName: '__ZNKSt3__117__compressed_pairIZN3SNN15Neuron_firetimeEifE3$_0NS_9allocatorIS2_EEE5firstB7v160006Ev', symObjAddr: 0x91B4, symBinAddr: 0x1000201EC, symSize: 0x24 }
  - { offsetInCU: 0x9D8B, offset: 0x79480, size: 0x8, addend: 0x0, symName: '__ZNKSt3__122__compressed_pair_elemIZN3SNN15Neuron_firetimeEifE3$_0Li0ELb0EE5__getB7v160006Ev', symObjAddr: 0x91D8, symBinAddr: 0x100020210, symSize: 0x14 }
  - { offsetInCU: 0x9DB1, offset: 0x794A6, size: 0x8, addend: 0x0, symName: '__ZNSt3__110__function6__funcIZN3SNN15Neuron_firetimeEifE3$_0NS_9allocatorIS3_EEFfifbEEC2B7v160006ERKS3_OS5_', symObjAddr: 0x91EC, symBinAddr: 0x100020224, symSize: 0x88 }
  - { offsetInCU: 0x9DF9, offset: 0x794EE, size: 0x8, addend: 0x0, symName: '__ZNSt3__110__function12__alloc_funcIZN3SNN15Neuron_firetimeEifE3$_0NS_9allocatorIS3_EEFfifbEEC1B7v160006ERKS3_OS5_', symObjAddr: 0x9274, symBinAddr: 0x1000202AC, symSize: 0x3C }
  - { offsetInCU: 0x9E3F, offset: 0x79534, size: 0x8, addend: 0x0, symName: '__ZNSt3__110__function12__alloc_funcIZN3SNN15Neuron_firetimeEifE3$_0NS_9allocatorIS3_EEFfifbEEC2B7v160006ERKS3_OS5_', symObjAddr: 0x92B0, symBinAddr: 0x1000202E8, symSize: 0x5C }
  - { offsetInCU: 0x9E85, offset: 0x7957A, size: 0x8, addend: 0x0, symName: '__ZNSt3__117__compressed_pairIZN3SNN15Neuron_firetimeEifE3$_0NS_9allocatorIS2_EEEC1B7v160006IJRKS2_EJOS4_EEENS_21piecewise_construct_tENS_5tupleIJDpT_EEENSB_IJDpT0_EEE', symObjAddr: 0x9338, symBinAddr: 0x100020370, symSize: 0x3C }
  - { offsetInCU: 0x9EEF, offset: 0x795E4, size: 0x8, addend: 0x0, symName: '__ZNSt3__15tupleIJRKZN3SNN15Neuron_firetimeEifE3$_0EEC1B7v160006INS_4_AndELi0EEES4_', symObjAddr: 0x9374, symBinAddr: 0x1000203AC, symSize: 0x34 }
  - { offsetInCU: 0x9F39, offset: 0x7962E, size: 0x8, addend: 0x0, symName: '__ZNSt3__15tupleIJRKZN3SNN15Neuron_firetimeEifE3$_0EEC2B7v160006INS_4_AndELi0EEES4_', symObjAddr: 0x93A8, symBinAddr: 0x1000203E0, symSize: 0x34 }
  - { offsetInCU: 0x9F83, offset: 0x79678, size: 0x8, addend: 0x0, symName: '__ZNSt3__112__tuple_implINS_15__tuple_indicesIJLm0EEEEJRKZN3SNN15Neuron_firetimeEifE3$_0EEC1B7v160006IJLm0EEJS6_EJEJEJS6_EEENS1_IJXspT_EEEENS_13__tuple_typesIJDpT0_EEENS1_IJXspT1_EEEENSA_IJDpT2_EEEDpOT3_', symObjAddr: 0x93DC, symBinAddr: 0x100020414, symSize: 0x34 }
  - { offsetInCU: 0xA016, offset: 0x7970B, size: 0x8, addend: 0x0, symName: '__ZNSt3__112__tuple_implINS_15__tuple_indicesIJLm0EEEEJRKZN3SNN15Neuron_firetimeEifE3$_0EEC2B7v160006IJLm0EEJS6_EJEJEJS6_EEENS1_IJXspT_EEEENS_13__tuple_typesIJDpT0_EEENS1_IJXspT1_EEEENSA_IJDpT2_EEEDpOT3_', symObjAddr: 0x9410, symBinAddr: 0x100020448, symSize: 0x34 }
  - { offsetInCU: 0xA0A9, offset: 0x7979E, size: 0x8, addend: 0x0, symName: '__ZNSt3__112__tuple_leafILm0ERKZN3SNN15Neuron_firetimeEifE3$_0Lb0EEC2B7v160006IS4_vEEOT_', symObjAddr: 0x9444, symBinAddr: 0x10002047C, symSize: 0x20 }
  - { offsetInCU: 0xA0EC, offset: 0x797E1, size: 0x8, addend: 0x0, symName: '__ZNSt3__117__compressed_pairIZN3SNN15Neuron_firetimeEifE3$_0NS_9allocatorIS2_EEEC2B7v160006IJRKS2_EJOS4_EEENS_21piecewise_construct_tENS_5tupleIJDpT_EEENSB_IJDpT0_EEE', symObjAddr: 0x9464, symBinAddr: 0x10002049C, symSize: 0x54 }
  - { offsetInCU: 0xA156, offset: 0x7984B, size: 0x8, addend: 0x0, symName: '__ZNSt3__122__compressed_pair_elemIZN3SNN15Neuron_firetimeEifE3$_0Li0ELb0EEC2B7v160006IJRKS2_EJLm0EEEENS_21piecewise_construct_tENS_5tupleIJDpT_EEENS_15__tuple_indicesIJXspT0_EEEE', symObjAddr: 0x94B8, symBinAddr: 0x1000204F0, symSize: 0x44 }
  - { offsetInCU: 0xA1BB, offset: 0x798B0, size: 0x8, addend: 0x0, symName: '__ZNSt3__112__tuple_leafILm0ERKZN3SNN15Neuron_firetimeEifE3$_0Lb0EE3getB7v160006Ev', symObjAddr: 0x9520, symBinAddr: 0x100020558, symSize: 0x18 }
  - { offsetInCU: 0xA1E1, offset: 0x798D6, size: 0x8, addend: 0x0, symName: '__ZNSt3__117__compressed_pairIPNS_10__function6__funcIZN3SNN15Neuron_firetimeEifE3$_0NS_9allocatorIS4_EEFfifbEEENS_22__allocator_destructorINS5_IS8_EEEEE5firstB7v160006Ev', symObjAddr: 0x9538, symBinAddr: 0x100020570, symSize: 0x24 }
  - { offsetInCU: 0xA207, offset: 0x798FC, size: 0x8, addend: 0x0, symName: '__ZNSt3__122__compressed_pair_elemIPNS_10__function6__funcIZN3SNN15Neuron_firetimeEifE3$_0NS_9allocatorIS4_EEFfifbEEELi0ELb0EE5__getB7v160006Ev', symObjAddr: 0x955C, symBinAddr: 0x100020594, symSize: 0x14 }
  - { offsetInCU: 0xA22D, offset: 0x79922, size: 0x8, addend: 0x0, symName: '__ZNSt3__110unique_ptrINS_10__function6__funcIZN3SNN15Neuron_firetimeEifE3$_0NS_9allocatorIS4_EEFfifbEEENS_22__allocator_destructorINS5_IS8_EEEEED2B7v160006Ev', symObjAddr: 0x9570, symBinAddr: 0x1000205A8, symSize: 0x30 }
  - { offsetInCU: 0xA257, offset: 0x7994C, size: 0x8, addend: 0x0, symName: '__ZNSt3__110unique_ptrINS_10__function6__funcIZN3SNN15Neuron_firetimeEifE3$_0NS_9allocatorIS4_EEFfifbEEENS_22__allocator_destructorINS5_IS8_EEEEE5resetB7v160006EPS8_', symObjAddr: 0x95A0, symBinAddr: 0x1000205D8, symSize: 0x78 }
  - { offsetInCU: 0xA29B, offset: 0x79990, size: 0x8, addend: 0x0, symName: '__ZNSt3__117__compressed_pairIPNS_10__function6__funcIZN3SNN15Neuron_firetimeEifE3$_0NS_9allocatorIS4_EEFfifbEEENS_22__allocator_destructorINS5_IS8_EEEEE6secondB7v160006Ev', symObjAddr: 0x9618, symBinAddr: 0x100020650, symSize: 0x28 }
  - { offsetInCU: 0xA2C1, offset: 0x799B6, size: 0x8, addend: 0x0, symName: '__ZNSt3__122__allocator_destructorINS_9allocatorINS_10__function6__funcIZN3SNN15Neuron_firetimeEifE3$_0NS1_IS5_EEFfifbEEEEEEclB7v160006EPS8_', symObjAddr: 0x9640, symBinAddr: 0x100020678, symSize: 0x34 }
  - { offsetInCU: 0xA2F5, offset: 0x799EA, size: 0x8, addend: 0x0, symName: '__ZNSt3__122__compressed_pair_elemINS_22__allocator_destructorINS_9allocatorINS_10__function6__funcIZN3SNN15Neuron_firetimeEifE3$_0NS2_IS6_EEFfifbEEEEEEELi1ELb0EE5__getB7v160006Ev', symObjAddr: 0x9674, symBinAddr: 0x1000206AC, symSize: 0x14 }
  - { offsetInCU: 0xA31B, offset: 0x79A10, size: 0x8, addend: 0x0, symName: '__ZNSt3__116allocator_traitsINS_9allocatorINS_10__function6__funcIZN3SNN15Neuron_firetimeEifE3$_0NS1_IS5_EEFfifbEEEEEE10deallocateB7v160006ERS9_PS8_m', symObjAddr: 0x9688, symBinAddr: 0x1000206C0, symSize: 0x34 }
  - { offsetInCU: 0xA35D, offset: 0x79A52, size: 0x8, addend: 0x0, symName: '__ZNSt3__19allocatorINS_10__function6__funcIZN3SNN15Neuron_firetimeEifE3$_0NS0_IS4_EEFfifbEEEE10deallocateB7v160006EPS7_m', symObjAddr: 0x96BC, symBinAddr: 0x1000206F4, symSize: 0x40 }
  - { offsetInCU: 0xA39F, offset: 0x79A94, size: 0x8, addend: 0x0, symName: '__ZNSt3__110__function6__funcIZN3SNN15Neuron_firetimeEifE3$_0NS_9allocatorIS3_EEFfifbEEC1B7v160006ERKS3_RKS5_', symObjAddr: 0x96FC, symBinAddr: 0x100020734, symSize: 0x3C }
  - { offsetInCU: 0xA3E7, offset: 0x79ADC, size: 0x8, addend: 0x0, symName: '__ZNSt3__110__function6__funcIZN3SNN15Neuron_firetimeEifE3$_0NS_9allocatorIS3_EEFfifbEEC2B7v160006ERKS3_RKS5_', symObjAddr: 0x9738, symBinAddr: 0x100020770, symSize: 0x88 }
  - { offsetInCU: 0xA42F, offset: 0x79B24, size: 0x8, addend: 0x0, symName: '__ZNSt3__110__function12__alloc_funcIZN3SNN15Neuron_firetimeEifE3$_0NS_9allocatorIS3_EEFfifbEEC1B7v160006ERKS3_RKS5_', symObjAddr: 0x97C0, symBinAddr: 0x1000207F8, symSize: 0x3C }
  - { offsetInCU: 0xA475, offset: 0x79B6A, size: 0x8, addend: 0x0, symName: '__ZNSt3__110__function12__alloc_funcIZN3SNN15Neuron_firetimeEifE3$_0NS_9allocatorIS3_EEFfifbEEC2B7v160006ERKS3_RKS5_', symObjAddr: 0x97FC, symBinAddr: 0x100020834, symSize: 0x5C }
  - { offsetInCU: 0xA4BB, offset: 0x79BB0, size: 0x8, addend: 0x0, symName: '__ZNSt3__117__compressed_pairIZN3SNN15Neuron_firetimeEifE3$_0NS_9allocatorIS2_EEEC1B7v160006IJRKS2_EJRKS4_EEENS_21piecewise_construct_tENS_5tupleIJDpT_EEENSC_IJDpT0_EEE', symObjAddr: 0x9884, symBinAddr: 0x1000208BC, symSize: 0x3C }
  - { offsetInCU: 0xA525, offset: 0x79C1A, size: 0x8, addend: 0x0, symName: '__ZNSt3__15tupleIJRKNS_9allocatorIZN3SNN15Neuron_firetimeEifE3$_0EEEEC1B7v160006INS_4_AndELi0EEES6_', symObjAddr: 0x98C0, symBinAddr: 0x1000208F8, symSize: 0x34 }
  - { offsetInCU: 0xA56F, offset: 0x79C64, size: 0x8, addend: 0x0, symName: '__ZNSt3__15tupleIJRKNS_9allocatorIZN3SNN15Neuron_firetimeEifE3$_0EEEEC2B7v160006INS_4_AndELi0EEES6_', symObjAddr: 0x98F4, symBinAddr: 0x10002092C, symSize: 0x34 }
  - { offsetInCU: 0xA5B9, offset: 0x79CAE, size: 0x8, addend: 0x0, symName: '__ZNSt3__112__tuple_implINS_15__tuple_indicesIJLm0EEEEJRKNS_9allocatorIZN3SNN15Neuron_firetimeEifE3$_0EEEEC1B7v160006IJLm0EEJS8_EJEJEJS8_EEENS1_IJXspT_EEEENS_13__tuple_typesIJDpT0_EEENS1_IJXspT1_EEEENSC_IJDpT2_EEEDpOT3_', symObjAddr: 0x9928, symBinAddr: 0x100020960, symSize: 0x34 }
  - { offsetInCU: 0xA64C, offset: 0x79D41, size: 0x8, addend: 0x0, symName: '__ZNSt3__112__tuple_implINS_15__tuple_indicesIJLm0EEEEJRKNS_9allocatorIZN3SNN15Neuron_firetimeEifE3$_0EEEEC2B7v160006IJLm0EEJS8_EJEJEJS8_EEENS1_IJXspT_EEEENS_13__tuple_typesIJDpT0_EEENS1_IJXspT1_EEEENSC_IJDpT2_EEEDpOT3_', symObjAddr: 0x995C, symBinAddr: 0x100020994, symSize: 0x34 }
  - { offsetInCU: 0xA6DF, offset: 0x79DD4, size: 0x8, addend: 0x0, symName: '__ZNSt3__112__tuple_leafILm0ERKNS_9allocatorIZN3SNN15Neuron_firetimeEifE3$_0EELb0EEC2B7v160006IS6_vEEOT_', symObjAddr: 0x9990, symBinAddr: 0x1000209C8, symSize: 0x20 }
  - { offsetInCU: 0xA722, offset: 0x79E17, size: 0x8, addend: 0x0, symName: '__ZNSt3__117__compressed_pairIZN3SNN15Neuron_firetimeEifE3$_0NS_9allocatorIS2_EEEC2B7v160006IJRKS2_EJRKS4_EEENS_21piecewise_construct_tENS_5tupleIJDpT_EEENSC_IJDpT0_EEE', symObjAddr: 0x99B0, symBinAddr: 0x1000209E8, symSize: 0x54 }
  - { offsetInCU: 0xA78C, offset: 0x79E81, size: 0x8, addend: 0x0, symName: '__ZNSt3__122__compressed_pair_elemINS_9allocatorIZN3SNN15Neuron_firetimeEifE3$_0EELi1ELb1EEC2B7v160006IJRKS4_EJLm0EEEENS_21piecewise_construct_tENS_5tupleIJDpT_EEENS_15__tuple_indicesIJXspT0_EEEE', symObjAddr: 0x9A04, symBinAddr: 0x100020A3C, symSize: 0x38 }
  - { offsetInCU: 0xA7F1, offset: 0x79EE6, size: 0x8, addend: 0x0, symName: '__ZNSt3__112__tuple_leafILm0ERKNS_9allocatorIZN3SNN15Neuron_firetimeEifE3$_0EELb0EE3getB7v160006Ev', symObjAddr: 0x9A60, symBinAddr: 0x100020A98, symSize: 0x18 }
  - { offsetInCU: 0xA817, offset: 0x79F0C, size: 0x8, addend: 0x0, symName: '__ZNSt3__110__function12__alloc_funcIZN3SNN15Neuron_firetimeEifE3$_0NS_9allocatorIS3_EEFfifbEE7destroyB7v160006Ev', symObjAddr: 0x9A78, symBinAddr: 0x100020AB0, symSize: 0x10 }
  - { offsetInCU: 0xA83D, offset: 0x79F32, size: 0x8, addend: 0x0, symName: '__ZNSt3__110__function12__alloc_funcIZN3SNN15Neuron_firetimeEifE3$_0NS_9allocatorIS3_EEFfifbEEclB7v160006EOiOfOb', symObjAddr: 0x9A88, symBinAddr: 0x100020AC0, symSize: 0x40 }
  - { offsetInCU: 0xA88D, offset: 0x79F82, size: 0x8, addend: 0x0, symName: '__ZNSt3__128__invoke_void_return_wrapperIfLb0EE6__callIJRZN3SNN15Neuron_firetimeEifE3$_0ifbEEEfDpOT_', symObjAddr: 0x9AC8, symBinAddr: 0x100020B00, symSize: 0x3C }
  - { offsetInCU: 0xA8F8, offset: 0x79FED, size: 0x8, addend: 0x0, symName: '__ZNSt3__117__compressed_pairIZN3SNN15Neuron_firetimeEifE3$_0NS_9allocatorIS2_EEE5firstB7v160006Ev', symObjAddr: 0x9B04, symBinAddr: 0x100020B3C, symSize: 0x24 }
  - { offsetInCU: 0xA923, offset: 0x7A018, size: 0x8, addend: 0x0, symName: '__ZZN3SNN15Neuron_firetimeEifENK3$_0clEifb', symObjAddr: 0x9B74, symBinAddr: 0x100020BAC, symSize: 0x6C }
  - { offsetInCU: 0xA97A, offset: 0x7A06F, size: 0x8, addend: 0x0, symName: '__ZNSt3__122__compressed_pair_elemIZN3SNN15Neuron_firetimeEifE3$_0Li0ELb0EE5__getB7v160006Ev', symObjAddr: 0x9BE0, symBinAddr: 0x100020C18, symSize: 0x14 }
  - { offsetInCU: 0xA9D6, offset: 0x7A0CB, size: 0x8, addend: 0x0, symName: __ZNKSt9type_infoeqB7v160006ERKS_, symObjAddr: 0x9BF4, symBinAddr: 0x100020C2C, symSize: 0xDC }
  - { offsetInCU: 0xAA74, offset: 0x7A169, size: 0x8, addend: 0x0, symName: __ZNSt27__type_info_implementations30__non_unique_arm_rtti_bit_impl21__is_type_name_uniqueB7v160006Em, symObjAddr: 0x9CD0, symBinAddr: 0x100020D08, symSize: 0x20 }
  - { offsetInCU: 0xAA98, offset: 0x7A18D, size: 0x8, addend: 0x0, symName: __ZNSt3__18functionIFfifbEED2Ev, symObjAddr: 0x9CF0, symBinAddr: 0x100020D28, symSize: 0x2C }
  - { offsetInCU: 0xAAC4, offset: 0x7A1B9, size: 0x8, addend: 0x0, symName: __ZNSt3__110__function12__value_funcIFfifbEED1B7v160006Ev, symObjAddr: 0x9D1C, symBinAddr: 0x100020D54, symSize: 0x2C }
  - { offsetInCU: 0xAAEE, offset: 0x7A1E3, size: 0x8, addend: 0x0, symName: __ZNSt3__110__function12__value_funcIFfifbEED2B7v160006Ev, symObjAddr: 0x9D48, symBinAddr: 0x100020D80, symSize: 0x90 }
  - { offsetInCU: 0xAB23, offset: 0x7A218, size: 0x8, addend: 0x0, symName: __ZNSt3__16vectorIiNS_9allocatorIiEEE17__destruct_at_endB7v160006EPi, symObjAddr: 0xA60C, symBinAddr: 0x100020F50, symSize: 0x60 }
  - { offsetInCU: 0xAB67, offset: 0x7A25C, size: 0x8, addend: 0x0, symName: __ZNSt3__16vectorIiNS_9allocatorIiEEE27__invalidate_iterators_pastB7v160006EPi, symObjAddr: 0xA6F4, symBinAddr: 0x100021038, symSize: 0x14 }
  - { offsetInCU: 0xAB9E, offset: 0x7A293, size: 0x8, addend: 0x0, symName: __ZNKSt3__111__wrap_iterIPKiE4baseB7v160006Ev, symObjAddr: 0xA708, symBinAddr: 0x10002104C, symSize: 0x18 }
  - { offsetInCU: 0xABE1, offset: 0x7A2D6, size: 0x8, addend: 0x0, symName: __ZNKSt3__114__move_trivialclB7v160006IiiLi0EEENS_4pairIPT_PT0_EES4_S4_S6_, symObjAddr: 0xA904, symBinAddr: 0x100021248, symSize: 0x48 }
  - { offsetInCU: 0xAC50, offset: 0x7A345, size: 0x8, addend: 0x0, symName: __ZNSt3__14pairIPiS1_EC1B7v160006IRS1_S1_LPv0EEEOT_OT0_, symObjAddr: 0xAACC, symBinAddr: 0x100021410, symSize: 0x3C }
  - { offsetInCU: 0xACAE, offset: 0x7A3A3, size: 0x8, addend: 0x0, symName: __ZNSt3__14pairIPiS1_EC2B7v160006IRS1_S1_LPv0EEEOT_OT0_, symObjAddr: 0xAB08, symBinAddr: 0x10002144C, symSize: 0x34 }
  - { offsetInCU: 0xAD0C, offset: 0x7A401, size: 0x8, addend: 0x0, symName: __ZNSt3__118__unwrap_iter_implIPiLb1EE8__unwrapB7v160006ES1_, symObjAddr: 0xAB3C, symBinAddr: 0x100021480, symSize: 0x24 }
  - { offsetInCU: 0xAD2F, offset: 0x7A424, size: 0x8, addend: 0x0, symName: __ZNSt3__14pairIPiS1_EC1B7v160006IS1_S1_LPv0EEEOT_OT0_, symObjAddr: 0xAB60, symBinAddr: 0x1000214A4, symSize: 0x3C }
  - { offsetInCU: 0xAD8D, offset: 0x7A482, size: 0x8, addend: 0x0, symName: __ZNSt3__14pairIPiS1_EC2B7v160006IS1_S1_LPv0EEEOT_OT0_, symObjAddr: 0xAB9C, symBinAddr: 0x1000214E0, symSize: 0x34 }
  - { offsetInCU: 0xADEB, offset: 0x7A4E0, size: 0x8, addend: 0x0, symName: __ZNSt3__118__unwrap_iter_implIPiLb1EE8__rewrapB7v160006ES1_S1_, symObjAddr: 0xABD0, symBinAddr: 0x100021514, symSize: 0x50 }
...
